(dp1
S'body'
p2
S'TEXT'
p3
sS'image_id'
p4
S'INTEGER REFERENCES image(id) ON DELETE CASCADE'
p5
sS'email'
p6
S'CHAR(512)'
p7
sS'id'
p8
S'INTEGER PRIMARY KEY AUTOINCREMENT'
p9
sS'author'
p10
S'CHAR(512)'
p11
s.