(dp1
S'output'
p2
S''
sS'layer'
p3
S'/home/j3nnn1/git/pyj3nnn1/web2py/applications/angvp_tweepy/controllers/default.py'
p4
sS'code'
p5
S'# -*- coding: utf-8 -*- \nimport tweepy\n#########################################################################\n## This is a samples controller\n## - index is the default action of any application\n## - user is required for authentication and authorization\n## - download is for downloading files uploaded in the db (does streaming)\n## - call exposes all registered services (none by default)\n#########################################################################  \n\ndef index():\n    """\n    example action using the internationalization operator T and flash\n    rendered by views/default/index.html or views/generic.html\n    """\n    user = tweepy.api.get_user(\'j3nnn1\')\n    \n    dictionarytweet    = {}\n    dictuser           = {\'name\':user.name,\'image\':user.profile_image_url,\'status\':user.status.text}\n    \n    tweetpublic  = tweepy.api.public_timeline()\n    \n    for i, tweet in enumerate(tweetpublic):\n        userpublic = tweet.user\n        dictionarytweet[i]={\'name\': userpublic.screen_name, \'status\':tweet.text, \'url_pic\':userpublic.profile_image_url, \'username\': userpublic.name}\n    \n    return dict(userinfo=dictuser, public=dictionarytweet)\n\n\ndef user():\n    """\n    exposes:\n    http://..../[app]/default/user/login \n    http://..../[app]/default/user/logout\n    http://..../[app]/default/user/register\n    http://..../[app]/default/user/profile\n    http://..../[app]/default/user/retrieve_password\n    http://..../[app]/default/user/change_password\n    use @auth.requires_login()\n        @auth.requires_membership(\'group name\')\n        @auth.requires_permission(\'read\',\'table name\',record_id)\n    to decorate functions that need access control\n    """\n    return dict(form=auth())\n\n\ndef download():\n    """\n    allows downloading of uploaded files\n    http://..../[app]/default/download/[filename]\n    """\n    return response.download(request,db)\n\n\ndef call():\n    """\n    exposes services. for example:\n    http://..../[app]/default/call/jsonrpc\n    decorate with @services.jsonrpc the functions to expose\n    supports xml, json, xmlrpc, jsonrpc, amfrpc, rss, csv\n    """\n    session.forget()\n    return service()\n\nresponse._vars=response._caller(index)\n'
p6
sS'snapshot'
p7
(dp8
S'exception'
p9
(dp10
S'__hash__'
p11
S"<method-wrapper '__hash__' of exceptions.AttributeError object>"
p12
sS'__setattr__'
p13
S"<method-wrapper '__setattr__' of exceptions.AttributeError object>"
p14
sS'__reduce_ex__'
p15
S'<built-in method __reduce_ex__ of exceptions.AttributeError object>'
p16
sS'__getslice__'
p17
S"<method-wrapper '__getslice__' of exceptions.AttributeError object>"
p18
sS'__getitem__'
p19
S"<method-wrapper '__getitem__' of exceptions.AttributeError object>"
p20
sS'__setstate__'
p21
S'<built-in method __setstate__ of exceptions.AttributeError object>'
p22
sS'__reduce__'
p23
S'<built-in method __reduce__ of exceptions.AttributeError object>'
p24
sS'__str__'
p25
S"<method-wrapper '__str__' of exceptions.AttributeError object>"
p26
sS'__format__'
p27
S'<built-in method __format__ of exceptions.AttributeError object>'
p28
sS'__getattribute__'
p29
S"<method-wrapper '__getattribute__' of exceptions.AttributeError object>"
p30
sS'__class__'
p31
S"<type 'exceptions.AttributeError'>"
p32
sS'__unicode__'
p33
S'<built-in method __unicode__ of exceptions.AttributeError object>'
p34
sS'__delattr__'
p35
S"<method-wrapper '__delattr__' of exceptions.AttributeError object>"
p36
sS'__subclasshook__'
p37
S'<built-in method __subclasshook__ of type object>'
p38
sS'__repr__'
p39
S"<method-wrapper '__repr__' of exceptions.AttributeError object>"
p40
sS'args'
p41
S'("\'User\' object has no attribute \'status\'",)'
p42
sS'__dict__'
p43
S'{}'
p44
sS'__sizeof__'
p45
S'<built-in method __sizeof__ of exceptions.AttributeError object>'
p46
sS'__doc__'
p47
S"'Attribute not found.'"
p48
sS'__init__'
p49
S"<method-wrapper '__init__' of exceptions.AttributeError object>"
p50
sS'__new__'
p51
S'<built-in method __new__ of type object>'
p52
ssS'evalue'
p53
S"'User' object has no attribute 'status'"
p54
sS'request'
p55
(dp56
S'function'
p57
S"'index'"
p58
sS'body'
p59
S'<cStringIO.StringO object>'
p60
sS'wsgi'
p61
S"<Storage {'start_response': <function <lambda> a...>, 'HTTP_ACCEPT_ENCODING': 'gzip,deflate,sdch'}}>"
p62
sS'extension'
p63
S"'html'"
p64
sS'vars'
p65
S'<Storage {}>'
p66
sS'cid'
p67
S'None'
p68
sS'url'
p69
S'<gluon.html.XML object>'
p70
sg41
S'[]'
p71
sS'controller'
p72
S"'default'"
p73
sS'cookies'
p74
S"<SimpleCookie: session_id_admin='127-0-0-1-30657...'127-0-0-1-f66a923b-35d4-4221-bb69-65adf56edca3'>"
p75
sS'application'
p76
S"'angvp_tweepy'"
p77
sS'ajax'
p78
S'False'
p79
sS'client'
p80
S"'127.0.0.1'"
p81
sS'env'
p82
S"<Storage {'http_user_agent': 'Mozilla/5.0 (X11; ...lse, 'path_info': '/angvp_tweepy/default/index'}>"
p83
sS'raw_args'
p84
S'None'
p85
sS'get_vars'
p86
S'<Storage {}>'
p87
sS'folder'
p88
S"'/home/j3nnn1/git/pyj3nnn1/web2py/applications/angvp_tweepy/'"
p89
sS'now'
p90
S'datetime.datetime(2010, 10, 24, 17, 14, 41, 152612)'
p91
sS'post_vars'
p92
S'<Storage {}>'
p93
ssS'frames'
p94
(lp95
(dp96
S'file'
p97
S'/home/j3nnn1/git/pyj3nnn1/web2py/gluon/restricted.py'
p98
sS'dump'
p99
(dp100
S'environment'
p101
S"{'A': <class 'gluon.html.A'>, 'Auth': <class 'gluon.tools.Auth'>, 'B': <class 'gluon.html.B'>, 'BEAUTIFY': <class 'gluon.html.BEAUTIFY'>, 'BODY': <class 'gluon.html.BODY'>, 'BR': <class 'gluon.html.BR'>, 'CENTER': <class 'gluon.html.CENTER'>, 'CLEANUP': <class 'gluon.validators.CLEANUP'>, 'CODE': <class 'gluon.html.CODE'>, 'CRYPT': <class 'gluon.validators.CRYPT'>, ...}"
p102
sS'ccode'
p103
S'<code object <module> at 0x95af068, file "/home/...ons/angvp_tweepy/controllers/default.py", line 2>'
p104
ssS'lnum'
p105
I188
sS'lines'
p106
(dp107
I192
S'        # XXX Show exception in Wing IDE if running in debugger'
p108
sI183
S'        if type(code) == types.CodeType:'
p109
sI184
S'            ccode = code'
p110
sI185
S'        else:'
p111
sI186
S'            ccode = compile2(code,layer)'
p112
sI187
S''
sI188
S'        exec ccode in environment'
p113
sI189
S'    except HTTP:'
p114
sI190
S'        raise'
p115
sI191
S'    except Exception:'
p116
ssS'call'
p117
S"(code='# -*- coding: utf-8 -*- \\nimport tweepy\\n#########...ervice()\\n\\nresponse._vars=response._caller(index)\\n', environment={'A': <class 'gluon.html.A'>, 'Auth': <class 'gluon.tools.Auth'>, 'B': <class 'gluon.html.B'>, 'BEAUTIFY': <class 'gluon.html.BEAUTIFY'>, 'BODY': <class 'gluon.html.BODY'>, 'BR': <class 'gluon.html.BR'>, 'CENTER': <class 'gluon.html.CENTER'>, 'CLEANUP': <class 'gluon.validators.CLEANUP'>, 'CODE': <class 'gluon.html.CODE'>, 'CRYPT': <class 'gluon.validators.CRYPT'>, ...}, layer='/home/j3nnn1/git/pyj3nnn1/web2py/applications/angvp_tweepy/controllers/default.py')"
p118
sS'func'
p119
S'restricted'
p120
sa(dp121
g97
S'/home/j3nnn1/git/pyj3nnn1/web2py/applications/angvp_tweepy/controllers/default.py'
p122
sg99
(dp123
sg105
I65
sg106
(dp124
I54
S''
sI55
S'def call():'
p125
sI56
S'    """'
p126
sI57
S'    exposes services. for example:'
p127
sI58
S'    http://..../[app]/default/call/jsonrpc'
p128
sI59
S'    decorate with @services.jsonrpc the functions to expose'
p129
sI60
S'    supports xml, json, xmlrpc, jsonrpc, amfrpc, rss, csv'
p130
sI61
S'    """'
p131
sI62
S'    session.forget()'
p132
sI63
S'    return service()'
p133
ssg117
S'()'
p134
sg119
S'<module>'
p135
sa(dp136
g97
S'/home/j3nnn1/git/pyj3nnn1/web2py/gluon/globals.py'
p137
sg99
(dp138
S'self'
p139
S'undefined'
p140
sS'f'
S'<function index>'
p141
ssg105
I96
sg106
(dp142
I96
S'        self._caller = lambda f: f()'
p143
sI97
S'        self._view_environment = None'
p144
sI98
S'        self._custom_commit = None'
p145
sI99
S'        self._custom_rollback = None'
p146
sI100
S''
sI91
S"        self.flash = ''           # used by the default view layout"
p147
sI92
S'        self.meta = Storage()     # used by web2py_ajax.html'
p148
sI93
S'        self.menu = []            # used by the default view layout'
p149
sI94
S'        self.files = []           # used by web2py_ajax.html'
p150
sI95
S'        self._vars = None'
p151
ssg117
S'(f=<function index>)'
p152
sg119
S'<lambda>'
p153
sa(dp154
g97
S'/home/j3nnn1/git/pyj3nnn1/web2py/applications/angvp_tweepy/controllers/default.py'
p155
sg99
(dp156
S'user.status'
p157
g140
sS'dictuser'
p158
g140
sS'user'
p159
S'<tweepy.models.User object>'
p160
sS'user.profile_image_url'
p161
S"'http://a1.twimg.com/profile_images/1110270905/20091102_BooFromMonstersInc_normal.jpg'"
p162
sS'user.name'
p163
S"'jenn'"
p164
ssg105
I19
sg106
(dp165
I14
S'    rendered by views/default/index.html or views/generic.html'
p166
sI15
S'    """'
p167
sI16
S"    user = tweepy.api.get_user('j3nnn1')"
p168
sI17
S''
sI18
S'    dictionarytweet    = {}'
p169
sI19
S"    dictuser           = {'name':user.name,'image':user.profile_image_url,'status':user.status.text}"
p170
sI20
S''
sI21
S'    tweetpublic  = tweepy.api.public_timeline()'
p171
sI22
S''
sI23
S'    for i, tweet in enumerate(tweetpublic):'
p172
ssg117
S'()'
p173
sg119
S'index'
p174
sasS'pyver'
p175
S'Python 2.6.6: /usr/bin/python'
p176
sS'session'
p177
(dp178
S'auth'
p179
S'None'
p180
ssS'etype'
p181
S"<type 'exceptions.AttributeError'>"
p182
sS'date'
p183
S'Sun Oct 24 17:14:41 2010'
p184
sS'response'
p185
(dp186
S'status'
p187
S'200'
p188
sg59
S'<cStringIO.StringO object>'
p189
sg74
S"<SimpleCookie: session_id_angvp_tweepy='127-0-0-1-f5e4191a-da7d-49bb-ac3a-078a01c01be2'>"
p190
sS'_vars'
p191
S'None'
p192
sS'title'
p193
S"'angvp_tweepy'"
p194
sS'menu'
p195
S"[(<lazyT 'Index'>, False, <gluon.html.XML object>, []), (<lazyT 'Edit'>, False, <gluon.html.XML object>, [(<lazyT 'Controller'>, False, <gluon.html.XML object>), (<lazyT 'View'>, False, <gluon.html.XML object>), (<lazyT 'Layout'>, False, <gluon.html.XML object>), (<lazyT 'Stylesheet'>, False, <gluon.html.XML object>), (<lazyT 'DB Model'>, False, <gluon.html.XML object>), (<lazyT 'Menu Model'>, False, <gluon.html.XML object>), (<lazyT 'Database'>, False, <gluon.html.XML object>)])]"
p196
sS'flash'
p197
S"''"
p198
sS'session_new'
p199
S'True'
p200
sS'_custom_rollback'
p201
S'None'
p202
sS'session_id'
p203
S"'127-0-0-1-f5e4191a-da7d-49bb-ac3a-078a01c01be2'"
p204
sS'headers'
p205
S"<Storage {'Expires': 'dom, 24 oct 2010 21:44:41 ...he, must-revalidate, post-check=0, pre-check=0'}>"
p206
sS'meta'
p207
S"<Storage {'keywords': 'bla bla bla', 'description': 'describe your app', 'author': 'you'}>"
p208
sS'session_filename'
p209
S"'/home/j3nnn1/git/pyj3nnn1/web2py/applications/an...ns/127-0-0-1-f5e4191a-da7d-49bb-ac3a-078a01c01be2'"
p210
sS'postprocessing'
p211
S'[]'
p212
sS'_caller'
p213
S'<function <lambda>>'
p214
sS'_view_environment'
p215
S"{'A': <class 'gluon.html.A'>, 'Auth': <class 'gluon.tools.Auth'>, 'B': <class 'gluon.html.B'>, 'BEAUTIFY': <class 'gluon.html.BEAUTIFY'>, 'BODY': <class 'gluon.html.BODY'>, 'BR': <class 'gluon.html.BR'>, 'CENTER': <class 'gluon.html.CENTER'>, 'CLEANUP': <class 'gluon.validators.CLEANUP'>, 'CODE': <class 'gluon.html.CODE'>, 'CRYPT': <class 'gluon.validators.CRYPT'>, ...}"
p216
sS'subtitle'
p217
S"<lazyT 'customize me!'>"
p218
sS'session_id_name'
p219
S"'session_id_angvp_tweepy'"
p220
sS'_custom_commit'
p221
S'None'
p222
sS'files'
p223
S'[]'
p224
sS'view'
p225
S"'default/index.html'"
p226
ssS'locals'
p227
(dp228
S'dictionarytweet'
p229
g44
sS'user'
p230
S'<tweepy.models.User object>'
p231
sssS'traceback'
p232
S'Traceback (most recent call last):\n  File "/home/j3nnn1/git/pyj3nnn1/web2py/gluon/restricted.py", line 188, in restricted\n    exec ccode in environment\n  File "/home/j3nnn1/git/pyj3nnn1/web2py/applications/angvp_tweepy/controllers/default.py", line 65, in <module>\n  File "/home/j3nnn1/git/pyj3nnn1/web2py/gluon/globals.py", line 96, in <lambda>\n    self._caller = lambda f: f()\n  File "/home/j3nnn1/git/pyj3nnn1/web2py/applications/angvp_tweepy/controllers/default.py", line 19, in index\n    dictuser           = {\'name\':user.name,\'image\':user.profile_image_url,\'status\':user.status.text}\nAttributeError: \'User\' object has no attribute \'status\'\n'
p233
s.