(dp1
S'output'
p2
S''
sS'layer'
p3
S'applications/blog/views/default/index.html'
p4
sS'code'
p5
S'\nresponse.write(\'<!DOCTYPE html PUBLIC "-//W3C//DTD XHTML 1.0 Strict//EN" "http://www.w3.org/TR/xhtml1/DTD/xhtml1-strict.dtd">\\n<html xmlns="http://www.w3.org/1999/xhtml" xml:lang="en" lang="en">\\n<head>\\n<meta http-equiv="content-type" content="text/html; charset=utf-8" />\\n<meta name="keywords" content="\',escape=False)\nresponse.write(response.keywords)\nresponse.write(\'" />\\n<meta name="description" content="\',escape=False)\nresponse.write(response.description)\nresponse.write(\'" />\\n<title>\',escape=False)\nif response.title:\n    response.write(\'\',escape=False)\n    response.write(response.title)\n    response.write(\'\',escape=False)\nelse:\n    response.write(\'\',escape=False)\n    response.write(URL(r=request))\n    response.write(\'\',escape=False)\n    pass\nresponse.write("</title>\\n<style>\\ndiv.fluid { width: 93% !important; }\\ndiv.fixed { width: 93% !important; }\\n* { margin: 0em; padding: 0em; }\\n body { background-color: #fff; color: #585858; font-size: 10pt; font-family: georgia, serif; }\\n h1,h2,h3,h4,h5,h6 { font-weight: normal; letter-spacing: -1px; page-break-before: always; }\\n h2,h3,h4,h5,h6 { color: #185360; }\\n br.clear { clear: both; }\\n img { padding: 3px; border: solid 1px #e1e1e1; }\\n img.icon { border: 0px; vertical-align: middle; }\\n img.floatTL { float: left; margin-right: 1.5em; margin-bottom: 1.5em; margin-top: 0.5em; }\\n a { text-decoration: none; color: #FF5C1F; }\\n a:hover { text-decoration: underline; }\\n textarea { font-family: courier; }\\n ul { margin-left: 1.5em; }\\n li { line-height: 1.5em; }\\n dt { text-decoration:none; margin-left: +10em; }\\n p { line-height: 1.8em; }\\n table, tr, td { text-align: left; vertical-align: top; } \\n #header { width:100%; height:48px; background: #195866 url(\'/",escape=False)\nresponse.write(request.application)\nresponse.write("/static/title.png\') repeat-x; }\\n #header_inner { position: relative; width: 800px; height:36px; margin: 0 auto; }\\n #header_lite { width:100%; height:36px; background: #440000 url(\'/",escape=False)\nresponse.write(request.application)\nresponse.write(\'/static/title.png\\\') repeat-x; }\\n #header_inner_lite { position: relative; width: 800px; height: 36px; margin: 0 auto; }\\n /* Logo */\\n #logo { position: absolute; bottom: 0.6em; }\\n #logo h1 { display: inline; color: #fff; font-size: 1.8em; }\\n #logo h2 { display: inline; color: #fff; font-size: 1.8em; }\\n /* Menu */\\n #menu { position: absolute; right: 0em; bottom: 0em; }\\n #menu ul { list-style: none; }\\n #menu li { float: left; }\\n #menu li a { margin-left: 0.5em; display: block; padding: 0.5em 0.5em 0.5em 0.5em; background: #fff repeat-x; color: #185360; font-weight: bold; font-size: 1.0em; text-decoration: none;}\\n#menu li a.inactive { background: transparent; color: #FF5C1F; border: solid 0px #185360; border-top: solid 0px #185360; }\\n /* Main */\\n #main { background: #fff 0px 1px repeat-x; }\\n #main_inner p { text-align: justify; margin-bottom: 2.0em; }\\n #main_inner ul { margin-bottom: 2.0em; }\\n #main_inner { position: relative; width: 800px; margin: 0 auto; padding-top: 1.0em; }\\n #main_inner h1 { border-bottom: dotted 1px #E1E1E1; position: relative; font-size: 2.1em; padding-bottom: 0.1em; margin-bottom: 0.8em; }\\n #main_inner .post { position: relative; }\\n #main_inner .post h3 { position: relative; font-size: 1.7em; padding-bottom: 1.2em; }\\n #main_inner .post ul.post_info { list-style: none; position: absolute; top: 3em; font-size: 0.8em; }\\n #main_inner .post ul.post_info li { background-position: 0em 0.2em; background-repeat: no-repeat; display: inline; padding-left: 18px; }\\n /* Flash */\\n #flash { width: 600px; margin: 0 auto; text-align: center; clear: both; border: 1px #000000; background-color: #FF5C1F; color: white; margin-top: 0.0em; margin-bottom: 1.0em; padding-top: 1.0em; padding-bottom: 1.0em; }\\n /* Footer */\\n #footer { width: 800px; margin: 0 auto; text-align: center; clear: both; border-top: dotted 1px #E1E1E1; margin-top: 1.0em; margin-bottom: 1.5em; padding-top: 1.0em; }\\n /* Search */\\n input.button { background: #FF6C1F repeat-x; color: #fff; border: solid 1px #DB7623; font-weight: bold; font-size: 0.8em; height: 2.0em; }\\n input.text { border: solid 1px #F1F1F1; font-size: 1.0em; padding: 0.25em 0.25em 0.25em 0.25em; }\\n /* LAYOUT - 3 COLUMNS */\\n /* Primary content */\\n #primaryContent_3columns { position: relative; margin-right: 34em; }\\n #columnA_3columns { position: relative; float: left; width: 100%; margin-right: -34em; padding-right: 2em; }\\n /* Secondary Content */\\n #secondaryContent_3columns { float: right; }\\n #columnB_3columns { width: 13.0em; float: left; padding: 0em 2em 0.5em 2em; border-left: dotted 1px #E1E1E1; }\\n #columnC_3columns { width: 13.0em; float: left; padding: 0em 0em 0.5em 2em; border-left: dotted 1px #E1E1E1; }\\n /* LAYOUT - 2 COLUMNS */\\n /* Primary content */\\n #primaryContent_2columns { position: relative; margin-right: 17em; }\\n #columnA_2columns { position: relative; float: left; width: 100%; margin-right: -17em; padding-right: 2em; }\\n /* Secondary Content */\\n #secondaryContent_2columns { float: right; }\\n #columnC_2columns { width: 13.0em; float: left; padding: 0em 0em 0.5em 2em; border-left: dotted 1px #E1E1E1; }\\n /* LAYOUT - COLUMNLESS */\\n /* Primary content */\\n #primaryContent_columnless { position: relative; }\\n #columnA_columnless { position: relative; width: 100%; }\\n</style>\\n<script type="text/javascript">\\n<!--\\n/*\\nWritten by Massimo Di Pierro.\\n\\nThis is a minimalistic AJAX for web2py, for more sophisticated stuff\\nyou should use Scriptacolous or some other AJAX toolkit. Anyway...\\n\\nTo use web2py_ajax.html just make sure you include \\\'web2py_ajax.html\\\'\\nin your layout.html. This provides four functions:\\n\\npopup(url)\\ncollapse(id)\\nfade(id,value) // try value= +0.1 or -0.1\\najax(url,sources,taget) \\n// will send sources[i].value to url and dispaly result in target\\n*/\\n\\nfunction popup(url) {\\n  newwindow=window.open(url,\\\'name\\\',\\\'height=400,width=600\\\');\\n  if (window.focus) {newwindow.focus()}\\n  return false;\\n}\\n\\nfunction collapse(id) {\\n   if(this.document.getElementById(id).style.display=="none")\\n   (this.document.getElementById(id).style.display="block") ;\\n   else (this.document.getElementById(id).style.display="none") ;\\n}\\n\\nfunction fade(id,value) {\\n  var object=document.getElementById(id);\\n  if(value<0 && !object.style.opacity) {\\n     this.document.getElementById(id).style.display="block";\\n     object.style.opacity=1;\\n  }\\n  if(value>0 && object.style.opacity>=1) object.style.opacity=1;\\n  else if(value<0 && object.style.opacity<=0) {\\n     this.document.getElementById(id).style.display="none";\\n     object.style.opacity=0;\\n  }\\n  else {\\n     this.document.getElementById(id).style.display="block";\\n     object.style.opacity-=-value;\\n     setTimeout(function(){fade(id,value);},100);\\n     return false;\\n  }\\n  return true;\\n}\\n\\nfunction ajax(url,sources,target) {\\n  var req = null; \\n  var ctarget=document.getElementById(target);\\n  window.status="connecting...";\\n  if(window.XMLHttpRequest)\\n     req = new XMLHttpRequest(); \\n  else if (window.ActiveXObject)\\n     req  = new ActiveXObject("Microsoft.XMLHTTP");\\n  req.onreadystatechange = function() {\\n     window.status="waiting...";\\n     if(req.readyState == 4)\\n       if(req.status == 200) {\\n          window.status=\\\'Ajax Done!\\\'\\n          try { \\n             ctarget.innerHTML=req.responseText; \\n             try {ctarget.scrollTop=ctarget.scrollHeight-ctarget.clientHeight;}\\n             catch(err) {}\\n          } catch(err) { ctarget.value=req.responseText; }\\n       } else alert("AJAX Error: " + req.status);\\n  }\\n  var query=""\\n  for(i=0; i<sources.length; i++) {\\n     if(i>0) query=query+"&";\\n     query=query+encodeURIComponent(sources[i])+"="+encodeURIComponent(document.getElementById(sources[i]).value);\\n  }\\n  req.open("POST",url,true); \\n  req.setRequestHeader("Content-Type", "application/x-www-form-urlencoded"); \\n  req.send(query); \\n} \\n//-->\\n</script>\\n</head>\\n<body \',escape=False)\nif response.flash:\n    response.write(\'onload="fade(\\\'flash\\\',0.1);"\',escape=False)\n    pass\nresponse.write(\'>\\n<div id="header">\\n <div id="header_inner" class="fixed">\\n   <div id="logo">\\n     <h1><a href="http://www.web2py.com">[web2py<sup style="font-size:0.5em;">TM</sup>]</a></h1>\\n     <h2>\',escape=False)\nresponse.write(request.application)\nresponse.write(\'</h2>\\n   </div>\\n   \',escape=False)\nif response.menu:\n    response.write(\'\\n   <div id="menu">\\n   <ul>\\n    \',escape=False)\n    for _name,_active,_link in response.menu:\n        response.write(\'\\n    <li><a href="\',escape=False)\n        response.write(_link)\n        response.write(\'" \',escape=False)\n        if not _active:\n            response.write(\'class="inactive"\',escape=False)\n            pass\n        response.write(\'>\',escape=False)\n        response.write(_name)\n        response.write(\'</a></li>\\n    \',escape=False)\n        pass\n    response.write(\'\\n   </ul>\\n   </div>\\n   \',escape=False)\n    pass\nresponse.write(\'\\n  </div>\\n</div>\\n<div id="main">\\n  <div id="main_inner" class="fixed">\\n    <div id="primaryContent_columnless">\\n      <div id="columnA_columnless">  \\n        \',escape=False)\nif response.flash:\n    response.write(\'\\n        <div id="flash">\',escape=False)\n    response.write(response.flash)\n    response.write(\'</div>\\n        \',escape=False)\n    pass\nresponse.write(\'\\n        \\r\\n\\r\\n\',escape=False)\nfor post in posts:\n    response.write(\'\\r\\n    <h2>\',escape=False)\n    response.write(post.post_title)\n    response.write(\'</h2>\\r\\n    \',escape=False)\n    response.write(post.post_text)\n    response.write(\'\\r\\n\',escape=False)\n    pass\nresponse.write(\'\\r\\n\\r\\n\',escape=False)\nresponse.write(comment_form)\nresponse.write(\'\\n      </div>\\n    </div>\\n  </div>\\n</div>\\n<div id="footer" class="fixed">\\n   Powered by <a href="http://www.web2py.com">web2py</a> (TM) created by Massimo Di Pierro &copy; 2007, 2008\\n</div>\\n</body>\\n</html>\',escape=False)\n'
p6
sS'traceback'
p7
S'Traceback (most recent call last):\n  File "gluon\\restricted.pyc", line 60, in restricted\n  File "applications/blog/views/default/index.html", line 57, in <module>\nNameError: name \'comment_form\' is not defined\n'
p8
s.