(dp1
S'output'
p2
S''
sS'layer'
p3
S'applications/blog/controllers/default.py'
p4
sS'code'
p5
S"pages = db(db.posts.post_type == 'page').select(db.posts.ALL)\nitems = []\nfor page in pages:\n    item = [page.post_title, False, '%s/default/post' % request.application]\n    items.append(item)\nrespose.menu = items\n    \ndef index():\n    posts = db((db.posts.post_status == 'published') & (db.posts.post_type == 'post')).select(db.posts.ALL)\n    return dict(posts = posts)\n\ndef post():\n    try: post_id=int(request.args[0])\n    except: redirect(URL(r=request,f='index'))\n    post=db(db.posts.id==post_id).select()[0]\n    comment_form=SQLFORM(db.comments, fields=['comment_author','comment_author_email', 'comment_text'], labels=comment_labels)\n    return dict(post=post,comment_form=comment_form)\n\ndef page():\n    return dict()\n\ndef category():\n    return dict()\n\nresponse._vars=index()"
p6
sS'traceback'
p7
S'Traceback (most recent call last):\n  File "C:\\Documents and Settings\\csharp\\Desktop\\web2py\\gluon\\restricted.py", line 60, in restricted\n    exec ccode in environment\n  File "applications/blog/controllers/default.py", line 6, in <module>\n    respose.menu = items\nNameError: name \'respose\' is not defined\n'
p8
s.