(dp1
S'output'
p2
S''
sS'layer'
p3
S'applications/blog/controllers/default.py'
p4
sS'code'
p5
S"def index():\n    posts=db(db.posts.post_status=='published').select(db.posts.ALL)\n    return dict(posts=posts)\n\ndef post():\n    try: post_id=int(request.args[0])\n    except: redirect(URL(r=request,f='index'))\n    post=db(db.posts.id==post_id).select()[0]\n    comment_form=SQLFORM(db.comments, fields=['comment_author','comment_author_email', 'comment_text'], labels=['Name', 'Email', 'Comment'])\n    return dict(post=post,comment_form=comment_form)\n\nresponse._vars=post()"
p6
sS'traceback'
p7
S'Traceback (most recent call last):\n  File "gluon\\restricted.pyc", line 60, in restricted\n  File "applications/blog/controllers/default.py", line 12, in <module>\n  File "applications/blog/controllers/default.py", line 9, in post\n  File "gluon\\sqlhtml.pyc", line 63, in __init__\nTypeError: list indices must be integers\n'
p8
s.