(dp1
S'output'
p2
S''
sS'layer'
p3
S'/cygdrive/e/Documents and Settings/jmaldo03/git/pyj3nnn1/pyj3nnn1/web2py/applications/blog/views/default/admin.html'
p4
sS'code'
p5
S'response.write(\'<!DOCTYPE html PUBLIC "-//W3C//DTD XHTML 1.0 Strict//EN" "http://www.w3.org/TR/xhtml1/DTD/xhtml1-strict.dtd">\\n<!--\\nDesign by Free CSS Templates\\nhttp://www.freecsstemplates.org\\nReleased for free under a Creative Commons Attribution 2.5 License\\n\\nName       : Blogging\\nDescription: A two-column, fixed-width design for 1024x768 screen resolutions.\\nVersion    : 1.0\\nReleased   : 20090208\\n\\n-->\\n<html xmlns="http://www.w3.org/1999/xhtml">\\n <head>\\n  <title>\\n   \', escape=False)\nresponse.write(response.title or request.application)\nresponse.write(\'\\n  </title>\\n  \', escape=False)\nresponse.files.append(URL(request.application,\'static\',\'plugin_layouts/layouts/Blogging/style.css\'))\nresponse.write(\'\\n\', escape=False)\nresponse.files.append(URL(\'static\',\'superfish.js\'))\nresponse.write(\'\\n  \', escape=False)\nresponse.files.insert(0,URL(r=request,c=\'static\',f=\'jquery.js\'))\nresponse.files.insert(1,URL(r=request,c=\'static\',f=\'calendar.css\'))\nresponse.files.insert(2,URL(r=request,c=\'static\',f=\'calendar.js\'))\nfor _item in response.meta or []:\n    response.write(\'\\n     <meta name="\', escape=False)\n    response.write(_item)\n    response.write(\'" content="\', escape=False)\n    response.write(response.meta[_item])\n    response.write(\'" />\', escape=False)\n    pass\nfor _k,_file in enumerate(response.files or []):\n    if _file in response.files[:_k]:\n        continue\n    elif _file.lower().endswith(\'.css\'):\n        response.write(\'\\n     <link href="\', escape=False)\n        response.write(_file)\n        response.write(\'" rel="stylesheet" type="text/css" />\', escape=False)\n    elif _file.lower().endswith(\'.js\'):\n        response.write(\'\\n     <script src="\', escape=False)\n        response.write(_file)\n        response.write(\'" type="text/javascript"></script>\', escape=False)\n        pass\n    pass\nresponse.write(\'\\n<script type="text/javascript"><!--\\nfunction popup(url) {\\n  newwindow=window.open(url,\\\'name\\\',\\\'height=400,width=600\\\');\\n  if (window.focus) newwindow.focus();\\n  return false;\\n}\\nfunction collapse(id) { jQuery(\\\'#\\\'+id).slideToggle(); }\\nfunction fade(id,value) { if(value>0) jQuery(\\\'#\\\'+id).hide().fadeIn(\\\'slow\\\'); else jQuery(\\\'#\\\'+id).show().fadeOut(\\\'slow\\\'); }\\nfunction ajax(u,s,t) {\\n    query = \\\'\\\';\\n    if (typeof s == "string") {\\n        d = jQuery(s).serialize();\\n        if(d){ query = d; }\\n    } else {\\n        pcs = [];\\n        for(i=0; i<s.length; i++) {\\n            q = jQuery("[name="+s[i]+"]").serialize();\\n            if(q){pcs.push(q);}\\n        }\\n        if (pcs.length>0){query = pcs.join("&");}\\n    }\\n    jQuery.ajax({type: "POST", url: u, data: query, success: function(msg) { if(t) { if(t==\\\':eval\\\') eval(msg); else jQuery("#" + t).html(msg); } } }); \\n}\\nString.prototype.reverse = function () { return this.split(\\\'\\\').reverse().join(\\\'\\\');};\\nfunction web2py_ajax_init() {\\n  jQuery(\\\'.hidden\\\').hide();\\n  jQuery(\\\'.error\\\').hide().slideDown(\\\'slow\\\');\\n  jQuery(\\\'.flash\\\').click(function() { jQuery(this).fadeOut(\\\'slow\\\'); return false; });\\n  jQuery(\\\'input[type=submit]\\\').click(function(){var t=jQuery(this);t.hide();t.after(\\\'<input class="submit_disabled" disabled="disabled" type="submit" name="\\\'+t.attr("name")+\\\'_dummy" value="\\\'+t.val()+\\\'">\\\')});\\n  jQuery(\\\'input.integer\\\').keyup(function(){this.value=this.value.reverse().replace(/[^0-9\\\\-]|\\\\-(?=.)/g,\\\'\\\').reverse();});\\n  jQuery(\\\'input.double,input.decimal\\\').keyup(function(){this.value=this.value.reverse().replace(/[^0-9\\\\-\\\\.]|[\\\\-](?=.)|[\\\\.](?=[0-9]*[\\\\.])/g,\\\'\\\').reverse();});\\n  jQuery("input[type=\\\'checkbox\\\'].delete").each(function(){jQuery(this).click(function() { if(this.checked) if(!confirm("\', escape=False)\nresponse.write(T(\'Sure you want to delete this object?\'))\nresponse.write(\'")) this.checked=false; });});\\n  try {jQuery("input.date").focus( function() {Calendar.setup({\\n     inputField:this.id, ifFormat:"\', escape=False)\nresponse.write(T(\'%Y-%m-%d\'))\nresponse.write(\'", showsTime:false\\n  }); }); } catch(e) {};\\n  try { jQuery("input.datetime").focus( function() {Calendar.setup({\\n     inputField:this.id, ifFormat:"\', escape=False)\nresponse.write(T(\'%Y-%m-%d %H:%M:%S\'))\nresponse.write(\'", showsTime: true,timeFormat: "24"\\n  }); }); } catch(e) {};\\n  try { jQuery("input.time").clockpick({\\n      starthour:0, endhour:23, showminutes:true, military:true\\n  }); } catch(e) {};\\n};\\njQuery(document).ready(function(){\\n   jQuery(\\\'.flash\\\').hide();\\n   if(jQuery(\\\'.flash\\\').html()!=\\\'\\\') jQuery(\\\'.flash\\\').slideDown(\\\'slow\\\');\\n   web2py_ajax_init();});\\n\\nfunction web2py_trap_form(action,target) {\\n   jQuery(\\\'#\\\'+target+\\\' form\\\').each(function(i){\\n      var form=jQuery(this);\\n      if(!form.hasClass(\\\'no_trap\\\'))\\n        form.submit(function(obj){\\n         jQuery(\\\'.flash\\\').hide().html(\\\'\\\');\\n         web2py_ajax_page(\\\'post\\\',action,form.serialize(),target);\\n         return false;\\n      });\\n   });\\n}\\n\\nfunction web2py_ajax_page(method,action,data,target) {\\n  jQuery.ajax({\\\'type\\\':method,\\\'url\\\':action,\\\'data\\\':data,\\n    \\\'beforeSend\\\':function(xhr) {\\n      xhr.setRequestHeader(\\\'web2py-component-location\\\',document.location);\\n      xhr.setRequestHeader(\\\'web2py-component-element\\\',target);},\\n    \\\'complete\\\':function(xhr,text){\\n      var html=xhr.responseText;\\n      var content=xhr.getResponseHeader(\\\'web2py-component-content\\\'); \\n      var command=xhr.getResponseHeader(\\\'web2py-component-command\\\');\\n      var flash=xhr.getResponseHeader(\\\'web2py-component-flash\\\');\\n      var t = jQuery(\\\'#\\\'+target);\\n      if(content==\\\'prepend\\\') t.prepend(html); \\n      else if(content==\\\'append\\\') t.append(html);\\n      else if(content!=\\\'hide\\\') t.html(html);  \\n      web2py_trap_form(action,target);\\n      web2py_ajax_init();      \\n      if(command) eval(command);\\n      if(flash) jQuery(\\\'.flash\\\').html(flash).slideDown();\\n      }\\n    });\\n}\\nfunction web2py_component(action,target) {\\n    jQuery(document).ready(function(){ web2py_ajax_page(\\\'get\\\',action,null,target); });\\n}\\n//--></script>\\n\', escape=False)\nresponse.write(\'\\n  <style>\\nul.web2py-menu-vertical { width: 150px; position: relative; top:1em; left:1em;  z-index:30; border:0; margin:0; padding: 0; list-style: none; text-decoration: none;}\\nul.web2py-menu-vertical li { margin:0; padding:0; border:0; width: 150px; background: black; text-align:left;}\\nul.web2py-menu-vertical li a { margin:0; padding: 1px 3px 1px 3px; border:0; width: 144px; color: white; font-size:12px;}\\ndiv.flash { position: fixed; float: right; padding: 10px; top: 10px; right: 30px; opacity: 0.75; margin: 10px 10px 10px 10px; text-align: center; clear: both; color: #fff; font-size: 11pt; text-align: center; vertical-align: middle; cursor: pointer; background: black; border: 2px solid #fff; -moz-border-radius: 5px; -webkit-border-radius: 5px; z-index: 2; }\\ndiv.error { background-color: red; color: white; padding: 3px; }\\n.auth_navbar { text-align:right; z-index:20; position: absolute; top: 2px; right:30px; border:0; padding:0 }\\n  </style>\\n </head>\\n <body>\\n  <!-- start header -->\\n  \', escape=False)\ntry:\n    response.write(auth.navbar(action=URL(\'default\',\'user\')))\nexcept:pass\nresponse.write(\'\\n\\n  <div id="wrapper">\\n   <div id="header">\\n    <div id="menu">\\n     \', escape=False)\nresponse.write(MENU(response.menu,_class=\'web2py-menu\'))\nresponse.write(\'\\n    <script>\\n      jQuery(document).ready(function(){jQuery(\\\'ul.web2py-menu\\\').superfish({delay:400});});\\n    </script>\\n    </div>\\n    <!-- end #menu -->\\n    <div id="search">\\n     <form method="get" action="">\\n      <fieldset>\\n       <input type="text" name="s" id="search-text" size="15" />\\n       <input type="submit" id="search-submit" value="Search" />\\n      </fieldset>\\n     </form>\\n    </div>\\n    <!-- end #search -->\\n   </div>\\n   <!-- end #header -->\\n   <div id="logo">\\n    <h1>\\n     \', escape=False)\nresponse.write(response.title or request.application)\nresponse.write(\'\\n    </h1>\\n    <p>\\n     <em>\\n      template design by\\n      <a href="#">\\n       Expropiada Templates\\n      </a>\\n     </em>\\n    </p>\\n   </div>\\n   <hr />\\n   <!-- end #logo -->\\n   <!-- end #header-wrapper -->\\n   <div id="page">\\n    <div id="content">\\n     <div class="flash">\', escape=False)\nresponse.write(response.flash or \'\')\nresponse.write(\'</div>\\n     \', escape=False)\nresponse.write(" \\n<div class=\'content\'>\\n    <ul>\\n        <li> ", escape=False)\nresponse.write(H3(A(T("Crear nueva entrada"), _class=\'link\', _href=\'createpost\'), _class=\'title\'))\nresponse.write(\' <li>\\n\\t<li> \', escape=False)\nresponse.write(H3(A(T("Modificar o Eliminar Entrada", _class=\'link\'), _class=\'title\'))\nresponse.write(\'</li>\\n    </ul>\\n\', escape=False)\nresponse.write(tableart)\nresponse.write(\'\\n</div>\\n\\n\', escape=False)\nresponse.write(\'\\n    </div>\\n    <!-- end #content -->\\n    <div id="sidebar">\\n     <ul>\\n      <li>\\n       <h2> Twitter Busqueda: perl</h2>\\n       <p>\\n        Mauris vitae nisl nec metus placerat perdiet est. Phasellus dapibus semper urna. Pellentesque ornare, orci in consectetuer hendrerit, volutpat.\\n       </p>\\n      </li>\\n      <li>\\n       <h2>\\n        Twitter Busqueda: python\\n       </h2>\\n       <ul>\\n        <li>\\n         <a href="#">\\n         </a>\\n         <a href="#">\\n          Nec metus sed donec\\n         </a>\\n        </li>\\n        <li>\\n         <a href="#">\\n          Magna lacus bibendum mauris\\n         </a>\\n        </li>\\n        <li>\\n         <a href="#">\\n          Velit semper nisi molestie\\n         </a>\\n        </li>\\n        <li>\\n         <a href="#">\\n          Eget tempor eget nonummy\\n         </a>\\n        </li>\\n        <li>\\n         <a href="#">\\n          Nec metus sed donec\\n         </a>\\n        </li>\\n       </ul>\\n      </li>\\n     </ul>\\n     <ul>\\n     <li>\\n       <h2>\\n        Mi Twitter\\n       </h2>\\n       <p> aca va twitter </p>\\n      </li>\\n     <ul>\\n    </div>\\n    <!-- end #sidebar -->\\n    <div style="clear: both;">\\n     &nbsp;\\n    </div>\\n   </div>\\n   <!-- end #page -->\\n   <div id="footer">\\n    <p> .:B106 d3 j3nnn1:.</p>\\n   </div>\\n   <!-- end #footer -->\\n  </div>\\n </body>\\n</html>\\n\', escape=False)'
p6
sS'snapshot'
p7
(dp8
S'exception'
p9
(dp10
S'__getslice__'
p11
S"<method-wrapper '__getslice__' of exceptions.SyntaxError object>"
p12
sS'text'
p13
S'"response.write(\'</li>\\\\n    </ul>\\\\n\', escape=False)\\n"'
p14
sS'__str__'
p15
S"<method-wrapper '__str__' of exceptions.SyntaxError object>"
p16
sS'__reduce__'
p17
S'<built-in method __reduce__ of exceptions.SyntaxError object>'
p18
sS'__dict__'
p19
S'{}'
p20
sS'__sizeof__'
p21
S'<built-in method __sizeof__ of exceptions.SyntaxError object>'
p22
sS'__init__'
p23
S"<method-wrapper '__init__' of exceptions.SyntaxError object>"
p24
sS'__setattr__'
p25
S"<method-wrapper '__setattr__' of exceptions.SyntaxError object>"
p26
sS'__reduce_ex__'
p27
S'<built-in method __reduce_ex__ of exceptions.SyntaxError object>'
p28
sS'__new__'
p29
S'<built-in method __new__ of type object>'
p30
sS'__format__'
p31
S'<built-in method __format__ of exceptions.SyntaxError object>'
p32
sS'__class__'
p33
S"<type 'exceptions.SyntaxError'>"
p34
sS'filename'
p35
S"'/cygdrive/e/Documents and Settings/jmaldo03/git/...web2py/applications/blog/views/default/admin.html'"
p36
sS'lineno'
p37
S'53'
p38
sS'msg'
p39
S"'invalid syntax'"
p40
sS'__doc__'
p41
S"'Invalid syntax.'"
p42
sS'__getitem__'
p43
S"<method-wrapper '__getitem__' of exceptions.SyntaxError object>"
p44
sS'__setstate__'
p45
S'<built-in method __setstate__ of exceptions.SyntaxError object>'
p46
sS'__getattribute__'
p47
S"<method-wrapper '__getattribute__' of exceptions.SyntaxError object>"
p48
sS'print_file_and_line'
p49
S'None'
p50
sS'args'
p51
S'(\'invalid syntax\', (\'/cygdrive/e/Documents and Settings/jmaldo03/git/...web2py/applications/blog/views/default/admin.html\', 53, 8, "response.write(\'</li>\\\\n    </ul>\\\\n\', escape=False)\\n"))'
p52
sS'__subclasshook__'
p53
S'<built-in method __subclasshook__ of type object>'
p54
sS'offset'
p55
S'8'
sS'__unicode__'
p56
S'<built-in method __unicode__ of exceptions.SyntaxError object>'
p57
sS'__delattr__'
p58
S"<method-wrapper '__delattr__' of exceptions.SyntaxError object>"
p59
sS'__repr__'
p60
S"<method-wrapper '__repr__' of exceptions.SyntaxError object>"
p61
sS'__hash__'
p62
S"<method-wrapper '__hash__' of exceptions.SyntaxError object>"
p63
ssS'evalue'
p64
S'invalid syntax (admin.html, line 53)'
p65
sS'request'
p66
(dp67
S'function'
p68
S"'admin'"
p69
sS'body'
p70
S'<cStringIO.StringO object>'
p71
sS'wsgi'
p72
S"<Storage {'start_response': <function <lambda> a...ING': 'gzip,deflate', 'HTTP_KEEP_ALIVE': '115'}}>"
p73
sS'extension'
p74
S"'html'"
p75
sS'vars'
p76
S'<Storage {}>'
p77
sS'cid'
p78
S'None'
p79
sS'url'
p80
S'<gluon.html.XML object>'
p81
sg51
S'[]'
p82
sS'controller'
p83
S"'default'"
p84
sS'cookies'
p85
S"<SimpleCookie: session_id_admin='127-0-0-1-877c5...'127-0-0-1-abbacfdd-6a37-4a45-8aaf-8734a84b6dd4'>"
p86
sS'application'
p87
S"'blog'"
p88
sS'ajax'
p89
S'False'
p90
sS'client'
p91
S"'127.0.0.1'"
p92
sS'env'
p93
S"<Storage {'http_user_agent': 'Mozilla/5.0 (Windo...nce': False, 'path_info': '/blog/default/admin'}>"
p94
sS'raw_args'
p95
S'None'
p96
sS'get_vars'
p97
S'<Storage {}>'
p98
sS'folder'
p99
S"'/cygdrive/e/Documents and Settings/jmaldo03/git/pyj3nnn1/pyj3nnn1/web2py/applications/blog/'"
p100
sS'now'
p101
S'datetime.datetime(2010, 10, 25, 10, 45, 41, 239750)'
p102
sS'post_vars'
p103
S'<Storage {}>'
p104
ssS'frames'
p105
(lp106
(dp107
S'file'
p108
S'/cygdrive/e/Documents and Settings/jmaldo03/git/pyj3nnn1/pyj3nnn1/web2py/gluon/restricted.py'
p109
sS'dump'
p110
(dp111
S'code'
p112
S'\'response.write(\\\'<!DOCTYPE html PUBLIC "-//W3C//D...->\\\\n  </div>\\\\n </body>\\\\n</html>\\\\n\\\', escape=False)\''
p113
sS'layer'
p114
S"'/cygdrive/e/Documents and Settings/jmaldo03/git/...web2py/applications/blog/views/default/admin.html'"
p115
sS'global compile2'
p116
S'<function compile2>'
p117
sS'ccode'
p118
S'undefined'
p119
ssS'lnum'
p120
I186
sS'lines'
p121
(dp122
I181
S''
sI182
S'    try:'
p123
sI183
S'        if type(code) == types.CodeType:'
p124
sI184
S'            ccode = code'
p125
sI185
S'        else:'
p126
sI186
S'            ccode = compile2(code,layer)'
p127
sI187
S''
sI188
S'        exec ccode in environment'
p128
sI189
S'    except HTTP:'
p129
sI190
S'        raise'
p130
ssS'call'
p131
S'(code=\'response.write(\\\'<!DOCTYPE html PUBLIC "-//W3C//D...->\\\\n  </div>\\\\n </body>\\\\n</html>\\\\n\\\', escape=False)\', environment={\'A\': <class \'gluon.html.A\'>, \'Auth\': <class \'gluon.tools.Auth\'>, \'B\': <class \'gluon.html.B\'>, \'BEAUTIFY\': <class \'gluon.html.BEAUTIFY\'>, \'BODY\': <class \'gluon.html.BODY\'>, \'BR\': <class \'gluon.html.BR\'>, \'CENTER\': <class \'gluon.html.CENTER\'>, \'CLEANUP\': <class \'gluon.validators.CLEANUP\'>, \'CODE\': <class \'gluon.html.CODE\'>, \'CRYPT\': <class \'gluon.validators.CRYPT\'>, ...}, layer=\'/cygdrive/e/Documents and Settings/jmaldo03/git/...web2py/applications/blog/views/default/admin.html\')'
p132
sS'func'
p133
S'restricted'
p134
sa(dp135
g108
S'/cygdrive/e/Documents and Settings/jmaldo03/git/pyj3nnn1/pyj3nnn1/web2py/gluon/restricted.py'
p136
sg110
(dp137
S'builtincompile'
p138
S'<built-in function compile>'
p139
sS'code'
p140
S'\'response.write(\\\'<!DOCTYPE html PUBLIC "-//W3C//D...->\\\\n  </div>\\\\n </body>\\\\n</html>\\\\n\\\', escape=False)\''
p141
sS'code.rstrip'
p142
S'<built-in method rstrip of str object>'
p143
sS').replace'
p144
g119
sS'layer'
p145
S"'/cygdrive/e/Documents and Settings/jmaldo03/git/...web2py/applications/blog/views/default/admin.html'"
p146
ssg120
I173
sg121
(dp147
I168
S''
sI169
S'def compile2(code,layer):'
p148
sI170
S'    """'
p149
sI171
S"    The +'\\n' is necessary else compile fails when code ends in a comment."
p150
sI172
S'    """'
p151
sI173
S"    return compile(code.rstrip().replace('\\r\\n','\\n')+'\\n', layer, 'exec')"
p152
sI174
S''
sI175
S"def restricted(code, environment={}, layer='Unknown'):"
p153
sI176
S'    """'
p154
sI177
S'    runs code in environment and returns the output. if an exception occurs'
p155
ssg131
S'(code=\'response.write(\\\'<!DOCTYPE html PUBLIC "-//W3C//D...->\\\\n  </div>\\\\n </body>\\\\n</html>\\\\n\\\', escape=False)\', layer=\'/cygdrive/e/Documents and Settings/jmaldo03/git/...web2py/applications/blog/views/default/admin.html\')'
p156
sg133
S'compile2'
p157
sasS'pyver'
p158
S'Python 2.6.5: /usr/bin/python'
p159
sS'session'
p160
(dp161
S'_formkey[articulos_create]'
p162
S"'68f19dfb-14f8-4a54-841a-288009cb3447'"
p163
sS'_formkey[register]'
p164
S"'916f3654-72ab-4fe3-8c51-26ed26684973'"
p165
sS'flash'
p166
S'None'
p167
sS'auth'
p168
S"<Storage {'expiration': 3600, 'last_visit': date...y': '', 'email': 'jcmm986@gmail.com', 'id': 1}>}>"
p169
sS'last_orderby'
p170
S'None'
p171
sS'last_query'
p172
S"'db.articulos.id>0'"
p173
sS'_formkey[comentarios_create]'
p174
S"'d790f6ac-3d09-4040-9003-e1b08e3cb564'"
p175
sS'_formkey[articulos_1]'
p176
S"'074680d4-ecb2-487d-9a3c-920a47b19b26'"
p177
sS'_formkey[login]'
p178
S"'cd0d63aa-d852-4aef-8758-6b04cccb3d22'"
p179
ssS'etype'
p180
S"<type 'exceptions.SyntaxError'>"
p181
sS'date'
p182
S'Mon Oct 25 10:45:41 2010'
p183
sS'response'
p184
(dp185
S'status'
p186
S'200'
p187
sg70
S'<cStringIO.StringO object>'
p188
sg85
S"<SimpleCookie: session_id_blog='127-0-0-1-fee2cd34-3e42-44cb-bee6-3936b80cedc4'>"
p189
sS'_vars'
p190
S"{'tableart': [<Row {'articulos': <Row {'update_record': <funct...te_record': <function <lambda> at 0x7f8cf294>}>}>, <Row {'articulos': <Row {'update_record': <funct...te_record': <function <lambda> at 0x7f8cf56c>}>}>, <Row {'articulos': <Row {'update_record': <funct...te_record': <function <lambda> at 0x7f8cf8ec>}>}>, <Row {'articulos': <Row {'update_record': <funct...te_record': <function <lambda> at 0x7f8cf80c>}>}>, <Row {'articulos': <Row {'update_record': <funct...te_record': <function <lambda> at 0x7f8cfc34>}>}>, <Row {'articulos': <Row {'update_record': <funct...te_record': <function <lambda> at 0x7f8cf02c>}>}>, <Row {'articulos': <Row {'update_record': <funct...te_record': <function <lambda> at 0x7f8cf844>}>}>, <Row {'articulos': <Row {'update_record': <funct...te_record': <function <lambda> at 0x7f8cf3ac>}>}>]}"
p191
sS'title'
p192
S"'blog'"
p193
sS'session_file'
p194
S"<open file '/cygdrive/e/Documents and Settings/j...ee2cd34-3e42-44cb-bee6-3936b80cedc4', mode 'rb+'>"
p195
sS'flash'
p196
S"''"
p197
sS'_custom_rollback'
p198
S'None'
p199
sS'session_id'
p200
S"'127-0-0-1-fee2cd34-3e42-44cb-bee6-3936b80cedc4'"
p201
sS'headers'
p202
S"<Storage {'Expires': 'Mon, 25 Oct 2010 15:15:41 ...he, must-revalidate, post-check=0, pre-check=0'}>"
p203
sS'meta'
p204
S"<Storage {'keywords': 'j3nnn1 web2py python', 'd...con web2py... ', 'author': 'Jennifer Maldonado'}>"
p205
sS'session_filename'
p206
S"'/cygdrive/e/Documents and Settings/jmaldo03/git/...ns/127-0-0-1-fee2cd34-3e42-44cb-bee6-3936b80cedc4'"
p207
sS'postprocessing'
p208
S'[]'
p209
sS'menu'
p210
S"[(<lazyT 'Index'>, False, <gluon.html.XML object>, []), (<lazyT 'About'>, False, <gluon.html.XML object>, []), (<lazyT 'Admin'>, False, <gluon.html.XML object>, []), (<lazyT 'Edit'>, False, <gluon.html.XML object>, [(<lazyT 'Controller'>, False, <gluon.html.XML object>), (<lazyT 'View'>, False, <gluon.html.XML object>), (<lazyT 'Layout'>, False, <gluon.html.XML object>), (<lazyT 'Stylesheet'>, False, <gluon.html.XML object>), (<lazyT 'DB Model'>, False, <gluon.html.XML object>), (<lazyT 'Menu Model'>, False, <gluon.html.XML object>), (<lazyT 'Database'>, False, <gluon.html.XML object>)])]"
p211
sS'_view_environment'
p212
S"{'A': <class 'gluon.html.A'>, 'Auth': <class 'gluon.tools.Auth'>, 'B': <class 'gluon.html.B'>, 'BEAUTIFY': <class 'gluon.html.BEAUTIFY'>, 'BODY': <class 'gluon.html.BODY'>, 'BR': <class 'gluon.html.BR'>, 'CENTER': <class 'gluon.html.CENTER'>, 'CLEANUP': <class 'gluon.validators.CLEANUP'>, 'CODE': <class 'gluon.html.CODE'>, 'CRYPT': <class 'gluon.validators.CRYPT'>, ...}"
p213
sS'subtitle'
p214
S'<lazyT "it\'s me j3nnn1">'
p215
sS'session_id_name'
p216
S"'session_id_blog'"
p217
sS'_custom_commit'
p218
S'None'
p219
sS'_caller'
p220
S'<function <lambda>>'
p221
sS'files'
p222
S'[]'
p223
sS'view'
p224
S"'default/admin.html'"
p225
ssS'locals'
p226
(dp227
g3
S"'/cygdrive/e/Documents and Settings/jmaldo03/git/...web2py/applications/blog/views/default/admin.html'"
p228
sg5
S'\'response.write(\\\'<!DOCTYPE html PUBLIC "-//W3C//D...->\\\\n  </div>\\\\n </body>\\\\n</html>\\\\n\\\', escape=False)\''
p229
sssS'traceback'
p230
S'Traceback (most recent call last):\n  File "/cygdrive/e/Documents and Settings/jmaldo03/git/pyj3nnn1/pyj3nnn1/web2py/gluon/restricted.py", line 186, in restricted\n    ccode = compile2(code,layer)\n  File "/cygdrive/e/Documents and Settings/jmaldo03/git/pyj3nnn1/pyj3nnn1/web2py/gluon/restricted.py", line 173, in compile2\n    return compile(code.rstrip().replace(\'\\r\\n\',\'\\n\')+\'\\n\', layer, \'exec\')\n  File "/cygdrive/e/Documents and Settings/jmaldo03/git/pyj3nnn1/pyj3nnn1/web2py/applications/blog/views/default/admin.html", line 53\n    response.write(\'</li>\\n    </ul>\\n\', escape=False)\n           ^\nSyntaxError: invalid syntax\n'
p231
s.