(dp1
S'output'
p2
S''
sS'layer'
p3
S'/home/j3nnn1/git/pyj3nnn1/web2py/applications/blog/views/default/index.html'
p4
sS'code'
p5
S'response.write(\'<!DOCTYPE html PUBLIC "-//W3C//DTD XHTML 1.0 Transitional//EN" "http://www.w3.org/TR/xhtml1/DTD/xhtml1-transitional.dtd">\\n<html xmlns="http://www.w3.org/1999/xhtml" xml:lang="\', escape=False)\nresponse.write(T.accepted_language or \'en\')\nresponse.write(\'">\\n  <head>\\n    <title>\', escape=False)\nresponse.write(response.title or request.application)\nresponse.write(\'</title>\\n    <link rel="shortcut icon"\\n      href="\', escape=False)\nresponse.write(URL(request.application,\'static\',\'favicon.ico\'))\nresponse.write(\'" \\n      type="image/vnd.microsoft.icon">\\n    <meta http-equiv="Content-Type" content="text/html; charset=UTF-8" />\\n    \', escape=False)\n#------  require CSS and JS files for this page (read info in base.css) ------\nresponse.write(\'\\n    \', escape=False)\nresponse.files.append(URL(request.application,\'static\',\'base.css\'))\nresponse.write(\'\\n    \', escape=False)\nresponse.files.append(URL(request.application,\'static\',\'superfish.js\'))\nresponse.write(\'\\n    \', escape=False)\nresponse.files.append(URL(request.application,\'static\',\'/css/maquiclub.css\'))\nresponse.write(\'\\n    \', escape=False)\n#------ include web2py specific js code (jquery, calendar, form stuff) ------\nresponse.write(\'\\n    \', escape=False)\nresponse.files.insert(0,URL(r=request,c=\'static\',f=\'jquery.js\'))\nresponse.files.insert(1,URL(r=request,c=\'static\',f=\'calendar.css\'))\nresponse.files.insert(2,URL(r=request,c=\'static\',f=\'calendar.js\'))\nfor _item in response.meta or []:\n    response.write(\'\\n     <meta name="\', escape=False)\n    response.write(_item)\n    response.write(\'" content="\', escape=False)\n    response.write(response.meta[_item])\n    response.write(\'" />\', escape=False)\n    pass\nfor _k,_file in enumerate(response.files or []):\n    if _file in response.files[:_k]:\n        continue\n    elif _file.lower().endswith(\'.css\'):\n        response.write(\'\\n     <link href="\', escape=False)\n        response.write(_file)\n        response.write(\'" rel="stylesheet" type="text/css" />\', escape=False)\n    elif _file.lower().endswith(\'.js\'):\n        response.write(\'\\n     <script src="\', escape=False)\n        response.write(_file)\n        response.write(\'" type="text/javascript"></script>\', escape=False)\n        pass\n    pass\nresponse.write(\'\\n<script type="text/javascript"><!--\\nfunction popup(url) {\\n  newwindow=window.open(url,\\\'name\\\',\\\'height=400,width=600\\\');\\n  if (window.focus) newwindow.focus();\\n  return false;\\n}\\nfunction collapse(id) { jQuery(\\\'#\\\'+id).slideToggle(); }\\nfunction fade(id,value) { if(value>0) jQuery(\\\'#\\\'+id).hide().fadeIn(\\\'slow\\\'); else jQuery(\\\'#\\\'+id).show().fadeOut(\\\'slow\\\'); }\\nfunction ajax(u,s,t) {\\n    query = \\\'\\\';\\n    if (typeof s == "string") {\\n        d = jQuery(s).serialize();\\n        if(d){ query = d; }\\n    } else {\\n        pcs = [];\\n        for(i=0; i<s.length; i++) {\\n            q = jQuery("[name="+s[i]+"]").serialize();\\n            if(q){pcs.push(q);}\\n        }\\n        if (pcs.length>0){query = pcs.join("&");}\\n    }\\n    jQuery.ajax({type: "POST", url: u, data: query, success: function(msg) { if(t) { if(t==\\\':eval\\\') eval(msg); else jQuery("#" + t).html(msg); } } }); \\n}\\nString.prototype.reverse = function () { return this.split(\\\'\\\').reverse().join(\\\'\\\');};\\nfunction web2py_ajax_init() {\\n  jQuery(\\\'.hidden\\\').hide();\\n  jQuery(\\\'.error\\\').hide().slideDown(\\\'slow\\\');\\n  jQuery(\\\'.flash\\\').click(function() { jQuery(this).fadeOut(\\\'slow\\\'); return false; });\\n  jQuery(\\\'input[type=submit]\\\').click(function(){var t=jQuery(this);t.hide();t.after(\\\'<input class="submit_disabled" disabled="disabled" type="submit" name="\\\'+t.attr("name")+\\\'_dummy" value="\\\'+t.val()+\\\'">\\\')});\\n  jQuery(\\\'input.integer\\\').keyup(function(){this.value=this.value.reverse().replace(/[^0-9\\\\-]|\\\\-(?=.)/g,\\\'\\\').reverse();});\\n  jQuery(\\\'input.double,input.decimal\\\').keyup(function(){this.value=this.value.reverse().replace(/[^0-9\\\\-\\\\.]|[\\\\-](?=.)|[\\\\.](?=[0-9]*[\\\\.])/g,\\\'\\\').reverse();});\\n  jQuery("input[type=\\\'checkbox\\\'].delete").each(function(){jQuery(this).click(function() { if(this.checked) if(!confirm("\', escape=False)\nresponse.write(T(\'Sure you want to delete this object?\'))\nresponse.write(\'")) this.checked=false; });});\\n  try {jQuery("input.date").focus( function() {Calendar.setup({\\n     inputField:this.id, ifFormat:"\', escape=False)\nresponse.write(T(\'%Y-%m-%d\'))\nresponse.write(\'", showsTime:false\\n  }); }); } catch(e) {};\\n  try { jQuery("input.datetime").focus( function() {Calendar.setup({\\n     inputField:this.id, ifFormat:"\', escape=False)\nresponse.write(T(\'%Y-%m-%d %H:%M:%S\'))\nresponse.write(\'", showsTime: true,timeFormat: "24"\\n  }); }); } catch(e) {};\\n  try { jQuery("input.time").clockpick({\\n      starthour:0, endhour:23, showminutes:true, military:true\\n  }); } catch(e) {};\\n};\\njQuery(document).ready(function(){\\n   jQuery(\\\'.flash\\\').hide();\\n   if(jQuery(\\\'.flash\\\').html()!=\\\'\\\') jQuery(\\\'.flash\\\').slideDown(\\\'slow\\\');\\n   web2py_ajax_init();});\\n\\nfunction web2py_trap_form(action,target) {\\n   jQuery(\\\'#\\\'+target+\\\' form\\\').each(function(i){\\n      var form=jQuery(this);\\n      if(!form.hasClass(\\\'no_trap\\\'))\\n        form.submit(function(obj){\\n         jQuery(\\\'.flash\\\').hide().html(\\\'\\\');\\n         web2py_ajax_page(\\\'post\\\',action,form.serialize(),target);\\n         return false;\\n      });\\n   });\\n}\\n\\nfunction web2py_ajax_page(method,action,data,target) {\\n  jQuery.ajax({\\\'type\\\':method,\\\'url\\\':action,\\\'data\\\':data,\\n    \\\'beforeSend\\\':function(xhr) {\\n      xhr.setRequestHeader(\\\'web2py-component-location\\\',document.location);\\n      xhr.setRequestHeader(\\\'web2py-component-element\\\',target);},\\n    \\\'complete\\\':function(xhr,text){\\n      var html=xhr.responseText;\\n      var content=xhr.getResponseHeader(\\\'web2py-component-content\\\'); \\n      var command=xhr.getResponseHeader(\\\'web2py-component-command\\\');\\n      var flash=xhr.getResponseHeader(\\\'web2py-component-flash\\\');\\n      var t = jQuery(\\\'#\\\'+target);\\n      if(content==\\\'prepend\\\') t.prepend(html); \\n      else if(content==\\\'append\\\') t.append(html);\\n      else if(content!=\\\'hide\\\') t.html(html);  \\n      web2py_trap_form(action,target);\\n      web2py_ajax_init();      \\n      if(command) eval(command);\\n      if(flash) jQuery(\\\'.flash\\\').html(flash).slideDown();\\n      }\\n    });\\n}\\nfunction web2py_component(action,target) {\\n    jQuery(document).ready(function(){ web2py_ajax_page(\\\'get\\\',action,null,target); });\\n}\\n//--></script>\\n\', escape=False)\nresponse.write(\'\\n  </head>\\n  <body>\\n    <div class="flash">\', escape=False)\nresponse.write(response.flash or \'\')\nresponse.write(\'</div>\\n    <div class="ez-mr wrapper" id="layout">\\n      \', escape=False)\n#------ Layout 3 from http://www.ez-css.org/layouts ------\nresponse.write(\'\\n      <div class="ez-wr">\\n    <div class="ez-box" id="header">\\n      \', escape=False)\ntry:\n    response.write(auth.navbar(action=URL(request.application,\'default\',\'user\')))\nexcept:pass\nresponse.write(\'\\n          <h1>\\n            <a href="">\', escape=False)\nresponse.write(response.title or \'response.title\')\nresponse.write(\'</a>\\n          </h1>            \\n          <h2>\\n        \', escape=False)\nresponse.write(response.subtitle or \'response.subtitle\')\nresponse.write(\'\\n      </h2>\\n    </div>\\n    <div class="ez-box" id="statusbar">\\n      \', escape=False)\n#------ superfish menu ------\nresponse.write(\'\\n      \', escape=False)\nresponse.write(MENU(response.menu,_class=\'sf-menu\'))\nresponse.write(\'\\n          <script>\\n        jQuery(document).ready(function(){\\n              jQuery(\\\'ul.sf-menu\\\').superfish({delay:400});});\\n      </script>\\n    </div>\\n    <div class="ez-wr">\\n      <div class="ez-fl ez-negmx">\\n            <div class="ez-box" id="left_sidebar">\', escape=False)\n#------ unused space\nresponse.write(\'</div>\\n      </div>\\n      <div class="ez-fl ez-negmr">\\n            <div class="ez-box" id="content">\', escape=False)\nresponse.write(\'\\n<h1>\', escape=False)\nresponse.write(T("it\'s me J3nnn1"))\nresponse.write(\'</h1>\\n<hr />\\n\\n\', escape=False)\nfor post in post:\n    response.write("\\n\\t<div>\\n\\t\\t<div class=\'titulo\'>\\n\\t\\t\\t<h3> ", escape=False)\n    response.write(post.titulo)\n    response.write(" </h3>\\n\\t\\t</div>\\n\\t\\t<div class=\'subtitulo\'>\\n\\t\\t\\t", escape=False)\n    response.write(T("Escrito por: "))\n    response.write(\' \', escape=False)\n    response.write(post.id_usuario)\n    response.write(\' \', escape=False)\n    response.write(T("el: "))\n    response.write(\' \', escape=False)\n    response.write(post.fecha)\n    response.write(\'\\n\\t\\t</div>\\n\\t</div>\\n\\t<div> \', escape=False)\n    response.write(post.articulo)\n    response.write(\' </div>\\n\', escape=False)\n    pass\nresponse.write(\'\\n\', escape=False)\nresponse.write(\'</div>\\n      </div>\\n      <div class="ez-last ez-oh">\\n            <div class="ez-box" id="right_sidebar">\', escape=False)\n#------ unused space\nresponse.write(\'</div>\\n      </div>\\n    </div>\\n      </div>\\n    </div>\\n  </body>\\n</html>\\n\', escape=False)'
p6
sS'snapshot'
p7
(dp8
S'exception'
p9
(dp10
S'__hash__'
p11
S"<method-wrapper '__hash__' of exceptions.KeyError object>"
p12
sS'__setattr__'
p13
S"<method-wrapper '__setattr__' of exceptions.KeyError object>"
p14
sS'__reduce_ex__'
p15
S'<built-in method __reduce_ex__ of exceptions.KeyError object>'
p16
sS'__getslice__'
p17
S"<method-wrapper '__getslice__' of exceptions.KeyError object>"
p18
sS'__getitem__'
p19
S"<method-wrapper '__getitem__' of exceptions.KeyError object>"
p20
sS'__setstate__'
p21
S'<built-in method __setstate__ of exceptions.KeyError object>'
p22
sS'__reduce__'
p23
S'<built-in method __reduce__ of exceptions.KeyError object>'
p24
sS'__str__'
p25
S"<method-wrapper '__str__' of exceptions.KeyError object>"
p26
sS'__format__'
p27
S'<built-in method __format__ of exceptions.KeyError object>'
p28
sS'__getattribute__'
p29
S"<method-wrapper '__getattribute__' of exceptions.KeyError object>"
p30
sS'__class__'
p31
S"<type 'exceptions.KeyError'>"
p32
sS'__unicode__'
p33
S'<built-in method __unicode__ of exceptions.KeyError object>'
p34
sS'__delattr__'
p35
S"<method-wrapper '__delattr__' of exceptions.KeyError object>"
p36
sS'__subclasshook__'
p37
S'<built-in method __subclasshook__ of type object>'
p38
sS'__repr__'
p39
S"<method-wrapper '__repr__' of exceptions.KeyError object>"
p40
sS'args'
p41
S"('titulo',)"
p42
sS'__dict__'
p43
S'{}'
p44
sS'__sizeof__'
p45
S'<built-in method __sizeof__ of exceptions.KeyError object>'
p46
sS'__doc__'
p47
S"'Mapping key not found.'"
p48
sS'__init__'
p49
S"<method-wrapper '__init__' of exceptions.KeyError object>"
p50
sS'__new__'
p51
S'<built-in method __new__ of type object>'
p52
ssS'evalue'
p53
S"'titulo'"
p54
sS'request'
p55
(dp56
S'function'
p57
S"'index'"
p58
sS'body'
p59
S'<cStringIO.StringO object>'
p60
sS'wsgi'
p61
S"<Storage {'start_response': <function <lambda> a...>, 'HTTP_ACCEPT_ENCODING': 'gzip,deflate,sdch'}}>"
p62
sS'extension'
p63
S"'html'"
p64
sS'vars'
p65
S'<Storage {}>'
p66
sS'cid'
p67
S'None'
p68
sS'url'
p69
S'<gluon.html.XML object>'
p70
sg41
S'[]'
p71
sS'controller'
p72
S"'default'"
p73
sS'cookies'
p74
S"<SimpleCookie: session_id_admin='127-0-0-1-30657...'127-0-0-1-f66a923b-35d4-4221-bb69-65adf56edca3'>"
p75
sS'application'
p76
S"'blog'"
p77
sS'ajax'
p78
S'False'
p79
sS'client'
p80
S"'127.0.0.1'"
p81
sS'env'
p82
S"<Storage {'http_user_agent': 'Mozilla/5.0 (X11; ...ch', 'query_string': '', 'wsgi_run_once': False}>"
p83
sS'raw_args'
p84
S'None'
p85
sS'get_vars'
p86
S'<Storage {}>'
p87
sS'folder'
p88
S"'/home/j3nnn1/git/pyj3nnn1/web2py/applications/blog/'"
p89
sS'now'
p90
S'datetime.datetime(2010, 10, 24, 15, 21, 45, 204081)'
p91
sS'post_vars'
p92
S'<Storage {}>'
p93
ssS'frames'
p94
(lp95
(dp96
S'file'
p97
S'/home/j3nnn1/git/pyj3nnn1/web2py/gluon/restricted.py'
p98
sS'dump'
p99
(dp100
S'environment'
p101
S"{'A': <class 'gluon.html.A'>, 'Auth': <class 'gluon.tools.Auth'>, 'B': <class 'gluon.html.B'>, 'BEAUTIFY': <class 'gluon.html.BEAUTIFY'>, 'BODY': <class 'gluon.html.BODY'>, 'BR': <class 'gluon.html.BR'>, 'CENTER': <class 'gluon.html.CENTER'>, 'CLEANUP': <class 'gluon.validators.CLEANUP'>, 'CODE': <class 'gluon.html.CODE'>, 'CRYPT': <class 'gluon.validators.CRYPT'>, ...}"
p102
sS'ccode'
p103
S'<code object <module> at 0x96a6920, file "/home/...lications/blog/views/default/index.html", line 1>'
p104
ssS'lnum'
p105
I188
sS'lines'
p106
(dp107
I192
S'        # XXX Show exception in Wing IDE if running in debugger'
p108
sI183
S'        if type(code) == types.CodeType:'
p109
sI184
S'            ccode = code'
p110
sI185
S'        else:'
p111
sI186
S'            ccode = compile2(code,layer)'
p112
sI187
S''
sI188
S'        exec ccode in environment'
p113
sI189
S'    except HTTP:'
p114
sI190
S'        raise'
p115
sI191
S'    except Exception:'
p116
ssS'call'
p117
S'(code=\'response.write(\\\'<!DOCTYPE html PUBLIC "-//W3C//D...n    </div>\\\\n  </body>\\\\n</html>\\\\n\\\', escape=False)\', environment={\'A\': <class \'gluon.html.A\'>, \'Auth\': <class \'gluon.tools.Auth\'>, \'B\': <class \'gluon.html.B\'>, \'BEAUTIFY\': <class \'gluon.html.BEAUTIFY\'>, \'BODY\': <class \'gluon.html.BODY\'>, \'BR\': <class \'gluon.html.BR\'>, \'CENTER\': <class \'gluon.html.CENTER\'>, \'CLEANUP\': <class \'gluon.validators.CLEANUP\'>, \'CODE\': <class \'gluon.html.CODE\'>, \'CRYPT\': <class \'gluon.validators.CRYPT\'>, ...}, layer=\'/home/j3nnn1/git/pyj3nnn1/web2py/applications/blog/views/default/index.html\')'
p118
sS'func'
p119
S'restricted'
p120
sa(dp121
g97
S'/home/j3nnn1/git/pyj3nnn1/web2py/applications/blog/views/default/index.html'
p122
sg99
(dp123
sg105
I72
sg106
(dp124
I64
S'response.write(\'\\n          <script>\\n        jQuery(document).ready(function(){\\n              jQuery(\\\'ul.sf-menu\\\').superfish({delay:400});});\\n      </script>\\n    </div>\\n    <div class="ez-wr">\\n      <div class="ez-fl ez-negmx">\\n            <div class="ez-box" id="left_sidebar">\', escape=False)'
p125
sI65
S'#------ unused space'
p126
sI66
S'response.write(\'</div>\\n      </div>\\n      <div class="ez-fl ez-negmr">\\n            <div class="ez-box" id="content">\', escape=False)'
p127
sI67
S"response.write('\\n<h1>', escape=False)"
p128
sI68
S'response.write(T("it\'s me J3nnn1"))'
p129
sI69
S"response.write('</h1>\\n<hr />\\n\\n', escape=False)"
p130
sI70
S'for post in post:'
p131
sI71
S'    response.write("\\n\\t<div>\\n\\t\\t<div class=\'titulo\'>\\n\\t\\t\\t<h3> ", escape=False)'
p132
sI72
S'    response.write(post.titulo)'
p133
sI73
S'    response.write(" </h3>\\n\\t\\t</div>\\n\\t\\t<div class=\'subtitulo\'>\\n\\t\\t\\t", escape=False)'
p134
sI74
S'    response.write(T("Escrito por: "))'
p135
sI75
S"    response.write(' ', escape=False)"
p136
sI76
S'    response.write(post.id_usuario)'
p137
sI77
S"    response.write(' ', escape=False)"
p138
sI78
S'    response.write(T("el: "))'
p139
sI79
S"    response.write(' ', escape=False)"
p140
sI80
S'    response.write(post.fecha)'
p141
sI81
S"    response.write('\\n\\t\\t</div>\\n\\t</div>\\n\\t<div> ', escape=False)"
p142
sI82
S'    response.write(post.articulo)'
p143
sI63
S"response.write(MENU(response.menu,_class='sf-menu'))"
p144
ssg117
S'()'
p145
sg119
S'<module>'
p146
sa(dp147
g97
S'/home/j3nnn1/git/pyj3nnn1/web2py/gluon/sql.py'
p148
sg99
(dp149
S'self'
p150
S"<Row {'articulos': <Row {'update_record': <funct...ete_record': <function <lambda> at 0x98cef44>}>}>"
p151
sS'dict.__getitem__'
p152
S"<method '__getitem__' of 'dict' objects>"
p153
sS'key'
p154
S"'titulo'"
p155
sS'builtindict'
p156
S"<type 'dict'>"
p157
ssg105
I731
sg106
(dp158
I726
S''
sI727
S'    def __setitem__(self, key, value):'
p159
sI728
S'        dict.__setitem__(self, str(key), value)'
p160
sI729
S''
sI730
S'    def __getattr__(self, key):'
p161
sI731
S'        return dict.__getitem__(self,key)'
p162
sI732
S''
sI733
S'    def __setattr__(self, key, value):'
p163
sI734
S'        dict.__setitem__(self,key,value)'
p164
sI735
S''
ssg117
S"(self=<Row {'articulos': <Row {'update_record': <funct...ete_record': <function <lambda> at 0x98cef44>}>}>, key='titulo')"
p165
sg119
S'__getattr__'
p166
sasS'pyver'
p167
S'Python 2.6.6: /usr/bin/python'
p168
sS'session'
p169
(dp170
S'_formkey[articulos_create]'
p171
S"'0d82bc72-f674-45c1-8ba5-25f7fc51e6d9'"
p172
sS'auth'
p173
S'None'
p174
sS'last_orderby'
p175
S'None'
p176
sS'last_query'
p177
S"'db.articulos.id>0'"
p178
sS'_formkey[comentarios_create]'
p179
S"'76d6c20a-dac7-40ed-a905-102d82b363d6'"
p180
sS'_formkey[usuarios_create]'
p181
S"'1d1883ea-e00c-4bf8-8a71-efed38a78c06'"
p182
sS'_formkey[default]'
p183
S"'a1de23bf-1680-4a4f-b9de-957af6cc5cdf'"
p184
sS'_formkey[auth_user_create]'
p185
S"'8b18cc00-afac-4196-b603-cbe190e85c44'"
p186
ssS'etype'
p187
S"<type 'exceptions.KeyError'>"
p188
sS'date'
p189
S'Sun Oct 24 15:21:49 2010'
p190
sS'response'
p191
(dp192
S'status'
p193
S'200'
p194
sg59
S'<cStringIO.StringO object>'
p195
sg74
S"<SimpleCookie: session_id_blog='127-0-0-1-c9e49980-0272-480c-b712-192f1f1b4547'>"
p196
sS'_vars'
p197
S"{'post': <gluon.sql.Rows object>}"
p198
sS'title'
p199
S"'blog'"
p200
sS'session_file'
p201
S"<open file '/home/j3nnn1/git/pyj3nnn1/web2py/app...9e49980-0272-480c-b712-192f1f1b4547', mode 'rb+'>"
p202
sS'flash'
p203
S"''"
p204
sS'_custom_rollback'
p205
S'None'
p206
sS'session_id'
p207
S"'127-0-0-1-c9e49980-0272-480c-b712-192f1f1b4547'"
p208
sS'headers'
p209
S"<Storage {'Expires': 'dom, 24 oct 2010 19:51:45 ...he, must-revalidate, post-check=0, pre-check=0'}>"
p210
sS'meta'
p211
S"<Storage {'keywords': 'bla bla bla', 'description': 'describe your app', 'author': 'you'}>"
p212
sS'session_filename'
p213
S"'/home/j3nnn1/git/pyj3nnn1/web2py/applications/bl...ns/127-0-0-1-c9e49980-0272-480c-b712-192f1f1b4547'"
p214
sS'postprocessing'
p215
S'[]'
p216
sS'menu'
p217
S"[(<lazyT 'Index'>, False, <gluon.html.XML object>, []), (<lazyT 'Edit'>, False, <gluon.html.XML object>, [(<lazyT 'Controller'>, False, <gluon.html.XML object>), (<lazyT 'View'>, False, <gluon.html.XML object>), (<lazyT 'Layout'>, False, <gluon.html.XML object>), (<lazyT 'Stylesheet'>, False, <gluon.html.XML object>), (<lazyT 'DB Model'>, False, <gluon.html.XML object>), (<lazyT 'Menu Model'>, False, <gluon.html.XML object>), (<lazyT 'Database'>, False, <gluon.html.XML object>)])]"
p218
sS'_view_environment'
p219
S"{'A': <class 'gluon.html.A'>, 'Auth': <class 'gluon.tools.Auth'>, 'B': <class 'gluon.html.B'>, 'BEAUTIFY': <class 'gluon.html.BEAUTIFY'>, 'BODY': <class 'gluon.html.BODY'>, 'BR': <class 'gluon.html.BR'>, 'CENTER': <class 'gluon.html.CENTER'>, 'CLEANUP': <class 'gluon.validators.CLEANUP'>, 'CODE': <class 'gluon.html.CODE'>, 'CRYPT': <class 'gluon.validators.CRYPT'>, ...}"
p220
sS'subtitle'
p221
S"<lazyT 'customize me!'>"
p222
sS'session_id_name'
p223
S"'session_id_blog'"
p224
sS'_custom_commit'
p225
S'None'
p226
sS'_caller'
p227
S'<function <lambda>>'
p228
sS'files'
p229
S'[<gluon.html.XML object>, <gluon.html.XML object>, <gluon.html.XML object>, <gluon.html.XML object>, <gluon.html.XML object>, <gluon.html.XML object>]'
p230
sS'view'
p231
S"'default/index.html'"
p232
ssS'locals'
p233
(dp234
S'self'
p235
S"<Row {'articulos': <Row {'update_record': <funct...ete_record': <function <lambda> at 0x98cef44>}>}>"
p236
sS'key'
p237
S"'titulo'"
p238
sssS'traceback'
p239
S'Traceback (most recent call last):\n  File "/home/j3nnn1/git/pyj3nnn1/web2py/gluon/restricted.py", line 188, in restricted\n    exec ccode in environment\n  File "/home/j3nnn1/git/pyj3nnn1/web2py/applications/blog/views/default/index.html", line 72, in <module>\n  File "/home/j3nnn1/git/pyj3nnn1/web2py/gluon/sql.py", line 731, in __getattr__\n    return dict.__getitem__(self,key)\nKeyError: \'titulo\'\n'
p240
s.