(dp1
S'output'
p2
S''
sS'layer'
p3
S'/cygdrive/e/Documents and Settings/jmaldo03/git/pyj3nnn1/pyj3nnn1/web2py/applications/blog/controllers/default.py'
p4
sS'code'
p5
S'# -*- coding: utf-8 -*- \n\n#########################################################################\n## This is a samples controller\n## - index is the default action of any application\n## - user is required for authentication and authorization\n## - download is for downloading files uploaded in the db (does streaming)\n## - call exposes all registered services (none by default)\n#########################################################################  \n\ndef index():\n    """\n    Esta vista va a obtener 3 post\n    """\n    # filter to join.\n    filtro = (db.articulos.id_usuario==db.usuarios.id)\n    perpage = 3                                  # Numero de articulos por pagina\n    totalposts = db(db.articulos.id > 0).count() # contamos cuantos posts hay en la bd\n    totalpages = totalposts / perpage            # division para sacar el numero de paginas\n                  \n    page = int(request.vars.page) if request.vars.page else 1\n    limit = int(page - 1) * perpage\n                         \n    if totalposts > perpage and totalpages == 1 and totalpages * perpage != totalposts:\n        totalpages = 2\n                                                        \n    post = db(filtro).select(db.articulos.ALL, db.usuarios.usuario,limitby=(limit,page*perpage),orderby=~db.articulos.fecha)\n\n    return dict(post=post,totalpages=totalpages,postpage=page)\n\ndef about():\n    """ Informaci\xc3\xb3n sobre mi persona"""\n    return dict()\n\ndef viewpost():\n    if request.args(0):\n        filtro      = ((db.articulos.id==request.args(0)) & (db.articulos.id_usuario==db.usuarios.id))\n        post        = db(filtro).select(db.articulos.ALL, db.usuarios.usuario).first()\n\n        if post:\n            form        = SQLFORM(db.comentarios)\n            form.vars.id_articulo = post.articulos.id\n            filtro          = (db.comentarios.id_articulo==post.articulos.id)\n            comments        = (db(filtro).select(db.comentarios.ALL, orderby=~db.comentarios.fecha)).records \n        else:\n            redirect(URL(\'index\'))\n\n        if form.accepts(request.vars, session):\n            response.flash =\'Tu comentario ha sido publicado\'\n    else:\n        redirect(URL(\'index\'))\n\n    return dict(post=post, form=form, comments=comments)\n\ndef user():\n    """\n    exposes:\n    http://..../[app]/default/user/login \n    http://..../[app]/default/user/logout\n    http://..../[app]/default/user/register\n    http://..../[app]/default/user/profile\n    http://..../[app]/default/user/retrieve_password\n    http://..../[app]/default/user/change_password\n    use @auth.requires_login()\n        @auth.requires_membership(\'group name\')\n        @auth.requires_permission(\'read\',\'table name\',record_id)\n    to decorate functions that need access control\n    """\n    return dict(form=auth())\n\n\ndef admin():\n\n    return dict()\n\ndef modifypost():\n\n    if request.args(0):  #modificando un post\n\n\tfiltro = ((db.articulos.id==request.args(0)) & (db.articulos.id_usuario==db.usuarios.id))\n        post   = db(filtro).select(db.articulos.ALL, db.usuarios.usuario)\n\n\tif post:\n\t    form = SQLFORM(post)\n\telse:\n\t    response.flash =\'No existe el articulo\'\n\n\tif form.accepts(request.vars, session):\n            response.flash =\'Tu comentario ha sido publicado\'\n\n    else:\n\t response.flash =\'No existe el articulo\'\n    \n    return dict(form=form)\n\ndef download():\n    """\n    allows downloading of uploaded files\n    http://..../[app]/default/download/[filename]\n    """\n    return response.download(request,db)\n\n\ndef call():\n    """\n    exposes services. for example:\n    http://..../[app]/default/call/jsonrpc\n    decorate with @services.jsonrpc the functions to expose\n    supports xml, json, xmlrpc, jsonrpc, amfrpc, rss, csv\n    """\n    session.forget()\n    return service()\n\nresponse._vars=response._caller(modifypost)\n'
p6
sS'snapshot'
p7
(dp8
sS'traceback'
p9
S'Traceback (most recent call last):\n  File "/cygdrive/e/Documents and Settings/jmaldo03/git/pyj3nnn1/pyj3nnn1/web2py/gluon/restricted.py", line 188, in restricted\n    exec ccode in environment\n  File "/cygdrive/e/Documents and Settings/jmaldo03/git/pyj3nnn1/pyj3nnn1/web2py/applications/blog/controllers/default.py", line 114, in <module>\n  File "/cygdrive/e/Documents and Settings/jmaldo03/git/pyj3nnn1/pyj3nnn1/web2py/gluon/globals.py", line 96, in <lambda>\n    self._caller = lambda f: f()\n  File "/cygdrive/e/Documents and Settings/jmaldo03/git/pyj3nnn1/pyj3nnn1/web2py/applications/blog/controllers/default.py", line 84, in modifypost\n    form = SQLFORM(post)\n  File "/cygdrive/e/Documents and Settings/jmaldo03/git/pyj3nnn1/pyj3nnn1/web2py/gluon/sqlhtml.py", line 648, in __init__\n    fields = [f.name for f in table if (ignore_rw or f.writable or f.readable) and not f.compute]\n  File "/cygdrive/e/Documents and Settings/jmaldo03/git/pyj3nnn1/pyj3nnn1/web2py/gluon/sql.py", line 731, in __getattr__\n    return dict.__getitem__(self,key)\nKeyError: \'writable\'\n'
p10
s.