(dp1
S'output'
p2
S'missing "pass" in view'
p3
sS'layer'
p4
S'ParserContainer'
p5
sS'code'
p6
S'response.write(\'<!DOCTYPE html PUBLIC "-//W3C//DTD XHTML 1.0 Strict//EN" "http://www.w3.org/TR/xhtml1/DTD/xhtml1-strict.dtd">\\n<!--\\nDesign by Free CSS Templates\\nhttp://www.freecsstemplates.org\\nReleased for free under a Creative Commons Attribution 2.5 License\\n\\nName       : chasmogamous\\nDescription: A two-column, fixed-width template suitable for business sites and blogs.\\nVersion    : 1.0\\nReleased   : 20080116\\n\\n-->\\n<html xmlns="http://www.w3.org/1999/xhtml">\\n <head>\\n  <title>\\n   \', escape=False)\nresponse.write(response.title or request.application)\nresponse.write(\'\\n  </title>\\n  \', escape=False)\nresponse.files.append(URL(request.application,\'static\',\'plugin_layouts/layouts/Chasmogamous/style.css\'))\nresponse.write(\'\\n\', escape=False)\nresponse.files.append(URL(\'static\',\'superfish.js\'))\nresponse.write(\'\\n  \', escape=False)\nresponse.files.insert(0,URL(r=request,c=\'static\',f=\'jquery.js\'))\nresponse.files.insert(1,URL(r=request,c=\'static\',f=\'calendar.css\'))\nresponse.files.insert(2,URL(r=request,c=\'static\',f=\'calendar.js\'))\nfor _item in response.meta or []:\n    response.write(\'\\n     <meta name="\', escape=False)\n    response.write(_item)\n    response.write(\'" content="\', escape=False)\n    response.write(response.meta[_item])\n    response.write(\'" />\', escape=False)\n    pass\nfor _k,_file in enumerate(response.files or []):\n    if _file in response.files[:_k]:\n        continue\n    elif _file.lower().endswith(\'.css\'):\n        response.write(\'\\n     <link href="\', escape=False)\n        response.write(_file)\n        response.write(\'" rel="stylesheet" type="text/css" />\', escape=False)\n    elif _file.lower().endswith(\'.js\'):\n        response.write(\'\\n     <script src="\', escape=False)\n        response.write(_file)\n        response.write(\'" type="text/javascript"></script>\', escape=False)\n        pass\n    pass\nresponse.write(\'\\n<script type="text/javascript"><!--\\nfunction popup(url) {\\n  newwindow=window.open(url,\\\'name\\\',\\\'height=400,width=600\\\');\\n  if (window.focus) newwindow.focus();\\n  return false;\\n}\\nfunction collapse(id) { jQuery(\\\'#\\\'+id).slideToggle(); }\\nfunction fade(id,value) { if(value>0) jQuery(\\\'#\\\'+id).hide().fadeIn(\\\'slow\\\'); else jQuery(\\\'#\\\'+id).show().fadeOut(\\\'slow\\\'); }\\nfunction ajax(u,s,t) {\\n    query = \\\'\\\';\\n    if (typeof s == "string") {\\n        d = jQuery(s).serialize();\\n        if(d){ query = d; }\\n    } else {\\n        pcs = [];\\n        for(i=0; i<s.length; i++) {\\n            q = jQuery("[name="+s[i]+"]").serialize();\\n            if(q){pcs.push(q);}\\n        }\\n        if (pcs.length>0){query = pcs.join("&");}\\n    }\\n    jQuery.ajax({type: "POST", url: u, data: query, success: function(msg) { if(t) { if(t==\\\':eval\\\') eval(msg); else jQuery("#" + t).html(msg); } } }); \\n}\\nString.prototype.reverse = function () { return this.split(\\\'\\\').reverse().join(\\\'\\\');};\\nfunction web2py_ajax_init() {\\n  jQuery(\\\'.hidden\\\').hide();\\n  jQuery(\\\'.error\\\').hide().slideDown(\\\'slow\\\');\\n  jQuery(\\\'.flash\\\').click(function() { jQuery(this).fadeOut(\\\'slow\\\'); return false; });\\n  jQuery(\\\'input[type=submit]\\\').click(function(){var t=jQuery(this);t.hide();t.after(\\\'<input class="submit_disabled" disabled="disabled" type="submit" name="\\\'+t.attr("name")+\\\'_dummy" value="\\\'+t.val()+\\\'">\\\')});\\n  jQuery(\\\'input.integer\\\').keyup(function(){this.value=this.value.reverse().replace(/[^0-9\\\\-]|\\\\-(?=.)/g,\\\'\\\').reverse();});\\n  jQuery(\\\'input.double,input.decimal\\\').keyup(function(){this.value=this.value.reverse().replace(/[^0-9\\\\-\\\\.]|[\\\\-](?=.)|[\\\\.](?=[0-9]*[\\\\.])/g,\\\'\\\').reverse();});\\n  jQuery("input[type=\\\'checkbox\\\'].delete").each(function(){jQuery(this).click(function() { if(this.checked) if(!confirm("\', escape=False)\nresponse.write(T(\'Sure you want to delete this object?\'))\nresponse.write(\'")) this.checked=false; });});\\n  try {jQuery("input.date").focus( function() {Calendar.setup({\\n     inputField:this.id, ifFormat:"\', escape=False)\nresponse.write(T(\'%Y-%m-%d\'))\nresponse.write(\'", showsTime:false\\n  }); }); } catch(e) {};\\n  try { jQuery("input.datetime").focus( function() {Calendar.setup({\\n     inputField:this.id, ifFormat:"\', escape=False)\nresponse.write(T(\'%Y-%m-%d %H:%M:%S\'))\nresponse.write(\'", showsTime: true,timeFormat: "24"\\n  }); }); } catch(e) {};\\n  try { jQuery("input.time").clockpick({\\n      starthour:0, endhour:23, showminutes:true, military:true\\n  }); } catch(e) {};\\n};\\njQuery(document).ready(function(){\\n   jQuery(\\\'.flash\\\').hide();\\n   if(jQuery(\\\'.flash\\\').html()!=\\\'\\\') jQuery(\\\'.flash\\\').slideDown(\\\'slow\\\');\\n   web2py_ajax_init();});\\n\\nfunction web2py_trap_form(action,target) {\\n   jQuery(\\\'#\\\'+target+\\\' form\\\').each(function(i){\\n      var form=jQuery(this);\\n      if(!form.hasClass(\\\'no_trap\\\'))\\n        form.submit(function(obj){\\n         jQuery(\\\'.flash\\\').hide().html(\\\'\\\');\\n         web2py_ajax_page(\\\'post\\\',action,form.serialize(),target);\\n         return false;\\n      });\\n   });\\n}\\n\\nfunction web2py_ajax_page(method,action,data,target) {\\n  jQuery.ajax({\\\'type\\\':method,\\\'url\\\':action,\\\'data\\\':data,\\n    \\\'beforeSend\\\':function(xhr) {\\n      xhr.setRequestHeader(\\\'web2py-component-location\\\',document.location);\\n      xhr.setRequestHeader(\\\'web2py-component-element\\\',target);},\\n    \\\'complete\\\':function(xhr,text){\\n      var html=xhr.responseText;\\n      var content=xhr.getResponseHeader(\\\'web2py-component-content\\\'); \\n      var command=xhr.getResponseHeader(\\\'web2py-component-command\\\');\\n      var flash=xhr.getResponseHeader(\\\'web2py-component-flash\\\');\\n      var t = jQuery(\\\'#\\\'+target);\\n      if(content==\\\'prepend\\\') t.prepend(html); \\n      else if(content==\\\'append\\\') t.append(html);\\n      else if(content!=\\\'hide\\\') t.html(html);  \\n      web2py_trap_form(action,target);\\n      web2py_ajax_init();      \\n      if(command) eval(command);\\n      if(flash) jQuery(\\\'.flash\\\').html(flash).slideDown();\\n      }\\n    });\\n}\\nfunction web2py_component(action,target) {\\n    jQuery(document).ready(function(){ web2py_ajax_page(\\\'get\\\',action,null,target); });\\n}\\n//--></script>\\n\', escape=False)\nresponse.write(\'\\n  <style>\\nul.web2py-menu-vertical { width: 150px; position: relative; top:1em; left:1em;  z-index:30; border:0; margin:0; padding: 0; list-style: none; text-decoration: none;}\\nul.web2py-menu-vertical li { margin:0; padding:0; border:0; width: 150px; background: black; text-align:left;}\\nul.web2py-menu-vertical li a { margin:0; padding: 1px 3px 1px 3px; border:0; width: 144px; color: white; font-size:12px;}\\ndiv.flash { position: fixed; float: right; padding: 10px; top: 10px; right: 30px; opacity: 0.75; margin: 10px 10px 10px 10px; text-align: center; clear: both; color: #fff; font-size: 11pt; text-align: center; vertical-align: middle; cursor: pointer; background: black; border: 2px solid #fff; -moz-border-radius: 5px; -webkit-border-radius: 5px; z-index: 2; }\\ndiv.error { background-color: red; color: white; padding: 3px; }\\n.auth_navbar { text-align:right; z-index:20; position: absolute; top: 2px; right:30px; border:0; padding:0 }\\n  </style>\\n </head>\\n <body>\\n  <!-- start header -->\\n  \', escape=False)\ntry:\n    response.write(auth.navbar(action=URL(\'default\',\'user\')))\nexcept:pass\nresponse.write(\'\\n\\n  <div id="header">\\n   <div id="logo">\\n    <h1>\\n     \', escape=False)\nresponse.write(response.title or request.application)\nresponse.write(\'\\n    </h1>\\n    <h2>\\n     \', escape=False)\nresponse.write(response.subtitle or \'=response.subtitle\')\nresponse.write(\'\\n    </h2>\\n   </div>\\n   <div id="menu">\\n    \', escape=False)\nresponse.write(MENU(response.menu,_class=\'web2py-menu\'))\nresponse.write(\'\\n    <script>\\n      jQuery(document).ready(function(){jQuery(\\\'ul.web2py-menu\\\').superfish({delay:400});});\\n    </script>\\n   </div>\\n  </div>\\n  <hr />\\n  <!-- start page -->\\n  <div id="page">\\n   <!-- start content -->\\n   <div id="content">\\n    <div class="flash">\', escape=False)\nresponse.write(response.flash or \'\')\nresponse.write(\'</div>\\n    \', escape=False)\nresponse.write(\'\\n\\n\', escape=False)\n#=BEAUTIFY(request.vars)\nresponse.write(\'\\n\', escape=False)\n#=BEAUTIFY(post)\nresponse.write(\'\\n\', escape=False)\n#=BEAUTIFY(comments)\nresponse.write(\'\\n<br/>\\n\', escape=False)\nresponse.write(H3(post.articulos.titulo))\nresponse.write(\'\\n\', escape=False)\nresponse.write(post.articulos.articulo)\nresponse.write(\'\\n\\n<br/>\\n<br/>\\n\', escape=False)\nresponse.write(T("Escrito por: "))\nresponse.write(\' \', escape=False)\nresponse.write(post.usuarios.usuario)\nresponse.write(\' \', escape=False)\nresponse.write(T("el "))\nresponse.write(\' \', escape=False)\nresponse.write(post.articulos.fecha)\nresponse.write(\'\\n<br/>\\n<br/>\\n\', escape=False)\nif type(comments)==\'str\':\n    response.write(T(comments))\n    {{#pass\n    response.write(\'\\n\', escape=False)\n    #else:\n    response.write(\'\\n<br/>\\n\', escape=False)\n    #=comments.comentarios.nombre\n    response.write(\' / \', escape=False)\n    #=comments.comentarios.correo\n    response.write(\'\\n\', escape=False)\n    #=(comments.comentarios.url or "No tiene Url")\n    response.write(\'\\n\', escape=False)\n    #=comments.comentarios.comentario\n    response.write(\'\\nEscrito el: \', escape=False)\n    #=comments.comentarios.fecha\n    response.write(\'\\n<br/>\\n<br/>\\n\', escape=False)\n    response.write(form)\n    response.write(\'\\n\', escape=False)\n    response.write(\'\\n   </div>\\n   <!-- end content -->\\n   <!-- start sidebar -->\\n   <div id="sidebar">\\n    <ul>\\n     <li>\\n      <h2>\\n       Etiam dolore\\n      </h2>\\n      <p>\\n       Nulla pellentesque dolor non tellus. Duis vel elit sit\\n       <a href="#">\\n        amet ipsum vehicula\\n       </a>\\n       varius. Vestibulum ante ipsum primis in faucibus orci luctus.\\n      </p>\\n     </li>\\n     <li>\\n      <h2>\\n       Consequat lorem\\n      </h2>\\n      <ul>\\n       <li>\\n        <a href="#">\\n         Proin nec magna nec massa\\n        </a>\\n       </li>\\n       <li>\\n        <a href="#">\\n         Sit amet purus congue\\n        </a>\\n       </li>\\n       <li>\\n        <a href="#">\\n         Molestie aliquam erat volutpat\\n        </a>\\n       </li>\\n       <li>\\n        <a href="#">\\n         Amet ipsum vehicula varius\\n        </a>\\n       </li>\\n       <li>\\n        <a href="#">\\n         Primis in faucibus orci luctus\\n        </a>\\n       </li>\\n       <li>\\n        <a href="#">\\n         Vestibulum ante ipsum\\n        </a>\\n       </li>\\n      </ul>\\n     </li>\\n    </ul>\\n   </div>\\n   <!-- end sidebar -->\\n   <div style="clear: both;">\\n    &nbsp;\\n   </div>\\n  </div>\\n  <!-- end page -->\\n  <div id="footer">\\n   <p class="legal">\\n    Copyright (c) 2007 Website Name. All rights reserved.\\n   </p>\\n   <p class="credit">\\n    Designed by\\n    <a href="http://www.freecsstemplates.org/">\\n     Free CSS Templates\\n    </a>\\n    .\\n   </p>\\n  </div>\\n </body>\\n</html>\\n\', escape=False)'
p7
sS'snapshot'
p8
(dp9
S'exception'
p10
(dp11
S'__module__'
p12
S"'gluon.rocket'"
p13
sS'__getslice__'
p14
S"<method-wrapper '__getslice__' of SocketTimeout object>"
p15
sS'__str__'
p16
S"<method-wrapper '__str__' of SocketTimeout object>"
p17
sS'__reduce__'
p18
S'<built-in method __reduce__ of SocketTimeout object>'
p19
sS'__dict__'
p20
S'{}'
p21
sS'__sizeof__'
p22
S'<built-in method __sizeof__ of SocketTimeout object>'
p23
sS'__weakref__'
p24
S'None'
p25
sS'__init__'
p26
S"<method-wrapper '__init__' of SocketTimeout object>"
p27
sS'__setattr__'
p28
S"<method-wrapper '__setattr__' of SocketTimeout object>"
p29
sS'__reduce_ex__'
p30
S'<built-in method __reduce_ex__ of SocketTimeout object>'
p31
sS'__new__'
p32
S'<built-in method __new__ of type object>'
p33
sS'__format__'
p34
S'<built-in method __format__ of SocketTimeout object>'
p35
sS'__class__'
p36
S"<class 'gluon.rocket.SocketTimeout'>"
p37
sS'__doc__'
p38
S"'Exception for when a socket times out between requests.'"
p39
sS'__getitem__'
p40
S"<method-wrapper '__getitem__' of SocketTimeout object>"
p41
sS'__setstate__'
p42
S'<built-in method __setstate__ of SocketTimeout object>'
p43
sS'__getattribute__'
p44
S"<method-wrapper '__getattribute__' of SocketTimeout object>"
p45
sS'args'
p46
S"('Socket timed out before request.',)"
p47
sS'__subclasshook__'
p48
S'<built-in method __subclasshook__ of type object>'
p49
sS'__unicode__'
p50
S'<built-in method __unicode__ of SocketTimeout object>'
p51
sS'__delattr__'
p52
S"<method-wrapper '__delattr__' of SocketTimeout object>"
p53
sS'__repr__'
p54
S"<method-wrapper '__repr__' of SocketTimeout object>"
p55
sS'__hash__'
p56
S"<method-wrapper '__hash__' of SocketTimeout object>"
p57
ssS'evalue'
p58
S'Socket timed out before request.'
p59
sS'frames'
p60
(lp61
(dp62
S'file'
p63
S'/home/j3nnn1/git/pyj3nnn1/web2py/gluon/rocket.py'
p64
sS'dump'
p65
(dp66
S'self'
p67
S'<WSGIWorker(Thread-7, started daemon -1342985360)>'
p68
sS'conn'
p69
S'<socket._socketobject object>'
p70
sS'self.run_app'
p71
S'<bound method WSGIWorker.run_app of <WSGIWorker(Thread-7, started daemon -1342985360)>>'
p72
ssS'lnum'
p73
I876
sS'lines'
p74
(dp75
I871
S''
sI872
S'            # Enter connection serve loop'
p76
sI873
S'            while True:'
p77
sI874
S"                self.err_log.debug('Serving a request')"
p78
sI875
S'                try:'
p79
sI876
S'                    self.run_app(conn)'
p80
sI877
S'                    log_info = dict(client_ip = conn.client_addr,'
p81
sI878
S"                                    time = datetime.now().strftime('%c'),"
p82
sI879
S"                                    status = self.status.split(' ')[0],"
p83
sI880
S'                                    size = self.size,'
p84
ssS'call'
p85
S'(self=<WSGIWorker(Thread-7, started daemon -1342985360)>)'
p86
sS'func'
p87
S'run'
p88
sa(dp89
g63
S'/home/j3nnn1/git/pyj3nnn1/web2py/gluon/rocket.py'
p90
sg65
(dp91
S'self'
p92
S'<WSGIWorker(Thread-7, started daemon -1342985360)>'
p93
sS'self.environ'
p94
S"{'HTTP_ACCEPT': 'text/html,application/xhtml+xml,application/xml;q=0.9,*/*;q=0.8', 'HTTP_ACCEPT_CHARSET': 'ISO-8859-1,utf-8;q=0.7,*;q=0.7', 'HTTP_ACCEPT_ENCODING': 'gzip,deflate', 'HTTP_ACCEPT_LANGUAGE': 'en-us,en;q=0.5', 'HTTP_CACHE_CONTROL': 'max-age=0', 'HTTP_CONNECTION': 'keep-alive', 'HTTP_COOKIE': 'session_id_blog=127-0-0-1-5dc66841-ff4e-4166-a5c...me=127-0-0-1-351969aa-3dec-406a-9035-95b560cd1dd6', 'HTTP_HOST': '127.0.0.1:8000', 'HTTP_KEEP_ALIVE': '300', 'HTTP_REFERER': 'http://127.0.0.1:8000/blog/default/index', ...}"
p95
sS'sock_file'
p96
S'<socket._fileobject object>'
p97
sS'environ'
p98
S'undefined'
p99
sS'self.build_environ'
p100
S'<bound method WSGIWorker.build_environ of <WSGIWorker(Thread-7, started daemon -1342985360)>>'
p101
sS'conn'
p102
S'<socket._socketobject object>'
p103
ssg73
I1286
sg74
(dp104
I1281
S'        # Build our file-like object'
p105
sI1282
S"        sock_file = conn.makefile('rb',BUF_SIZE)"
p106
sI1283
S''
sI1284
S'        try:'
p107
sI1285
S'            # Read the headers and build our WSGI environment'
p108
sI1286
S'            self.environ = environ = self.build_environ(sock_file, conn)'
p109
sI1287
S''
sI1288
S'            # Handle 100 Continue'
p110
sI1289
S"            if environ.get('HTTP_EXPECT', '').lower() == '100-continue':"
p111
sI1290
S"                res = environ['SERVER_PROTOCOL'] + ' 100 Continue\\r\\n\\r\\n'"
p112
ssg85
S'(self=<WSGIWorker(Thread-7, started daemon -1342985360)>, conn=<socket._socketobject object>)'
p113
sg87
S'run_app'
p114
sa(dp115
g63
S'/home/j3nnn1/git/pyj3nnn1/web2py/gluon/rocket.py'
p116
sg65
(dp117
S'sock_file'
p118
S'<socket._fileobject object>'
p119
sS'self.read_request_line'
p120
S'<bound method WSGIWorker.read_request_line of <WSGIWorker(Thread-7, started daemon -1342985360)>>'
p121
sS'self'
p122
S'<WSGIWorker(Thread-7, started daemon -1342985360)>'
p123
sS'request'
p124
g99
ssg73
I1119
sg74
(dp125
I1120
S''
sI1121
S'        # Grab the headers'
p126
sI1122
S"        self.headers = dict([(str('HTTP_'+k.upper()), v) for k, v in self.read_headers(sock_file).items()])"
p127
sI1123
S''
sI1114
S'        Worker.__init__(self)'
p128
sI1115
S''
sI1116
S'    def build_environ(self, sock_file, conn):'
p129
sI1117
S'        """ Build the execution environment. """'
p130
sI1118
S'        # Grab the request line'
p131
sI1119
S'        request = self.read_request_line(sock_file)'
p132
ssg85
S'(self=<WSGIWorker(Thread-7, started daemon -1342985360)>, sock_file=<socket._fileobject object>, conn=<socket._socketobject object>)'
p133
sg87
S'build_environ'
p134
sa(dp135
g63
S'/home/j3nnn1/git/pyj3nnn1/web2py/gluon/rocket.py'
p136
sg65
(dp137
S'global SocketTimeout'
p138
S"<class 'gluon.rocket.SocketTimeout'>"
p139
ssg73
I943
sg74
(dp140
I938
S"                self.err_log.debug('Client sent newline')"
p141
sI939
S'                d = sock_file.readline()'
p142
sI940
S'                if PY3K:'
p143
sI941
S"                    d = d.decode('ISO-8859-1')"
p144
sI942
S'        except socket.timeout:'
p145
sI943
S'            raise SocketTimeout("Socket timed out before request.")'
p146
sI944
S''
sI945
S"        if d.strip() == '':"
p147
sI946
S"            self.err_log.debug('Client did not send a recognizable request.')"
p148
sI947
S"            raise SocketClosed('Client closed socket.')"
p149
ssg85
S'(self=<WSGIWorker(Thread-7, started daemon -1342985360)>, sock_file=<socket._fileobject object>)'
p150
sg87
S'read_request_line'
p151
sasS'pyver'
p152
S'Python 2.6.6: /usr/bin/python'
p153
sS'etype'
p154
S"<class 'gluon.rocket.SocketTimeout'>"
p155
sS'date'
p156
S'Sun Oct 24 21:37:29 2010'
p157
sS'locals'
p158
(dp159
S'sock_file'
p160
S'<socket._fileobject object>'
p161
sS'self'
p162
S'<WSGIWorker(Thread-7, started daemon -1342985360)>'
p163
sssS'traceback'
p164
S'Traceback (most recent call last):\n  File "/home/j3nnn1/git/pyj3nnn1/web2py/gluon/rocket.py", line 876, in run\n    self.run_app(conn)\n  File "/home/j3nnn1/git/pyj3nnn1/web2py/gluon/rocket.py", line 1286, in run_app\n    self.environ = environ = self.build_environ(sock_file, conn)\n  File "/home/j3nnn1/git/pyj3nnn1/web2py/gluon/rocket.py", line 1119, in build_environ\n    request = self.read_request_line(sock_file)\n  File "/home/j3nnn1/git/pyj3nnn1/web2py/gluon/rocket.py", line 943, in read_request_line\n    raise SocketTimeout("Socket timed out before request.")\nSocketTimeout: Socket timed out before request.\n'
p165
s.