(dp1
S'output'
p2
S''
sS'layer'
p3
S'/home/j3nnn1/git/pyj3nnn1/web2py/applications/blog/views/default/index.html'
p4
sS'code'
p5
S'response.write(\'<!DOCTYPE html PUBLIC "-//W3C//DTD XHTML 1.0 Strict//EN" "http://www.w3.org/TR/xhtml1/DTD/xhtml1-strict.dtd">\\n<!--\\nDesign by Free CSS Templates\\nhttp://www.freecsstemplates.org\\nReleased for free under a Creative Commons Attribution 2.5 License\\n\\nName       : Blogging\\nDescription: A two-column, fixed-width design for 1024x768 screen resolutions.\\nVersion    : 1.0\\nReleased   : 20090208\\n\\n-->\\n<html xmlns="http://www.w3.org/1999/xhtml">\\n <head>\\n  <title>\\n   \', escape=False)\nresponse.write(response.title or request.application)\nresponse.write(\'\\n  </title>\\n  \', escape=False)\nresponse.files.append(URL(request.application,\'static\',\'plugin_layouts/layouts/Blogging/style.css\'))\nresponse.write(\'\\n\', escape=False)\nresponse.files.append(URL(\'static\',\'superfish.js\'))\nresponse.write(\'\\n  \', escape=False)\nresponse.files.insert(0,URL(r=request,c=\'static\',f=\'jquery.js\'))\nresponse.files.insert(1,URL(r=request,c=\'static\',f=\'calendar.css\'))\nresponse.files.insert(2,URL(r=request,c=\'static\',f=\'calendar.js\'))\nfor _item in response.meta or []:\n    response.write(\'\\n     <meta name="\', escape=False)\n    response.write(_item)\n    response.write(\'" content="\', escape=False)\n    response.write(response.meta[_item])\n    response.write(\'" />\', escape=False)\n    pass\nfor _k,_file in enumerate(response.files or []):\n    if _file in response.files[:_k]:\n        continue\n    elif _file.lower().endswith(\'.css\'):\n        response.write(\'\\n     <link href="\', escape=False)\n        response.write(_file)\n        response.write(\'" rel="stylesheet" type="text/css" />\', escape=False)\n    elif _file.lower().endswith(\'.js\'):\n        response.write(\'\\n     <script src="\', escape=False)\n        response.write(_file)\n        response.write(\'" type="text/javascript"></script>\', escape=False)\n        pass\n    pass\nresponse.write(\'\\n<script type="text/javascript"><!--\\nfunction popup(url) {\\n  newwindow=window.open(url,\\\'name\\\',\\\'height=400,width=600\\\');\\n  if (window.focus) newwindow.focus();\\n  return false;\\n}\\nfunction collapse(id) { jQuery(\\\'#\\\'+id).slideToggle(); }\\nfunction fade(id,value) { if(value>0) jQuery(\\\'#\\\'+id).hide().fadeIn(\\\'slow\\\'); else jQuery(\\\'#\\\'+id).show().fadeOut(\\\'slow\\\'); }\\nfunction ajax(u,s,t) {\\n    query = \\\'\\\';\\n    if (typeof s == "string") {\\n        d = jQuery(s).serialize();\\n        if(d){ query = d; }\\n    } else {\\n        pcs = [];\\n        for(i=0; i<s.length; i++) {\\n            q = jQuery("[name="+s[i]+"]").serialize();\\n            if(q){pcs.push(q);}\\n        }\\n        if (pcs.length>0){query = pcs.join("&");}\\n    }\\n    jQuery.ajax({type: "POST", url: u, data: query, success: function(msg) { if(t) { if(t==\\\':eval\\\') eval(msg); else jQuery("#" + t).html(msg); } } }); \\n}\\nString.prototype.reverse = function () { return this.split(\\\'\\\').reverse().join(\\\'\\\');};\\nfunction web2py_ajax_init() {\\n  jQuery(\\\'.hidden\\\').hide();\\n  jQuery(\\\'.error\\\').hide().slideDown(\\\'slow\\\');\\n  jQuery(\\\'.flash\\\').click(function() { jQuery(this).fadeOut(\\\'slow\\\'); return false; });\\n  jQuery(\\\'input[type=submit]\\\').click(function(){var t=jQuery(this);t.hide();t.after(\\\'<input class="submit_disabled" disabled="disabled" type="submit" name="\\\'+t.attr("name")+\\\'_dummy" value="\\\'+t.val()+\\\'">\\\')});\\n  jQuery(\\\'input.integer\\\').keyup(function(){this.value=this.value.reverse().replace(/[^0-9\\\\-]|\\\\-(?=.)/g,\\\'\\\').reverse();});\\n  jQuery(\\\'input.double,input.decimal\\\').keyup(function(){this.value=this.value.reverse().replace(/[^0-9\\\\-\\\\.]|[\\\\-](?=.)|[\\\\.](?=[0-9]*[\\\\.])/g,\\\'\\\').reverse();});\\n  jQuery("input[type=\\\'checkbox\\\'].delete").each(function(){jQuery(this).click(function() { if(this.checked) if(!confirm("\', escape=False)\nresponse.write(T(\'Sure you want to delete this object?\'))\nresponse.write(\'")) this.checked=false; });});\\n  try {jQuery("input.date").focus( function() {Calendar.setup({\\n     inputField:this.id, ifFormat:"\', escape=False)\nresponse.write(T(\'%Y-%m-%d\'))\nresponse.write(\'", showsTime:false\\n  }); }); } catch(e) {};\\n  try { jQuery("input.datetime").focus( function() {Calendar.setup({\\n     inputField:this.id, ifFormat:"\', escape=False)\nresponse.write(T(\'%Y-%m-%d %H:%M:%S\'))\nresponse.write(\'", showsTime: true,timeFormat: "24"\\n  }); }); } catch(e) {};\\n  try { jQuery("input.time").clockpick({\\n      starthour:0, endhour:23, showminutes:true, military:true\\n  }); } catch(e) {};\\n};\\njQuery(document).ready(function(){\\n   jQuery(\\\'.flash\\\').hide();\\n   if(jQuery(\\\'.flash\\\').html()!=\\\'\\\') jQuery(\\\'.flash\\\').slideDown(\\\'slow\\\');\\n   web2py_ajax_init();});\\n\\nfunction web2py_trap_form(action,target) {\\n   jQuery(\\\'#\\\'+target+\\\' form\\\').each(function(i){\\n      var form=jQuery(this);\\n      if(!form.hasClass(\\\'no_trap\\\'))\\n        form.submit(function(obj){\\n         jQuery(\\\'.flash\\\').hide().html(\\\'\\\');\\n         web2py_ajax_page(\\\'post\\\',action,form.serialize(),target);\\n         return false;\\n      });\\n   });\\n}\\n\\nfunction web2py_ajax_page(method,action,data,target) {\\n  jQuery.ajax({\\\'type\\\':method,\\\'url\\\':action,\\\'data\\\':data,\\n    \\\'beforeSend\\\':function(xhr) {\\n      xhr.setRequestHeader(\\\'web2py-component-location\\\',document.location);\\n      xhr.setRequestHeader(\\\'web2py-component-element\\\',target);},\\n    \\\'complete\\\':function(xhr,text){\\n      var html=xhr.responseText;\\n      var content=xhr.getResponseHeader(\\\'web2py-component-content\\\'); \\n      var command=xhr.getResponseHeader(\\\'web2py-component-command\\\');\\n      var flash=xhr.getResponseHeader(\\\'web2py-component-flash\\\');\\n      var t = jQuery(\\\'#\\\'+target);\\n      if(content==\\\'prepend\\\') t.prepend(html); \\n      else if(content==\\\'append\\\') t.append(html);\\n      else if(content!=\\\'hide\\\') t.html(html);  \\n      web2py_trap_form(action,target);\\n      web2py_ajax_init();      \\n      if(command) eval(command);\\n      if(flash) jQuery(\\\'.flash\\\').html(flash).slideDown();\\n      }\\n    });\\n}\\nfunction web2py_component(action,target) {\\n    jQuery(document).ready(function(){ web2py_ajax_page(\\\'get\\\',action,null,target); });\\n}\\n//--></script>\\n\', escape=False)\nresponse.write(\'\\n  <style>\\nul.web2py-menu-vertical { width: 150px; position: relative; top:1em; left:1em;  z-index:30; border:0; margin:0; padding: 0; list-style: none; text-decoration: none;}\\nul.web2py-menu-vertical li { margin:0; padding:0; border:0; width: 150px; background: black; text-align:left;}\\nul.web2py-menu-vertical li a { margin:0; padding: 1px 3px 1px 3px; border:0; width: 144px; color: white; font-size:12px;}\\ndiv.flash { position: fixed; float: right; padding: 10px; top: 10px; right: 30px; opacity: 0.75; margin: 10px 10px 10px 10px; text-align: center; clear: both; color: #fff; font-size: 11pt; text-align: center; vertical-align: middle; cursor: pointer; background: black; border: 2px solid #fff; -moz-border-radius: 5px; -webkit-border-radius: 5px; z-index: 2; }\\ndiv.error { background-color: red; color: white; padding: 3px; }\\n.auth_navbar { text-align:right; z-index:20; position: absolute; top: 2px; right:30px; border:0; padding:0 }\\n  </style>\\n </head>\\n <body>\\n  <!-- start header -->\\n  \', escape=False)\ntry:\n    response.write(auth.navbar(action=URL(\'default\',\'user\')))\nexcept:pass\nresponse.write(\'\\n  \', escape=False)\nimport tweepy\nresponse.write(\'\\n  <div id="wrapper">\\n   <div id="header">\\n    <div id="menu">\\n     \', escape=False)\nresponse.write(MENU(response.menu,_class=\'web2py-menu\'))\nresponse.write(\'\\n    <script>\\n      jQuery(document).ready(function(){jQuery(\\\'ul.web2py-menu\\\').superfish({delay:400});});\\n    </script>\\n    </div>\\n    <!-- end #menu -->\\n    <!--<div id="search">\\n     <form method="get" action="">\\n      <fieldset>\\n       <input type="text" name="s" id="search-text" size="15" />\\n       <input type="submit" id="search-submit" value="Search" />\\n      </fieldset>\\n     </form>\\n    </div> -->\\n    <!-- end #search -->\\n   </div>\\n   <!-- end #header -->\\n   <div id="logo">\\n    <h1>\\n     \', escape=False)\nresponse.write(response.title or request.application)\nresponse.write(\'\\n    </h1>\\n    <p>\\n     <em>\\n      template design by\\n      <a href="#">\\n       Expropiada Templates\\n      </a>\\n     </em>\\n    </p>\\n   </div>\\n   <hr />\\n   <!-- end #logo -->\\n   <!-- end #header-wrapper -->\\n   <div id="page">\\n    <div id="content">\\n     <div class="flash">\', escape=False)\nresponse.write(response.flash or \'\')\nresponse.write(\'</div>\\n     \', escape=False)\nresponse.write(\'\\n<div class="content">\\n\', escape=False)\nx=0\nresponse.write(\'\\n\', escape=False)\nrecorta = lambda x,y: A(\' \'.join(x[:30])+\' Leer mas...\',_href=URL("viewpost",args=y))\nresponse.write(\'\\n\', escape=False)\nread_more = lambda x,y: len(x.split()) < 30 and x or recorta(x.split(),y)\nresponse.write(\'\\n\\n\', escape=False)\nfor p in post:\n    response.write(\'\\n    <div class="post">\\n        \', escape=False)\n    response.write(H3(A(p.articulos.titulo, _href=URL("viewpost", args=p.articulos.id)), _class=\'title\'))\n    response.write(\' \\n        <div class="entry"> \', escape=False)\n    response.write(read_more(p.articulos.articulo,p.articulos.id))\n    response.write(\'</div>\\n            \', escape=False)\n    response.write(A(T("Escrito por %s el: %s Comentarios(%s)" % (p.auth_user.first_name,p.articulos.fecha,comments[x])), _class=\'meta\'))\n    response.write(\'\\n    </div>\\n<hr />\\n\', escape=False)\n    x=x+1\n    response.write(\'\\n\', escape=False)\n    pass\nresponse.write(\'\\n<br />\\n<!-- Paginador -->\\n<div class="pages">\\n\', escape=False)\nif totalpages > 1:\n    response.write(\'\\n        Paginas: \\n    \', escape=False)\n    for i in range(1, totalpages+1):\n        response.write(\'\\n        <span class="page">\\n            \', escape=False)\n        if postpage == i and i>1:\n            response.write(\' \\n                <a href="/blog/?page=\', escape=False)\n            response.write(i-1)\n            response.write(\'">Atras</a>\\n                \', escape=False)\n            pass\n        response.write(\' \\n            \', escape=False)\n    else:\n        response.write(\'\\n                \', escape=False)\n        if i < totalpages+1 and postpage != i:\n            response.write(\'\\n                    <a href="/blog/?page=\', escape=False)\n            response.write(postpage+1)\n            response.write(\'">Adelante</a>\\n                    \', escape=False)\n            pass\n        response.write(\'\\n                \', escape=False)\n        pass\n    response.write(\'\\n        </span>\\n        \', escape=False)\n    pass\nresponse.write(\'\\n\', escape=False)\npass\nresponse.write(\'\\n</div>\\n</div>\\n\\n\', escape=False)\nresponse.write(\'\\n    </div>\\n    <!-- end #content -->\\n    <div id="sidebar">\\n     <ul>\\n         <li>\\n            <h2> Mi Timeline </h2>\\n            <p>\', escape=False)\nusertl = tweepy.api.user_timeline(\'j3nnn1\')\nresponse.write(\'\\n\\n<ul>\\n\', escape=False)\nfor tweet in usertl[0:4]:\n    response.write(\'\\n   <li>\\n   <strong>@\', escape=False)\n    response.write(tweet.user.screen_name)\n    response.write(\':</strong> \', escape=False)\n    response.write(tweet.text)\n    response.write(\'\\n    </li>\\n\', escape=False)\n    pass\nresponse.write(\'\\n</ul>\\n\\n    \\n\\n\', escape=False)\nresponse.write(\' </p>\\n         </li>\\n         <li>\\n            <h2> Menciones en Twitter </h2>\\n            <p> \', escape=False)\nresponse.write("<div class=\'twitter\'>\\n", escape=False)\nsearch_tweets = tweepy.api.search(\'@j3nnn1\')\nresponse.write(\'\\n<ul>\\n\', escape=False)\nfor tweet in search_tweets[0:2]:\n    response.write(\'\\n   <li> \\n   <strong>@\', escape=False)\n    response.write(tweet.from_user)\n    response.write(\':</strong> \', escape=False)\n    response.write(tweet.text)\n    response.write(\'\\n   </li>\\n\', escape=False)\n    pass\nresponse.write(\'\\n</ul>\\n</div>\\n\', escape=False)\nresponse.write(\' </p>\\n         </li>\\n\\n         <li>\\n            <h2> Twitter Busqueda: python </h2>\\n\\t    <p> \', escape=False)\nresponse.write("<div class=\'twitter\'>\\n", escape=False)\nsearch_tweets = tweepy.api.search(\'python\')\nresponse.write(\'\\n<ul>\\n\', escape=False)\nfor tweet in search_tweets[0:2]:\n    response.write(\'\\n   <li>\\n   <strong>@\', escape=False)\n    response.write(tweet.from_user)\n    response.write(\':</strong> \', escape=False)\n    response.write(tweet.text)\n    response.write(\'\\n   </li>\\n\', escape=False)\n    pass\nresponse.write(\'\\n</ul>\\n</div>\\n\\n\', escape=False)\nresponse.write(\' </p>\\n         </li>\\n     </ul>\\n    </div>\\n    <!-- end #sidebar -->\\n    <div style="clear: both;">\\n     &nbsp;\\n    </div>\\n   </div>\\n   <!-- end #page -->\\n   <div id="footer">\\n    <p> .:B106 d3 j3nnn1:.</p>\\n   </div>\\n   <!-- end #footer -->\\n  </div>\\n </body>\\n</html>\\n\', escape=False)'
p6
sS'snapshot'
p7
(dp8
S'exception'
p9
(dp10
S'__module__'
p11
S"'tweepy.error'"
p12
sS'__getslice__'
p13
S"<method-wrapper '__getslice__' of TweepError object>"
p14
sS'__str__'
p15
S'<bound method TweepError.__str__ of TweepError()>'
p16
sS'__reduce__'
p17
S'<built-in method __reduce__ of TweepError object>'
p18
sS'__dict__'
p19
S"{'reason': 'Failed to send request: [Errno -2] Name or service not known', 'response': None}"
p20
sS'__sizeof__'
p21
S'<built-in method __sizeof__ of TweepError object>'
p22
sS'__weakref__'
p23
S'None'
p24
sS'__init__'
p25
S'<bound method TweepError.__init__ of TweepError()>'
p26
sS'__setattr__'
p27
S"<method-wrapper '__setattr__' of TweepError object>"
p28
sS'__reduce_ex__'
p29
S'<built-in method __reduce_ex__ of TweepError object>'
p30
sS'__new__'
p31
S'<built-in method __new__ of type object>'
p32
sS'__format__'
p33
S'<built-in method __format__ of TweepError object>'
p34
sS'__class__'
p35
S"<class 'tweepy.error.TweepError'>"
p36
sS'__doc__'
p37
S"'Tweepy exception'"
p38
sS'__getitem__'
p39
S"<method-wrapper '__getitem__' of TweepError object>"
p40
sS'__setstate__'
p41
S'<built-in method __setstate__ of TweepError object>'
p42
sS'__getattribute__'
p43
S"<method-wrapper '__getattribute__' of TweepError object>"
p44
sS'args'
p45
S'()'
p46
sS'reason'
p47
S"'Failed to send request: [Errno -2] Name or service not known'"
p48
sS'__subclasshook__'
p49
S'<built-in method __subclasshook__ of type object>'
p50
sS'response'
p51
S'None'
p52
sS'__unicode__'
p53
S'<built-in method __unicode__ of TweepError object>'
p54
sS'__delattr__'
p55
S"<method-wrapper '__delattr__' of TweepError object>"
p56
sS'__repr__'
p57
S"<method-wrapper '__repr__' of TweepError object>"
p58
sS'__hash__'
p59
S"<method-wrapper '__hash__' of TweepError object>"
p60
ssS'evalue'
p61
S'Failed to send request: [Errno -2] Name or service not known'
p62
sS'request'
p63
(dp64
S'function'
p65
S"'index'"
p66
sS'body'
p67
S'<cStringIO.StringO object>'
p68
sS'wsgi'
p69
S"<Storage {'start_response': <function <lambda> a...>, 'HTTP_ACCEPT_ENCODING': 'gzip,deflate,sdch'}}>"
p70
sS'extension'
p71
S"'html'"
p72
sS'vars'
p73
S'<Storage {}>'
p74
sS'cid'
p75
S'None'
p76
sS'url'
p77
S'<gluon.html.XML object>'
p78
sg45
S'[]'
p79
sS'controller'
p80
S"'default'"
p81
sS'cookies'
p82
S"<SimpleCookie: session_id_admin='127-0-0-1-141ff3cd-2335-410e-9c97-0f82f65830c1'>"
p83
sS'application'
p84
S"'blog'"
p85
sS'ajax'
p86
S'False'
p87
sS'client'
p88
S"'127.0.0.1'"
p89
sS'env'
p90
S"<Storage {'http_user_agent': 'Mozilla/5.0 (X11; ...nce': False, 'path_info': '/blog/default/index'}>"
p91
sS'raw_args'
p92
S'None'
p93
sS'get_vars'
p94
S'<Storage {}>'
p95
sS'folder'
p96
S"'/home/j3nnn1/git/pyj3nnn1/web2py/applications/blog/'"
p97
sS'now'
p98
S'datetime.datetime(2010, 10, 26, 0, 57, 34, 545804)'
p99
sS'post_vars'
p100
S'<Storage {}>'
p101
ssS'frames'
p102
(lp103
(dp104
S'file'
p105
S'/home/j3nnn1/git/pyj3nnn1/web2py/gluon/restricted.py'
p106
sS'dump'
p107
(dp108
S'environment'
p109
S"{'A': <class 'gluon.html.A'>, 'Auth': <class 'gluon.tools.Auth'>, 'B': <class 'gluon.html.B'>, 'BEAUTIFY': <class 'gluon.html.BEAUTIFY'>, 'BODY': <class 'gluon.html.BODY'>, 'BR': <class 'gluon.html.BR'>, 'CENTER': <class 'gluon.html.CENTER'>, 'CLEANUP': <class 'gluon.validators.CLEANUP'>, 'CODE': <class 'gluon.html.CODE'>, 'CRYPT': <class 'gluon.validators.CRYPT'>, ...}"
p110
sS'ccode'
p111
S'<code object <module> at 0x9d5d380, file "/home/...lications/blog/views/default/index.html", line 1>'
p112
ssS'lnum'
p113
I188
sS'lines'
p114
(dp115
I192
S'        # XXX Show exception in Wing IDE if running in debugger'
p116
sI183
S'        if type(code) == types.CodeType:'
p117
sI184
S'            ccode = code'
p118
sI185
S'        else:'
p119
sI186
S'            ccode = compile2(code,layer)'
p120
sI187
S''
sI188
S'        exec ccode in environment'
p121
sI189
S'    except HTTP:'
p122
sI190
S'        raise'
p123
sI191
S'    except Exception:'
p124
ssS'call'
p125
S'(code=\'response.write(\\\'<!DOCTYPE html PUBLIC "-//W3C//D...->\\\\n  </div>\\\\n </body>\\\\n</html>\\\\n\\\', escape=False)\', environment={\'A\': <class \'gluon.html.A\'>, \'Auth\': <class \'gluon.tools.Auth\'>, \'B\': <class \'gluon.html.B\'>, \'BEAUTIFY\': <class \'gluon.html.BEAUTIFY\'>, \'BODY\': <class \'gluon.html.BODY\'>, \'BR\': <class \'gluon.html.BR\'>, \'CENTER\': <class \'gluon.html.CENTER\'>, \'CLEANUP\': <class \'gluon.validators.CLEANUP\'>, \'CODE\': <class \'gluon.html.CODE\'>, \'CRYPT\': <class \'gluon.validators.CRYPT\'>, ...}, layer=\'/home/j3nnn1/git/pyj3nnn1/web2py/applications/blog/views/default/index.html\')'
p126
sS'func'
p127
S'restricted'
p128
sa(dp129
g105
S'/home/j3nnn1/git/pyj3nnn1/web2py/applications/blog/views/default/index.html'
p130
sg107
(dp131
sg113
I95
sg114
(dp132
I96
S"response.write('\\n\\n<ul>\\n', escape=False)"
p133
sI97
S'for tweet in usertl[0:4]:'
p134
sI98
S"    response.write('\\n   <li>\\n   <strong>@', escape=False)"
p135
sI99
S'    response.write(tweet.user.screen_name)'
p136
sI100
S"    response.write(':</strong> ', escape=False)"
p137
sI101
S'    response.write(tweet.text)'
p138
sI102
S"    response.write('\\n    </li>\\n', escape=False)"
p139
sI103
S'    pass'
p140
sI104
S"response.write('\\n</ul>\\n\\n    \\n\\n', escape=False)"
p141
sI105
S"response.write(' </p>\\n         </li>\\n         <li>\\n            <h2> Menciones en Twitter </h2>\\n            <p> ', escape=False)"
p142
sI86
S'            pass'
p143
sI87
S"        response.write('\\n                ', escape=False)"
p144
sI88
S'        pass'
p145
sI89
S"    response.write('\\n        </span>\\n        ', escape=False)"
p146
sI90
S'    pass'
p147
sI91
S"response.write('\\n', escape=False)"
p148
sI92
S'pass'
p149
sI93
S"response.write('\\n</div>\\n</div>\\n\\n', escape=False)"
p150
sI94
S'response.write(\'\\n    </div>\\n    <!-- end #content -->\\n    <div id="sidebar">\\n     <ul>\\n         <li>\\n            <h2> Mi Timeline </h2>\\n            <p>\', escape=False)'
p151
sI95
S"usertl = tweepy.api.user_timeline('j3nnn1')"
p152
ssg125
S'()'
p153
sg127
S'<module>'
p154
sa(dp155
g105
S'/usr/local/lib/python2.6/dist-packages/tweepy-1.7.1-py2.6.egg/tweepy/binder.py'
p156
sg107
(dp157
S'method'
p158
S'<tweepy.binder.APIMethod object>'
p159
sS'method.execute'
p160
S'<bound method APIMethod.execute of <tweepy.binder.APIMethod object>>'
p161
ssg113
I181
sg114
(dp162
I176
S''
sI177
S''
sI178
S'    def _call(api, *args, **kargs):'
p163
sI179
S''
sI180
S'        method = APIMethod(api, args, kargs)'
p164
sI181
S'        return method.execute()'
p165
sI182
S''
sI183
S''
sI184
S'    # Set pagination mode'
p166
sI185
S"    if 'cursor' in APIMethod.allowed_param:"
p167
ssg125
S"(api=<tweepy.api.API object>, *args=('j3nnn1',), **kargs={})"
p168
sg127
S'_call'
p169
sa(dp170
g105
S'/usr/local/lib/python2.6/dist-packages/tweepy-1.7.1-py2.6.egg/tweepy/binder.py'
p171
sg107
(dp172
S'global TweepError'
p173
S"<class 'tweepy.error.TweepError'>"
p174
sS'e'
S"gaierror(-2, 'Name or service not known')"
p175
ssg113
I145
sg114
(dp176
I140
S'                # Execute request'
p177
sI141
S'                try:'
p178
sI142
S'                    conn.request(self.method, url, headers=self.headers, body=self.post_data)'
p179
sI143
S'                    resp = conn.getresponse()'
p180
sI144
S'                except Exception, e:'
p181
sI145
S"                    raise TweepError('Failed to send request: %s' % e)"
p182
sI146
S''
sI147
S'                # Exit request loop if non-retry error code'
p183
sI148
S'                if self.retry_errors:'
p184
sI149
S'                    if resp.status not in self.retry_errors: break'
p185
ssg125
S'(self=<tweepy.binder.APIMethod object>)'
p186
sg127
S'execute'
p187
sasS'pyver'
p188
S'Python 2.6.6: /usr/bin/python'
p189
sS'session'
p190
(dp191
S'auth'
p192
S'None'
p193
ssS'etype'
p194
S"<class 'tweepy.error.TweepError'>"
p195
sS'date'
p196
S'Tue Oct 26 00:57:34 2010'
p197
sg51
(dp198
S'status'
p199
S'200'
p200
sg67
S'<cStringIO.StringO object>'
p201
sg82
S"<SimpleCookie: session_id_blog='127-0-0-1-5813183b-59f9-4c13-9dec-4fcac873d97b'>"
p202
sS'_vars'
p203
S"{'comments': [0, 0, 0], 'post': <gluon.sql.Rows object>, 'postpage': 1, 'totalpages': 2}"
p204
sS'title'
p205
S'"It\'s me"'
p206
sS'menu'
p207
S"[(<lazyT 'Index'>, False, <gluon.html.XML object>, []), (<lazyT 'About'>, False, <gluon.html.XML object>, []), (<lazyT 'Admin'>, False, <gluon.html.XML object>, [])]"
p208
sS'flash'
p209
S"''"
p210
sS'session_new'
p211
S'True'
p212
sS'_custom_rollback'
p213
S'None'
p214
sS'session_id'
p215
S"'127-0-0-1-5813183b-59f9-4c13-9dec-4fcac873d97b'"
p216
sS'headers'
p217
S"<Storage {'Expires': 'mar, 26 oct 2010 05:27:34 ...he, must-revalidate, post-check=0, pre-check=0'}>"
p218
sS'meta'
p219
S"<Storage {'keywords': 'j3nnn1 web2py python', 'd...con web2py... ', 'author': 'Jennifer Maldonado'}>"
p220
sS'session_filename'
p221
S"'/home/j3nnn1/git/pyj3nnn1/web2py/applications/bl...ns/127-0-0-1-5813183b-59f9-4c13-9dec-4fcac873d97b'"
p222
sS'postprocessing'
p223
S'[]'
p224
sS'_caller'
p225
S'<function <lambda>>'
p226
sS'_view_environment'
p227
S"{'A': <class 'gluon.html.A'>, 'Auth': <class 'gluon.tools.Auth'>, 'B': <class 'gluon.html.B'>, 'BEAUTIFY': <class 'gluon.html.BEAUTIFY'>, 'BODY': <class 'gluon.html.BODY'>, 'BR': <class 'gluon.html.BR'>, 'CENTER': <class 'gluon.html.CENTER'>, 'CLEANUP': <class 'gluon.validators.CLEANUP'>, 'CODE': <class 'gluon.html.CODE'>, 'CRYPT': <class 'gluon.validators.CRYPT'>, ...}"
p228
sS'subtitle'
p229
S'<lazyT "it\'s me j3nnn1">'
p230
sS'session_id_name'
p231
S"'session_id_blog'"
p232
sS'_custom_commit'
p233
S'None'
p234
sS'files'
p235
S'[<gluon.html.XML object>, <gluon.html.XML object>, <gluon.html.XML object>, <gluon.html.XML object>, <gluon.html.XML object>]'
p236
sS'view'
p237
S"'default/index.html'"
p238
ssS'locals'
p239
(dp240
g77
S"'/1/statuses/user_timeline.json?id=j3nnn1'"
p241
sS'retries_performed'
p242
S'0'
sS'e'
S"gaierror(-2, 'Name or service not known')"
p243
sS'self'
p244
S'<tweepy.binder.APIMethod object>'
p245
sS'conn'
p246
S'<httplib.HTTPConnection instance>'
p247
sssS'traceback'
p248
S'Traceback (most recent call last):\n  File "/home/j3nnn1/git/pyj3nnn1/web2py/gluon/restricted.py", line 188, in restricted\n    exec ccode in environment\n  File "/home/j3nnn1/git/pyj3nnn1/web2py/applications/blog/views/default/index.html", line 95, in <module>\n  File "/usr/local/lib/python2.6/dist-packages/tweepy-1.7.1-py2.6.egg/tweepy/binder.py", line 181, in _call\n    return method.execute()\n  File "/usr/local/lib/python2.6/dist-packages/tweepy-1.7.1-py2.6.egg/tweepy/binder.py", line 145, in execute\n    raise TweepError(\'Failed to send request: %s\' % e)\nTweepError: Failed to send request: [Errno -2] Name or service not known\n'
p249
s.