(dp1
S'output'
p2
S''
sS'layer'
p3
S'/cygdrive/e/Documents and Settings/jmaldo03/git/pyj3nnn1/pyj3nnn1/web2py/applications/blog/models/db.py'
p4
sS'code'
p5
S'# -*- coding: utf-8 -*- \n\n#########################################################################\n## This scaffolding model makes your app work on Google App Engine too\n#########################################################################\n\nif request.env.web2py_runtime_gae:            # if running on Google App Engine\n    db = DAL(\'gae\')                           # connect to Google BigTable\n    session.connect(request, response, db = db) # and store sessions and tickets there\n    ### or use the following lines to store sessions in Memcache\n    # from gluon.contrib.memdb import MEMDB\n    # from google.appengine.api.memcache import Client\n    # session.connect(request, response, db = MEMDB(Client()))\nelse:                                         # else use a normal relational database\n    #db = DAL(\'sqlite://storage.sqlite\')       # if not, use SQLite or other DB\n    #db = DAL(\'mysql://j3nnn1:j3nnn1@angvp.com/j3nnn1_blog\')\n    db = DAL(\'mysql://j3nnn1:j3nnn1@localhost/blogweb2py\') \n    \n## if no need for session\n# session.forget()\n\n#########################################################################\n## Here is sample code if you need for \n## - email capabilities\n## - authentication (registration, login, logout, ... )\n## - authorization (role based authorization)\n## - services (xml, csv, json, xmlrpc, jsonrpc, amf, rss)\n## - crud actions\n## (more options discussed in gluon/tools.py)\n#########################################################################\n\nfrom gluon.tools import *\nmail = Mail()                                  # mailer\nauth = Auth(globals(),db)                      # authentication/authorization\ncrud = Crud(globals(),db)                      # for CRUD helpers using auth\nservice = Service(globals())                   # for json, xml, jsonrpc, xmlrpc, amfrpc\nplugins = PluginManager()\n\nmail.settings.server = \'logging\' or \'smtp.gmail.com:587\'  # your SMTP server\nmail.settings.sender = \'you@gmail.com\'         # your email\nmail.settings.login = \'username:password\'      # your credentials or None\n\nauth.settings.hmac_key = \'sha512:f3d5ade2-9740-497b-92a8-a0d5169de496\'   # before define_tables()\nauth.define_tables()                           # creates all needed tables\nauth.settings.mailer = mail                    # for user email verification\nauth.settings.registration_requires_verification = False\nauth.settings.registration_requires_approval = True #el usuario a registrarse requiere aprobacion\nauth.messages.verify_email = \'Click on the link http://\'+request.env.http_host+URL(r=request,c=\'default\',f=\'user\',args=[\'verify_email\'])+\'/%(key)s to verify your email\'\nauth.settings.reset_password_requires_verification = True\nauth.messages.reset_password = \'Click on the link http://\'+request.env.http_host+URL(r=request,c=\'default\',f=\'user\',args=[\'reset_password\'])+\'/%(key)s to reset your password\'\n\n#auth.settings.actions_disabled.append(\'register\') #bloqueando el acceso al registro\n#########################################################################\n## If you need to use OpenID, Facebook, MySpace, Twitter, Linkedin, etc.\n## register with janrain.com, uncomment and customize following\n# from gluon.contrib.login_methods.rpx_account import RPXAccount\n# auth.settings.actions_disabled=[\'register\',\'change_password\',\'request_reset_password\']\n# auth.settings.login_form = RPXAccount(request, api_key=\'...\',domain=\'...\',\n#    url = "http://localhost:8000/%s/default/user/login" % request.application)\n## other login methods are in gluon/contrib/login_methods\n#########################################################################\n\ncrud.settings.auth = None                      # =auth to enforce authorization on crud\n\n#########################################################################\n## Define your tables below (or better in another model file) for example\n##\n## >>> db.define_table(\'mytable\',Field(\'myfield\',\'string\'))\n##\n## Fields can be \'string\',\'text\',\'password\',\'integer\',\'double\',\'boolean\'\n##       \'date\',\'time\',\'datetime\',\'blob\',\'upload\', \'reference TABLENAME\'\n## There is an implicit \'id integer autoincrement\' field\n## Consult manual for more options, validators, etc.\n##\n## More API examples for controllers:\n##\n## >>> db.mytable.insert(myfield=\'value\')\n## >>> rows=db(db.mytable.myfield==\'value\').select(db.mytable.ALL)\n## >>> for row in rows: print row.id, row.myfield\n#########################################################################\n\n\nimport datetime\nnow = datetime.datetime.today()\n\ndb.define_table(\'articulos\',\n        Field(\'titulo\',    \'string\',  requires=[IS_NOT_EMPTY(),IS_NOT_IN_DB(db,\'articulos.titulo\')], required=True),\n        Field(\'articulo\',  \'text\',    requires=IS_NOT_EMPTY(),required=True),\n        Field(\'fecha\',     \'datetime\',default=now, readable=False, writable=False),\n        Field(\'id_usuario\', db.auth_user, readable=False, writable=False),\n        Field(\'image\', \'upload\'))\n        \ndb.articulos.id.readable=db.articulos.id.writable=False\n\ndb.define_table(\'comentarios\',\n        Field(\'id_articulo\', db.articulos, readable=False, writable=False),\n        Field(\'titulo\',      \'string\',requires = IS_NOT_EMPTY(), required=True),\n        Field(\'comentario\',  \'text\',  requires = IS_NOT_EMPTY(), required=True),\n        Field(\'nombre\',      \'string\',requires = IS_NOT_EMPTY(), required=True),\n        Field(\'correo\',      \'string\',requires = [IS_EMAIL(), IS_NOT_EMPTY()],     required=True),\n        Field(\'url\',         \'string\',required=False),\n        Field(\'fecha\',       \'datetime\', default=now, readable=False, writable=False),\n        Field(\'visible\',     \'boolean\', readable=False, writable=False, default=\'F\'))\n\ndb.comentarios.id.readable=db.comentarios.id.writable=False\n\ndb.define_table(\'etiquetas\',\n        Field(\'nombre\', \'string\', requires=IS_NOT_EMPTY(), required=True))\n        \n\ndb.define_table(\'etiquetas_articulos\', \n        Field(\'id_etiqueta\',db.etiquetas, readable=False, writable=False),      \n        Field(\'id_articulo\',db.articulos, readable=False, writable=False))\n'
p6
sS'snapshot'
p7
(dp8
S'exception'
p9
(dp10
S'__hash__'
p11
S"<method-wrapper '__hash__' of exceptions.RuntimeError object>"
p12
sS'__setattr__'
p13
S"<method-wrapper '__setattr__' of exceptions.RuntimeError object>"
p14
sS'__reduce_ex__'
p15
S'<built-in method __reduce_ex__ of exceptions.RuntimeError object>'
p16
sS'__getslice__'
p17
S"<method-wrapper '__getslice__' of exceptions.RuntimeError object>"
p18
sS'__getitem__'
p19
S"<method-wrapper '__getitem__' of exceptions.RuntimeError object>"
p20
sS'__setstate__'
p21
S'<built-in method __setstate__ of exceptions.RuntimeError object>'
p22
sS'__reduce__'
p23
S'<built-in method __reduce__ of exceptions.RuntimeError object>'
p24
sS'__str__'
p25
S"<method-wrapper '__str__' of exceptions.RuntimeError object>"
p26
sS'__format__'
p27
S'<built-in method __format__ of exceptions.RuntimeError object>'
p28
sS'__getattribute__'
p29
S"<method-wrapper '__getattribute__' of exceptions.RuntimeError object>"
p30
sS'__class__'
p31
S"<type 'exceptions.RuntimeError'>"
p32
sS'__unicode__'
p33
S'<built-in method __unicode__ of exceptions.RuntimeError object>'
p34
sS'__delattr__'
p35
S"<method-wrapper '__delattr__' of exceptions.RuntimeError object>"
p36
sS'__subclasshook__'
p37
S'<built-in method __subclasshook__ of type object>'
p38
sS'__repr__'
p39
S"<method-wrapper '__repr__' of exceptions.RuntimeError object>"
p40
sS'args'
p41
S'("global name \'MySQLdb\' is not defined (tried 5 times)",)'
p42
sS'__dict__'
p43
S'{}'
p44
sS'__sizeof__'
p45
S'<built-in method __sizeof__ of exceptions.RuntimeError object>'
p46
sS'__doc__'
p47
S"'Unspecified run-time error.'"
p48
sS'__init__'
p49
S"<method-wrapper '__init__' of exceptions.RuntimeError object>"
p50
sS'__new__'
p51
S'<built-in method __new__ of type object>'
p52
ssS'evalue'
p53
S"global name 'MySQLdb' is not defined (tried 5 times)"
p54
sS'request'
p55
(dp56
S'function'
p57
S"'index'"
p58
sS'body'
p59
S'<cStringIO.StringO object>'
p60
sS'wsgi'
p61
S"<Storage {'start_response': <function <lambda> a...ING': 'gzip,deflate', 'HTTP_KEEP_ALIVE': '115'}}>"
p62
sS'extension'
p63
S"'html'"
p64
sS'vars'
p65
S'<Storage {}>'
p66
sS'cid'
p67
S'None'
p68
sS'url'
p69
S'<gluon.html.XML object>'
p70
sg41
S'[]'
p71
sS'controller'
p72
S"'default'"
p73
sS'cookies'
p74
S"<SimpleCookie: session_id_admin='127-0-0-1-a2d9e...'127-0-0-1-53f4e4e8-c601-4215-a505-e65bb0d10d2d'>"
p75
sS'application'
p76
S"'blog'"
p77
sS'ajax'
p78
S'False'
p79
sS'client'
p80
S"'127.0.0.1'"
p81
sS'env'
p82
S"<Storage {'http_user_agent': 'Mozilla/5.0 (Windo...nce': False, 'path_info': '/blog/default/index'}>"
p83
sS'raw_args'
p84
S'None'
p85
sS'get_vars'
p86
S'<Storage {}>'
p87
sS'folder'
p88
S"'/cygdrive/e/Documents and Settings/jmaldo03/git/pyj3nnn1/pyj3nnn1/web2py/applications/blog/'"
p89
sS'now'
p90
S'datetime.datetime(2010, 10, 26, 10, 19, 32, 409750)'
p91
sS'post_vars'
p92
S'<Storage {}>'
p93
ssS'frames'
p94
(lp95
(dp96
S'file'
p97
S'/cygdrive/e/Documents and Settings/jmaldo03/git/pyj3nnn1/pyj3nnn1/web2py/gluon/restricted.py'
p98
sS'dump'
p99
(dp100
S'environment'
p101
S"{'A': <class 'gluon.html.A'>, 'B': <class 'gluon.html.B'>, 'BEAUTIFY': <class 'gluon.html.BEAUTIFY'>, 'BODY': <class 'gluon.html.BODY'>, 'BR': <class 'gluon.html.BR'>, 'CENTER': <class 'gluon.html.CENTER'>, 'CLEANUP': <class 'gluon.validators.CLEANUP'>, 'CODE': <class 'gluon.html.CODE'>, 'CRYPT': <class 'gluon.validators.CRYPT'>, 'DAL': <function DAL>, ...}"
p102
sS'ccode'
p103
S'<code object <module> at 0x7f61c4e8, file "/cygd...1/web2py/applications/blog/models/db.py", line 7>'
p104
ssS'lnum'
p105
I188
sS'lines'
p106
(dp107
I192
S'        # XXX Show exception in Wing IDE if running in debugger'
p108
sI183
S'        if type(code) == types.CodeType:'
p109
sI184
S'            ccode = code'
p110
sI185
S'        else:'
p111
sI186
S'            ccode = compile2(code,layer)'
p112
sI187
S''
sI188
S'        exec ccode in environment'
p113
sI189
S'    except HTTP:'
p114
sI190
S'        raise'
p115
sI191
S'    except Exception:'
p116
ssS'call'
p117
S'(code="# -*- coding: utf-8 -*- \\n\\n######################...\',db.articulos, readable=False, writable=False))\\n", environment={\'A\': <class \'gluon.html.A\'>, \'B\': <class \'gluon.html.B\'>, \'BEAUTIFY\': <class \'gluon.html.BEAUTIFY\'>, \'BODY\': <class \'gluon.html.BODY\'>, \'BR\': <class \'gluon.html.BR\'>, \'CENTER\': <class \'gluon.html.CENTER\'>, \'CLEANUP\': <class \'gluon.validators.CLEANUP\'>, \'CODE\': <class \'gluon.html.CODE\'>, \'CRYPT\': <class \'gluon.validators.CRYPT\'>, \'DAL\': <function DAL>, ...}, layer=\'/cygdrive/e/Documents and Settings/jmaldo03/git/...n1/pyj3nnn1/web2py/applications/blog/models/db.py\')'
p118
sS'func'
p119
S'restricted'
p120
sa(dp121
g97
S'/cygdrive/e/Documents and Settings/jmaldo03/git/pyj3nnn1/pyj3nnn1/web2py/applications/blog/models/db.py'
p122
sg99
(dp123
S'DAL'
p124
S'<function DAL>'
p125
sS'db'
p126
S'undefined'
p127
ssg105
I17
sg106
(dp128
I12
S'    # from google.appengine.api.memcache import Client'
p129
sI13
S'    # session.connect(request, response, db = MEMDB(Client()))'
p130
sI14
S'else:                                         # else use a normal relational database'
p131
sI15
S"    #db = DAL('sqlite://storage.sqlite')       # if not, use SQLite or other DB"
p132
sI16
S"    #db = DAL('mysql://j3nnn1:j3nnn1@angvp.com/j3nnn1_blog')"
p133
sI17
S"    db = DAL('mysql://j3nnn1:j3nnn1@localhost/blogweb2py')"
p134
sI18
S''
sI19
S'## if no need for session'
p135
sI20
S'# session.forget()'
p136
sI21
S''
ssg117
S'()'
p137
sg119
S'<module>'
p138
sa(dp139
g97
S'/cygdrive/e/Documents and Settings/jmaldo03/git/pyj3nnn1/pyj3nnn1/web2py/gluon/sql.py'
p140
sg99
(dp141
S'exception'
p142
S'NameError("global name \'MySQLdb\' is not defined",)'
p143
sS'builtinRuntimeError'
p144
S"<type 'exceptions.RuntimeError'>"
p145
ssg105
I4031
sg106
(dp146
I4032
S''
sI4033
S"if __name__ == '__main__':"
p147
sI4034
S'    import doctest'
p148
sI4035
S'    doctest.testmod()'
p149
sI4026
S'                except SyntaxError, exception:'
p150
sI4027
S'                    raise SyntaxError, exception'
p151
sI4028
S'                except Exception, exception:'
p152
sI4029
S'                    if uri==uris[-1]:'
p153
sI4030
S'                        time.sleep(1)'
p154
sI4031
S'        raise RuntimeError, "%s (tried 5 times)" % exception'
p155
ssg117
S"(uri='mysql://j3nnn1:j3nnn1@localhost/blogweb2py', pool_size=0, folder=None, db_codec='UTF-8', check_reserved=None, migrate=True, fake_migrate=False)"
p156
sg119
S'DAL'
p157
sasS'pyver'
p158
S'Python 2.6.5: /usr/bin/python'
p159
sS'session'
p160
(dp161
sS'etype'
p162
S"<type 'exceptions.RuntimeError'>"
p163
sS'date'
p164
S'Tue Oct 26 10:19:37 2010'
p165
sS'response'
p166
(dp167
S'status'
p168
S'200'
p169
sg59
S'<cStringIO.StringO object>'
p170
sg74
S"<SimpleCookie: session_id_blog='127-0-0-1-b4859fbe-1a57-4f11-ac6f-8c97b645a452'>"
p171
sS'_vars'
p172
S'None'
p173
sS'menu'
p174
S'[]'
p175
sS'flash'
p176
S"''"
p177
sS'session_new'
p178
S'True'
p179
sS'_custom_rollback'
p180
S'None'
p181
sS'session_id'
p182
S"'127-0-0-1-b4859fbe-1a57-4f11-ac6f-8c97b645a452'"
p183
sS'headers'
p184
S"<Storage {'Expires': 'Tue, 26 Oct 2010 14:49:32 ...he, must-revalidate, post-check=0, pre-check=0'}>"
p185
sS'meta'
p186
S'<Storage {}>'
p187
sS'session_filename'
p188
S"'/cygdrive/e/Documents and Settings/jmaldo03/git/...ns/127-0-0-1-b4859fbe-1a57-4f11-ac6f-8c97b645a452'"
p189
sS'postprocessing'
p190
S'[]'
p191
sS'_caller'
p192
S'<function <lambda>>'
p193
sS'_view_environment'
p194
S"{'A': <class 'gluon.html.A'>, 'B': <class 'gluon.html.B'>, 'BEAUTIFY': <class 'gluon.html.BEAUTIFY'>, 'BODY': <class 'gluon.html.BODY'>, 'BR': <class 'gluon.html.BR'>, 'CENTER': <class 'gluon.html.CENTER'>, 'CLEANUP': <class 'gluon.validators.CLEANUP'>, 'CODE': <class 'gluon.html.CODE'>, 'CRYPT': <class 'gluon.validators.CRYPT'>, 'DAL': <function DAL>, ...}"
p195
sS'session_id_name'
p196
S"'session_id_blog'"
p197
sS'_custom_commit'
p198
S'None'
p199
sS'files'
p200
S'[]'
p201
sS'view'
p202
S"'default/index.html'"
p203
ssS'locals'
p204
(dp205
g9
S'NameError("global name \'MySQLdb\' is not defined",)'
p206
sS'db_codec'
p207
S"'UTF-8'"
p208
sS'migrate'
p209
g179
sS'k'
S'4'
sS'fake_migrate'
p210
g79
sS'uri'
p211
S"'mysql://j3nnn1:j3nnn1@localhost/blogweb2py'"
p212
sS'check_reserved'
p213
S'None'
p214
sg88
S'None'
p215
sS'pool_size'
p216
S'0'
sS'uris'
p217
S"['mysql://j3nnn1:j3nnn1@localhost/blogweb2py']"
p218
sssS'traceback'
p219
S'Traceback (most recent call last):\n  File "/cygdrive/e/Documents and Settings/jmaldo03/git/pyj3nnn1/pyj3nnn1/web2py/gluon/restricted.py", line 188, in restricted\n    exec ccode in environment\n  File "/cygdrive/e/Documents and Settings/jmaldo03/git/pyj3nnn1/pyj3nnn1/web2py/applications/blog/models/db.py", line 17, in <module>\n    db = DAL(\'mysql://j3nnn1:j3nnn1@localhost/blogweb2py\')\n  File "/cygdrive/e/Documents and Settings/jmaldo03/git/pyj3nnn1/pyj3nnn1/web2py/gluon/sql.py", line 4031, in DAL\n    raise RuntimeError, "%s (tried 5 times)" % exception\nRuntimeError: global name \'MySQLdb\' is not defined (tried 5 times)\n'
p220
s.