(dp1
S'output'
p2
S''
sS'layer'
p3
S'/home/j3nnn1/git/pyj3nnn1/web2py/applications/blog/views/default/index.html'
p4
sS'code'
p5
S'response.write(\'<!DOCTYPE html PUBLIC "-//W3C//DTD XHTML 1.0 Strict//EN" "http://www.w3.org/TR/xhtml1/DTD/xhtml1-strict.dtd">\\n<!--\\nDesign by Free CSS Templates\\nhttp://www.freecsstemplates.org\\nReleased for free under a Creative Commons Attribution 2.5 License\\n\\nName       : Blogging\\nDescription: A two-column, fixed-width design for 1024x768 screen resolutions.\\nVersion    : 1.0\\nReleased   : 20090208\\n\\n-->\\n<html xmlns="http://www.w3.org/1999/xhtml">\\n <head>\\n  <title>\\n   \', escape=False)\nresponse.write(response.title or request.application)\nresponse.write(\'\\n  </title>\\n  \', escape=False)\nresponse.files.append(URL(request.application,\'static\',\'plugin_layouts/layouts/Blogging/style.css\'))\nresponse.write(\'\\n\', escape=False)\nresponse.files.append(URL(\'static\',\'superfish.js\'))\nresponse.write(\'\\n  \', escape=False)\nresponse.files.insert(0,URL(r=request,c=\'static\',f=\'jquery.js\'))\nresponse.files.insert(1,URL(r=request,c=\'static\',f=\'calendar.css\'))\nresponse.files.insert(2,URL(r=request,c=\'static\',f=\'calendar.js\'))\nfor _item in response.meta or []:\n    response.write(\'\\n     <meta name="\', escape=False)\n    response.write(_item)\n    response.write(\'" content="\', escape=False)\n    response.write(response.meta[_item])\n    response.write(\'" />\', escape=False)\n    pass\nfor _k,_file in enumerate(response.files or []):\n    if _file in response.files[:_k]:\n        continue\n    elif _file.lower().endswith(\'.css\'):\n        response.write(\'\\n     <link href="\', escape=False)\n        response.write(_file)\n        response.write(\'" rel="stylesheet" type="text/css" />\', escape=False)\n    elif _file.lower().endswith(\'.js\'):\n        response.write(\'\\n     <script src="\', escape=False)\n        response.write(_file)\n        response.write(\'" type="text/javascript"></script>\', escape=False)\n        pass\n    pass\nresponse.write(\'\\n<script type="text/javascript"><!--\\nfunction popup(url) {\\n  newwindow=window.open(url,\\\'name\\\',\\\'height=400,width=600\\\');\\n  if (window.focus) newwindow.focus();\\n  return false;\\n}\\nfunction collapse(id) { jQuery(\\\'#\\\'+id).slideToggle(); }\\nfunction fade(id,value) { if(value>0) jQuery(\\\'#\\\'+id).hide().fadeIn(\\\'slow\\\'); else jQuery(\\\'#\\\'+id).show().fadeOut(\\\'slow\\\'); }\\nfunction ajax(u,s,t) {\\n    query = \\\'\\\';\\n    if (typeof s == "string") {\\n        d = jQuery(s).serialize();\\n        if(d){ query = d; }\\n    } else {\\n        pcs = [];\\n        for(i=0; i<s.length; i++) {\\n            q = jQuery("[name="+s[i]+"]").serialize();\\n            if(q){pcs.push(q);}\\n        }\\n        if (pcs.length>0){query = pcs.join("&");}\\n    }\\n    jQuery.ajax({type: "POST", url: u, data: query, success: function(msg) { if(t) { if(t==\\\':eval\\\') eval(msg); else jQuery("#" + t).html(msg); } } }); \\n}\\nString.prototype.reverse = function () { return this.split(\\\'\\\').reverse().join(\\\'\\\');};\\nfunction web2py_ajax_init() {\\n  jQuery(\\\'.hidden\\\').hide();\\n  jQuery(\\\'.error\\\').hide().slideDown(\\\'slow\\\');\\n  jQuery(\\\'.flash\\\').click(function() { jQuery(this).fadeOut(\\\'slow\\\'); return false; });\\n  jQuery(\\\'input[type=submit]\\\').click(function(){var t=jQuery(this);t.hide();t.after(\\\'<input class="submit_disabled" disabled="disabled" type="submit" name="\\\'+t.attr("name")+\\\'_dummy" value="\\\'+t.val()+\\\'">\\\')});\\n  jQuery(\\\'input.integer\\\').keyup(function(){this.value=this.value.reverse().replace(/[^0-9\\\\-]|\\\\-(?=.)/g,\\\'\\\').reverse();});\\n  jQuery(\\\'input.double,input.decimal\\\').keyup(function(){this.value=this.value.reverse().replace(/[^0-9\\\\-\\\\.]|[\\\\-](?=.)|[\\\\.](?=[0-9]*[\\\\.])/g,\\\'\\\').reverse();});\\n  jQuery("input[type=\\\'checkbox\\\'].delete").each(function(){jQuery(this).click(function() { if(this.checked) if(!confirm("\', escape=False)\nresponse.write(T(\'Sure you want to delete this object?\'))\nresponse.write(\'")) this.checked=false; });});\\n  try {jQuery("input.date").focus( function() {Calendar.setup({\\n     inputField:this.id, ifFormat:"\', escape=False)\nresponse.write(T(\'%Y-%m-%d\'))\nresponse.write(\'", showsTime:false\\n  }); }); } catch(e) {};\\n  try { jQuery("input.datetime").focus( function() {Calendar.setup({\\n     inputField:this.id, ifFormat:"\', escape=False)\nresponse.write(T(\'%Y-%m-%d %H:%M:%S\'))\nresponse.write(\'", showsTime: true,timeFormat: "24"\\n  }); }); } catch(e) {};\\n  try { jQuery("input.time").clockpick({\\n      starthour:0, endhour:23, showminutes:true, military:true\\n  }); } catch(e) {};\\n};\\njQuery(document).ready(function(){\\n   jQuery(\\\'.flash\\\').hide();\\n   if(jQuery(\\\'.flash\\\').html()!=\\\'\\\') jQuery(\\\'.flash\\\').slideDown(\\\'slow\\\');\\n   web2py_ajax_init();});\\n\\nfunction web2py_trap_form(action,target) {\\n   jQuery(\\\'#\\\'+target+\\\' form\\\').each(function(i){\\n      var form=jQuery(this);\\n      if(!form.hasClass(\\\'no_trap\\\'))\\n        form.submit(function(obj){\\n         jQuery(\\\'.flash\\\').hide().html(\\\'\\\');\\n         web2py_ajax_page(\\\'post\\\',action,form.serialize(),target);\\n         return false;\\n      });\\n   });\\n}\\n\\nfunction web2py_ajax_page(method,action,data,target) {\\n  jQuery.ajax({\\\'type\\\':method,\\\'url\\\':action,\\\'data\\\':data,\\n    \\\'beforeSend\\\':function(xhr) {\\n      xhr.setRequestHeader(\\\'web2py-component-location\\\',document.location);\\n      xhr.setRequestHeader(\\\'web2py-component-element\\\',target);},\\n    \\\'complete\\\':function(xhr,text){\\n      var html=xhr.responseText;\\n      var content=xhr.getResponseHeader(\\\'web2py-component-content\\\'); \\n      var command=xhr.getResponseHeader(\\\'web2py-component-command\\\');\\n      var flash=xhr.getResponseHeader(\\\'web2py-component-flash\\\');\\n      var t = jQuery(\\\'#\\\'+target);\\n      if(content==\\\'prepend\\\') t.prepend(html); \\n      else if(content==\\\'append\\\') t.append(html);\\n      else if(content!=\\\'hide\\\') t.html(html);  \\n      web2py_trap_form(action,target);\\n      web2py_ajax_init();      \\n      if(command) eval(command);\\n      if(flash) jQuery(\\\'.flash\\\').html(flash).slideDown();\\n      }\\n    });\\n}\\nfunction web2py_component(action,target) {\\n    jQuery(document).ready(function(){ web2py_ajax_page(\\\'get\\\',action,null,target); });\\n}\\n//--></script>\\n\', escape=False)\nresponse.write(\'\\n  <style>\\nul.web2py-menu-vertical { width: 150px; position: relative; top:1em; left:1em;  z-index:30; border:0; margin:0; padding: 0; list-style: none; text-decoration: none;}\\nul.web2py-menu-vertical li { margin:0; padding:0; border:0; width: 150px; background: black; text-align:left;}\\nul.web2py-menu-vertical li a { margin:0; padding: 1px 3px 1px 3px; border:0; width: 144px; color: white; font-size:12px;}\\ndiv.flash { position: fixed; float: right; padding: 10px; top: 10px; right: 30px; opacity: 0.75; margin: 10px 10px 10px 10px; text-align: center; clear: both; color: #fff; font-size: 11pt; text-align: center; vertical-align: middle; cursor: pointer; background: black; border: 2px solid #fff; -moz-border-radius: 5px; -webkit-border-radius: 5px; z-index: 2; }\\ndiv.error { background-color: red; color: white; padding: 3px; }\\n.auth_navbar { text-align:right; z-index:20; position: absolute; top: 2px; right:30px; border:0; padding:0 }\\n  </style>\\n </head>\\n <body>\\n  <!-- start header -->\\n  \', escape=False)\ntry:\n    response.write(auth.navbar(action=URL(\'default\',\'user\')))\nexcept:pass\nresponse.write(\'\\n\\n  <div id="wrapper">\\n   <div id="header">\\n    <div id="menu">\\n     \', escape=False)\nresponse.write(MENU(response.menu,_class=\'web2py-menu\'))\nresponse.write(\'\\n    <script>\\n      jQuery(document).ready(function(){jQuery(\\\'ul.web2py-menu\\\').superfish({delay:400});});\\n    </script>\\n    </div>\\n    <!-- end #menu -->\\n    <div id="search">\\n     <form method="get" action="">\\n      <fieldset>\\n       <input type="text" name="s" id="search-text" size="15" />\\n       <input type="submit" id="search-submit" value="Search" />\\n      </fieldset>\\n     </form>\\n    </div>\\n    <!-- end #search -->\\n   </div>\\n   <!-- end #header -->\\n   <div id="logo">\\n    <h1>\\n     \', escape=False)\nresponse.write(response.title or request.application)\nresponse.write(\'\\n    </h1>\\n    <p>\\n     <em>\\n      template design by\\n      <a href="http://www.freecsstemplates.org/">\\n       Free CSS Templates\\n      </a>\\n     </em>\\n    </p>\\n   </div>\\n   <hr />\\n   <!-- end #logo -->\\n   <!-- end #header-wrapper -->\\n   <div id="page">\\n    <div id="content">\\n     <div class="flash">\', escape=False)\nresponse.write(response.flash or \'\')\nresponse.write(\'</div>\\n     \', escape=False)\nresponse.write("\\n<div class=\'content\'>\\n", escape=False)\nfor post in post:\n    response.write("\\n    <div class=\'post\'>\\n        ", escape=False)\n    response.write(H3(A(post.articulos.titulo, _href=URL("viewpost", args=post.articulos.id)), _class=\'title\'))\n    response.write(\' \\n        <div class="entry"> \', escape=False)\n    response.write(post.articulos.articulo)\n    response.write(\'</div>\\n            \', escape=False)\n    response.write(A(T("Escrito por %s el: %s" % (post.usuarios.usuario,post.articulos.fecha), _class=\'meta\')))\n    response.write(\'\\n    </div>\\n<hr />\\n\', escape=False)\n    pass\nresponse.write(\'\\n<br />\\n<!-- Paginador -->\\n\', escape=False)\nif totalpages > 1:\n    response.write(\'\\n    <div class="pages">\\n        Paginas: \\n    \', escape=False)\n    for i in range(1, totalpages+1):\n        response.write(\'\\n        <span class="page">\\n            \', escape=False)\n        if postpage == i and i>1:\n            response.write(\' \\n                <a href="/blog/?page=\', escape=False)\n            response.write(i-1)\n            response.write(\'">Atras</a>\\n                \', escape=False)\n            pass\n        response.write(\' \\n            \', escape=False)\n    else:\n        response.write(\'\\n                \', escape=False)\n        if i < totalpages+1 and postpage != i:\n            response.write(\'\\n                    <a href="/blog/?page=\', escape=False)\n            response.write(postpage+1)\n            response.write(\'">Adelante</a>\\n                    \', escape=False)\n            pass\n        response.write(\'\\n                \', escape=False)\n        pass\n    response.write(\'\\n        </span>\\n        \', escape=False)\n    pass\nresponse.write(\'\\n</div>\\n\', escape=False)\npass\nresponse.write(\'\\n</div>\\n\', escape=False)\nresponse.write(\'\\n    </div>\\n    <!-- end #content -->\\n    <div id="sidebar">\\n     <ul>\\n      <li>\\n       <h2>\\n        Aliquam tempus\\n       </h2>\\n       <p>\\n        Mauris vitae nisl nec metus placerat perdiet est. Phasellus dapibus semper urna. Pellentesque ornare, orci in consectetuer hendrerit, volutpat.\\n       </p>\\n      </li>\\n      <li id="calendar">\\n       <h2>\\n        Calendar\\n       </h2>\\n       <div id="calendar_wrap">\\n        <table summary="Calendar">\\n         <caption>\\n          March 2008\\n         </caption>\\n         <thead>\\n          <tr>\\n           <th abbr="Monday" scope="col" title="Monday">\\n            M\\n           </th>\\n           <th abbr="Tuesday" scope="col" title="Tuesday">\\n            T\\n           </th>\\n           <th abbr="Wednesday" scope="col" title="Wednesday">\\n            W\\n           </th>\\n           <th abbr="Thursday" scope="col" title="Thursday">\\n            T\\n           </th>\\n           <th abbr="Friday" scope="col" title="Friday">\\n            F\\n           </th>\\n           <th abbr="Saturday" scope="col" title="Saturday">\\n            S\\n           </th>\\n           <th abbr="Sunday" scope="col" title="Sunday">\\n            S\\n           </th>\\n          </tr>\\n         </thead>\\n         <tfoot>\\n          <tr>\\n           <td abbr="February" colspan="3" id="prev">\\n            <a href="#" title="">\\n             &laquo; Feb\\n            </a>\\n           </td>\\n           <td class="pad">\\n            &nbsp;\\n           </td>\\n           <td abbr="April" colspan="3" id="next">\\n            <a href="#" title="">\\n             Apr &raquo;\\n            </a>\\n           </td>\\n          </tr>\\n         </tfoot>\\n         <tbody>\\n          <tr>\\n           <td colspan="5" class="pad">\\n            &nbsp;\\n           </td>\\n           <td>\\n            1\\n           </td>\\n           <td>\\n            2\\n           </td>\\n          </tr>\\n          <tr>\\n           <td>\\n            3\\n           </td>\\n           <td>\\n            4\\n           </td>\\n           <td>\\n            5\\n           </td>\\n           <td>\\n            6\\n           </td>\\n           <td>\\n            7\\n           </td>\\n           <td>\\n            8\\n           </td>\\n           <td>\\n            9\\n           </td>\\n          </tr>\\n          <tr>\\n           <td>\\n            10\\n           </td>\\n           <td id="today">\\n            11\\n           </td>\\n           <td>\\n            12\\n           </td>\\n           <td>\\n            13\\n           </td>\\n           <td>\\n            14\\n           </td>\\n           <td>\\n            15\\n           </td>\\n           <td>\\n            16\\n           </td>\\n          </tr>\\n          <tr>\\n           <td>\\n            17\\n           </td>\\n           <td>\\n            18\\n           </td>\\n           <td>\\n            19\\n           </td>\\n           <td>\\n            20\\n           </td>\\n           <td>\\n            21\\n           </td>\\n           <td>\\n            22\\n           </td>\\n           <td>\\n            23\\n           </td>\\n          </tr>\\n          <tr>\\n           <td>\\n            24\\n           </td>\\n           <td>\\n            25\\n           </td>\\n           <td>\\n            26\\n           </td>\\n           <td>\\n            27\\n           </td>\\n           <td>\\n            28\\n           </td>\\n           <td>\\n            29\\n           </td>\\n           <td>\\n            30\\n           </td>\\n          </tr>\\n          <tr>\\n           <td>\\n            31\\n           </td>\\n           <td class="pad" colspan="6">\\n            &nbsp;\\n           </td>\\n          </tr>\\n         </tbody>\\n        </table>\\n       </div>\\n      </li>\\n      <li>\\n       <h2>\\n        Turpis nulla\\n       </h2>\\n       <ul>\\n        <li>\\n         <a href="#">\\n         </a>\\n         <a href="#">\\n          Nec metus sed donec\\n         </a>\\n        </li>\\n        <li>\\n         <a href="#">\\n          Magna lacus bibendum mauris\\n         </a>\\n        </li>\\n        <li>\\n         <a href="#">\\n          Velit semper nisi molestie\\n         </a>\\n        </li>\\n        <li>\\n         <a href="#">\\n          Eget tempor eget nonummy\\n         </a>\\n        </li>\\n        <li>\\n         <a href="#">\\n          Nec metus sed donec\\n         </a>\\n        </li>\\n       </ul>\\n      </li>\\n     </ul>\\n    </div>\\n    <!-- end #sidebar -->\\n    <div style="clear: both;">\\n     &nbsp;\\n    </div>\\n   </div>\\n   <!-- end #page -->\\n   <div id="footer">\\n    <p>\\n     Copyright (c) 2008 Sitename.com. All rights reserved. Design by\\n     <a href="http://www.freecsstemplates.org/">\\n      Free CSS Templates\\n     </a>\\n     .\\n    </p>\\n   </div>\\n   <!-- end #footer -->\\n  </div>\\n </body>\\n</html>\\n\', escape=False)'
p6
sS'snapshot'
p7
(dp8
S'exception'
p9
(dp10
S'__hash__'
p11
S"<method-wrapper '__hash__' of exceptions.TypeError object>"
p12
sS'__setattr__'
p13
S"<method-wrapper '__setattr__' of exceptions.TypeError object>"
p14
sS'__reduce_ex__'
p15
S'<built-in method __reduce_ex__ of exceptions.TypeError object>'
p16
sS'__getslice__'
p17
S"<method-wrapper '__getslice__' of exceptions.TypeError object>"
p18
sS'__getitem__'
p19
S"<method-wrapper '__getitem__' of exceptions.TypeError object>"
p20
sS'__setstate__'
p21
S'<built-in method __setstate__ of exceptions.TypeError object>'
p22
sS'__reduce__'
p23
S'<built-in method __reduce__ of exceptions.TypeError object>'
p24
sS'__str__'
p25
S"<method-wrapper '__str__' of exceptions.TypeError object>"
p26
sS'__format__'
p27
S'<built-in method __format__ of exceptions.TypeError object>'
p28
sS'__getattribute__'
p29
S"<method-wrapper '__getattribute__' of exceptions.TypeError object>"
p30
sS'__class__'
p31
S"<type 'exceptions.TypeError'>"
p32
sS'__unicode__'
p33
S'<built-in method __unicode__ of exceptions.TypeError object>'
p34
sS'__delattr__'
p35
S"<method-wrapper '__delattr__' of exceptions.TypeError object>"
p36
sS'__subclasshook__'
p37
S'<built-in method __subclasshook__ of type object>'
p38
sS'__repr__'
p39
S"<method-wrapper '__repr__' of exceptions.TypeError object>"
p40
sS'args'
p41
S'("__call__() got an unexpected keyword argument \'_class\'",)'
p42
sS'__dict__'
p43
S'{}'
p44
sS'__sizeof__'
p45
S'<built-in method __sizeof__ of exceptions.TypeError object>'
p46
sS'__doc__'
p47
S"'Inappropriate argument type.'"
p48
sS'__init__'
p49
S"<method-wrapper '__init__' of exceptions.TypeError object>"
p50
sS'__new__'
p51
S'<built-in method __new__ of type object>'
p52
ssS'evalue'
p53
S"__call__() got an unexpected keyword argument '_class'"
p54
sS'request'
p55
(dp56
S'function'
p57
S"'index'"
p58
sS'body'
p59
S'<cStringIO.StringO object>'
p60
sS'wsgi'
p61
S"<Storage {'start_response': <function <lambda> a...ING': 'gzip,deflate', 'HTTP_KEEP_ALIVE': '300'}}>"
p62
sS'extension'
p63
S"'html'"
p64
sS'vars'
p65
S'<Storage {}>'
p66
sS'cid'
p67
S'None'
p68
sS'url'
p69
S'<gluon.html.XML object>'
p70
sg41
S'[]'
p71
sS'controller'
p72
S"'default'"
p73
sS'cookies'
p74
S"<SimpleCookie: session_id_admin='127-0-0-1-f2e5b...'127-0-0-1-351969aa-3dec-406a-9035-95b560cd1dd6'>"
p75
sS'application'
p76
S"'blog'"
p77
sS'ajax'
p78
S'False'
p79
sS'client'
p80
S"'127.0.0.1'"
p81
sS'env'
p82
S"<Storage {'http_user_agent': 'Mozilla/5.0 (X11; ...nce': False, 'path_info': '/blog/default/index'}>"
p83
sS'raw_args'
p84
S'None'
p85
sS'get_vars'
p86
S'<Storage {}>'
p87
sS'folder'
p88
S"'/home/j3nnn1/git/pyj3nnn1/web2py/applications/blog/'"
p89
sS'now'
p90
S'datetime.datetime(2010, 10, 25, 0, 21, 57, 697170)'
p91
sS'post_vars'
p92
S'<Storage {}>'
p93
ssS'frames'
p94
(lp95
(dp96
S'file'
p97
S'/home/j3nnn1/git/pyj3nnn1/web2py/gluon/restricted.py'
p98
sS'dump'
p99
(dp100
S'environment'
p101
S"{'A': <class 'gluon.html.A'>, 'Auth': <class 'gluon.tools.Auth'>, 'B': <class 'gluon.html.B'>, 'BEAUTIFY': <class 'gluon.html.BEAUTIFY'>, 'BODY': <class 'gluon.html.BODY'>, 'BR': <class 'gluon.html.BR'>, 'CENTER': <class 'gluon.html.CENTER'>, 'CLEANUP': <class 'gluon.validators.CLEANUP'>, 'CODE': <class 'gluon.html.CODE'>, 'CRYPT': <class 'gluon.validators.CRYPT'>, ...}"
p102
sS'ccode'
p103
S'<code object <module> at 0x96b30b0, file "/home/...lications/blog/views/default/index.html", line 1>'
p104
ssS'lnum'
p105
I188
sS'lines'
p106
(dp107
I192
S'        # XXX Show exception in Wing IDE if running in debugger'
p108
sI183
S'        if type(code) == types.CodeType:'
p109
sI184
S'            ccode = code'
p110
sI185
S'        else:'
p111
sI186
S'            ccode = compile2(code,layer)'
p112
sI187
S''
sI188
S'        exec ccode in environment'
p113
sI189
S'    except HTTP:'
p114
sI190
S'        raise'
p115
sI191
S'    except Exception:'
p116
ssS'call'
p117
S'(code=\'response.write(\\\'<!DOCTYPE html PUBLIC "-//W3C//D...->\\\\n  </div>\\\\n </body>\\\\n</html>\\\\n\\\', escape=False)\', environment={\'A\': <class \'gluon.html.A\'>, \'Auth\': <class \'gluon.tools.Auth\'>, \'B\': <class \'gluon.html.B\'>, \'BEAUTIFY\': <class \'gluon.html.BEAUTIFY\'>, \'BODY\': <class \'gluon.html.BODY\'>, \'BR\': <class \'gluon.html.BR\'>, \'CENTER\': <class \'gluon.html.CENTER\'>, \'CLEANUP\': <class \'gluon.validators.CLEANUP\'>, \'CODE\': <class \'gluon.html.CODE\'>, \'CRYPT\': <class \'gluon.validators.CRYPT\'>, ...}, layer=\'/home/j3nnn1/git/pyj3nnn1/web2py/applications/blog/views/default/index.html\')'
p118
sS'func'
p119
S'restricted'
p120
sa(dp121
g97
S'/home/j3nnn1/git/pyj3nnn1/web2py/applications/blog/views/default/index.html'
p122
sg99
(dp123
sg105
I56
sg106
(dp124
I64
S'        if postpage == i and i>1:'
p125
sI65
S'            response.write(\' \\n                <a href="/blog/?page=\', escape=False)'
p126
sI66
S'            response.write(i-1)'
p127
sI47
S"response.write(response.flash or '')"
p128
sI48
S"response.write('</div>\\n     ', escape=False)"
p129
sI49
S'response.write("\\n<div class=\'content\'>\\n", escape=False)'
p130
sI50
S'for post in post:'
p131
sI51
S'    response.write("\\n    <div class=\'post\'>\\n        ", escape=False)'
p132
sI52
S'    response.write(H3(A(post.articulos.titulo, _href=URL("viewpost", args=post.articulos.id)), _class=\'title\'))'
p133
sI53
S'    response.write(\' \\n        <div class="entry"> \', escape=False)'
p134
sI54
S'    response.write(post.articulos.articulo)'
p135
sI55
S"    response.write('</div>\\n            ', escape=False)"
p136
sI56
S'    response.write(A(T("Escrito por %s el: %s" % (post.usuarios.usuario,post.articulos.fecha), _class=\'meta\')))'
p137
sI57
S"    response.write('\\n    </div>\\n<hr />\\n', escape=False)"
p138
sI58
S'    pass'
p139
sI59
S"response.write('\\n<br />\\n<!-- Paginador -->\\n', escape=False)"
p140
sI60
S'if totalpages > 1:'
p141
sI61
S'    response.write(\'\\n    <div class="pages">\\n        Paginas: \\n    \', escape=False)'
p142
sI62
S'    for i in range(1, totalpages+1):'
p143
sI63
S'        response.write(\'\\n        <span class="page">\\n            \', escape=False)'
p144
ssg117
S'()'
p145
sg119
S'<module>'
p146
sasS'pyver'
p147
S'Python 2.6.6: /usr/bin/python'
p148
sS'session'
p149
(dp150
S'_formkey[comentarios_create]'
p151
S"'df1aabf3-e129-44e2-a414-dc48a88329de'"
p152
sS'auth'
p153
S'None'
p154
ssS'etype'
p155
S"<type 'exceptions.TypeError'>"
p156
sS'date'
p157
S'Mon Oct 25 00:21:59 2010'
p158
sS'response'
p159
(dp160
S'status'
p161
S'200'
p162
sg59
S'<cStringIO.StringO object>'
p163
sg74
S"<SimpleCookie: session_id_blog='127-0-0-1-5dc66841-ff4e-4166-a5cb-65f23e1becc2'>"
p164
sS'_vars'
p165
S"{'post': <gluon.sql.Rows object>, 'postpage': 1, 'totalpages': 2}"
p166
sS'title'
p167
S"'blog'"
p168
sS'session_file'
p169
S"<open file '/home/j3nnn1/git/pyj3nnn1/web2py/app...dc66841-ff4e-4166-a5cb-65f23e1becc2', mode 'rb+'>"
p170
sS'flash'
p171
S"''"
p172
sS'_custom_rollback'
p173
S'None'
p174
sS'session_id'
p175
S"'127-0-0-1-5dc66841-ff4e-4166-a5cb-65f23e1becc2'"
p176
sS'headers'
p177
S"<Storage {'Expires': 'lun, 25 oct 2010 04:51:58 ...he, must-revalidate, post-check=0, pre-check=0'}>"
p178
sS'meta'
p179
S"<Storage {'keywords': 'j3nnn1 web2py python', 'd...con web2py... ', 'author': 'Jennifer Maldonado'}>"
p180
sS'session_filename'
p181
S"'/home/j3nnn1/git/pyj3nnn1/web2py/applications/bl...ns/127-0-0-1-5dc66841-ff4e-4166-a5cb-65f23e1becc2'"
p182
sS'postprocessing'
p183
S'[]'
p184
sS'menu'
p185
S"[(<lazyT 'Index'>, False, <gluon.html.XML object>, []), (<lazyT 'About'>, False, <gluon.html.XML object>, []), (<lazyT 'Edit'>, False, <gluon.html.XML object>, [(<lazyT 'Controller'>, False, <gluon.html.XML object>), (<lazyT 'View'>, False, <gluon.html.XML object>), (<lazyT 'Layout'>, False, <gluon.html.XML object>), (<lazyT 'Stylesheet'>, False, <gluon.html.XML object>), (<lazyT 'DB Model'>, False, <gluon.html.XML object>), (<lazyT 'Menu Model'>, False, <gluon.html.XML object>), (<lazyT 'Database'>, False, <gluon.html.XML object>)])]"
p186
sS'_view_environment'
p187
S"{'A': <class 'gluon.html.A'>, 'Auth': <class 'gluon.tools.Auth'>, 'B': <class 'gluon.html.B'>, 'BEAUTIFY': <class 'gluon.html.BEAUTIFY'>, 'BODY': <class 'gluon.html.BODY'>, 'BR': <class 'gluon.html.BR'>, 'CENTER': <class 'gluon.html.CENTER'>, 'CLEANUP': <class 'gluon.validators.CLEANUP'>, 'CODE': <class 'gluon.html.CODE'>, 'CRYPT': <class 'gluon.validators.CRYPT'>, ...}"
p188
sS'subtitle'
p189
S'<lazyT "it\'s me j3nnn1">'
p190
sS'session_id_name'
p191
S"'session_id_blog'"
p192
sS'_custom_commit'
p193
S'None'
p194
sS'_caller'
p195
S'<function <lambda>>'
p196
sS'files'
p197
S'[<gluon.html.XML object>, <gluon.html.XML object>, <gluon.html.XML object>, <gluon.html.XML object>, <gluon.html.XML object>]'
p198
sS'view'
p199
S"'default/index.html'"
p200
ssS'locals'
p201
(dp202
S'Service'
p203
S'<class gluon.tools.Service>'
p204
sS'OBJECT'
p205
S"<class 'gluon.html.OBJECT'>"
p206
sS'_file'
p207
S'<gluon.html.XML object>'
p208
sS'datetime'
p209
S"<module 'datetime' from '/usr/lib/python2.6/lib-dynload/datetime.so'>"
p210
sg149
S"<Storage {'_formkey[comentarios_create]': 'df1aabf3-e129-44e2-a414-dc48a88329de', 'auth': None}>"
p211
sS'LINK'
p212
S"<class 'gluon.html.LINK'>"
p213
sS'BR'
p214
S"<class 'gluon.html.BR'>"
p215
sS'local_import'
p216
S'<function <lambda>>'
p217
sS'OPTGROUP'
p218
S"<class 'gluon.html.OPTGROUP'>"
p219
sS'PRE'
p220
S"<class 'gluon.html.PRE'>"
p221
sS'IS_INT_IN_RANGE'
p222
S"<class 'gluon.validators.IS_INT_IN_RANGE'>"
p223
sS'IS_LOWER'
p224
S"<class 'gluon.validators.IS_LOWER'>"
p225
sS'IS_STRONG'
p226
S"<class 'gluon.validators.IS_STRONG'>"
p227
sS'Recaptcha'
p228
S"<class 'gluon.tools.Recaptcha'>"
p229
sS'cache'
p230
S'<gluon.cache.Cache object>'
p231
sS'IS_IN_DB'
p232
S"<class 'gluon.validators.IS_IN_DB'>"
p233
sS'TAG'
p234
S'<gluon.html.__TAG__ object>'
p235
sS'_k'
p236
S'4'
sS'SQLField'
p237
S"<class 'gluon.sql.Field'>"
p238
sS'mail'
p239
S'<gluon.tools.Mail object>'
p240
sS'BODY'
p241
S"<class 'gluon.html.BODY'>"
p242
sS'IS_DATE_IN_RANGE'
p243
S"<class 'gluon.validators.IS_DATE_IN_RANGE'>"
p244
sS'postpage'
p245
S'1'
sS'TH'
p246
S"<class 'gluon.html.TH'>"
p247
sS'URL'
p248
S'<function _URL>'
p249
sS'db'
p250
S"<SQLDB {'auth_event': <Table {'origin': <gluon.s..., 'id': <gluon.sql.Field object at 0x9b3e58c>}>}>"
p251
sS'auth'
p252
S'<gluon.tools.Auth object>'
p253
sS'P'
S"<class 'gluon.html.P'>"
p254
sS'TFOOT'
p255
S"<class 'gluon.html.TFOOT'>"
p256
sS'XHTML'
p257
S"<class 'gluon.html.XHTML'>"
p258
sg90
S'datetime.datetime(2010, 10, 25, 0, 21, 59, 55563)'
p259
sS'ON'
p260
S'True'
p261
sS'OL'
p262
S"<class 'gluon.html.OL'>"
p263
sS'TEXTAREA'
p264
S"<class 'gluon.html.TEXTAREA'>"
p265
sS'MENU'
p266
S"<class 'gluon.html.MENU'>"
p267
sS'LOAD'
p268
S'<gluon.compileapp.LoadFactory instance>'
p269
sS'CODE'
p270
S"<class 'gluon.html.CODE'>"
p271
sS'HTTP'
p272
S"<class 'gluon.http.HTTP'>"
p273
sS'HR'
p274
S"<class 'gluon.html.HR'>"
p275
sS'IS_DATETIME'
p276
S"<class 'gluon.validators.IS_DATETIME'>"
p277
sS'HEAD'
p278
S"<class 'gluon.html.HEAD'>"
p279
sS'LABEL'
p280
S"<class 'gluon.html.LABEL'>"
p281
sS'CLEANUP'
p282
S"<class 'gluon.validators.CLEANUP'>"
p283
sS'plugins'
p284
S'<gluon.tools.PluginManager object>'
p285
sS'SELECT'
p286
S"<class 'gluon.html.SELECT'>"
p287
sS'CENTER'
p288
S"<class 'gluon.html.CENTER'>"
p289
sS'prettydate'
p290
S'<function prettydate>'
p291
sS'Crud'
p292
S"<class 'gluon.tools.Crud'>"
p293
sS'Auth'
p294
S"<class 'gluon.tools.Auth'>"
p295
sS'__builtins__'
p296
S"{'ArithmeticError': <type 'exceptions.ArithmeticError'>, 'AssertionError': <type 'exceptions.AssertionError'>, 'AttributeError': <type 'exceptions.AttributeError'>, 'BaseException': <type 'exceptions.BaseException'>, 'BufferError': <type 'exceptions.BufferError'>, 'BytesWarning': <type 'exceptions.BytesWarning'>, 'DeprecationWarning': <type 'exceptions.DeprecationWarning'>, 'EOFError': <type 'exceptions.EOFError'>, 'Ellipsis': Ellipsis, 'EnvironmentError': <type 'exceptions.EnvironmentError'>, ...}"
p297
sS'IS_LIST_OF'
p298
S"<class 'gluon.validators.IS_LIST_OF'>"
p299
sS'SQLFORM'
p300
S"<class 'gluon.sqlhtml.SQLFORM'>"
p301
sS'_item'
p302
S"'author'"
p303
sS'EM'
p304
S"<class 'gluon.html.EM'>"
p305
sS'redirect'
p306
S'<function redirect>'
p307
sS'FIELDSET'
p308
S"<class 'gluon.html.FIELDSET'>"
p309
sS'IS_EQUAL_TO'
p310
S"<class 'gluon.validators.IS_EQUAL_TO'>"
p311
sS'embed64'
p312
S'<function embed64>'
p313
sS'INPUT'
p314
S"<class 'gluon.html.INPUT'>"
p315
sS'post'
p316
S"<Row {'articulos': <Row {'update_record': <funct...b8c>}>, 'usuarios': <Row {'usuario': 'j3nnn1'}>}>"
p317
sS'FORM'
p318
S"<class 'gluon.html.FORM'>"
p319
sS'H2'
p320
S"<class 'gluon.html.H2'>"
p321
sS'H3'
p322
S"<class 'gluon.html.H3'>"
p323
sS'H1'
p324
S"<class 'gluon.html.H1'>"
p325
sS'H6'
p326
S"<class 'gluon.html.H6'>"
p327
sS'H4'
p328
S"<class 'gluon.html.H4'>"
p329
sS'H5'
p330
S"<class 'gluon.html.H5'>"
p331
sS'UL'
p332
S"<class 'gluon.html.UL'>"
p333
sS'IS_UPPER'
p334
S"<class 'gluon.validators.IS_UPPER'>"
p335
sS'xmlescape'
p336
S'<function xmlescape>'
p337
sS'IS_TIME'
p338
S"<class 'gluon.validators.IS_TIME'>"
p339
sS'OPTION'
p340
S"<class 'gluon.html.OPTION'>"
p341
sS'TITLE'
p342
S"<class 'gluon.html.TITLE'>"
p343
sS'CRYPT'
p344
S"<class 'gluon.validators.CRYPT'>"
p345
sS'IS_EMPTY_OR'
p346
S"<class 'gluon.validators.IS_EMPTY_OR'>"
p347
sS'MARKMIN'
p348
S"<class 'gluon.html.MARKMIN'>"
p349
sS'totalpages'
p350
S'2'
sS'EMBED'
p351
S"<class 'gluon.html.EMBED'>"
p352
sS'service'
p353
S'<gluon.tools.Service instance>'
p354
sS'SCRIPT'
p355
S"<class 'gluon.html.SCRIPT'>"
p356
sS'geocode'
p357
S'<function geocode>'
p358
sS'TABLE'
p359
S"<class 'gluon.html.TABLE'>"
p360
sS'IS_IPV4'
p361
S"<class 'gluon.validators.IS_IPV4'>"
p362
sS'IS_LENGTH'
p363
S"<class 'gluon.validators.IS_LENGTH'>"
p364
sS'XML'
p365
S"<class 'gluon.html.XML'>"
p366
sS'B'
S"<class 'gluon.html.B'>"
p367
sS'IMG'
p368
S"<class 'gluon.html.IMG'>"
p369
sS'SQLTABLE'
p370
S"<class 'gluon.sqlhtml.SQLTABLE'>"
p371
sS'IS_MATCH'
p372
S"<class 'gluon.validators.IS_MATCH'>"
p373
sS'IS_ALPHANUMERIC'
p374
S"<class 'gluon.validators.IS_ALPHANUMERIC'>"
p375
sS'SPAN'
p376
S"<class 'gluon.html.SPAN'>"
p377
sS'IS_SLUG'
p378
S"<class 'gluon.validators.IS_SLUG'>"
p379
sS'BEAUTIFY'
p380
S"<class 'gluon.html.BEAUTIFY'>"
p381
sS'META'
p382
S"<class 'gluon.html.META'>"
p383
sS'SQLDB'
p384
S"<class 'gluon.sql.SQLDB'>"
p385
sS'fetch'
p386
S'<function fetch>'
p387
sS'IS_DATE'
p388
S"<class 'gluon.validators.IS_DATE'>"
p389
sS'IS_EMAIL'
p390
S"<class 'gluon.validators.IS_EMAIL'>"
p391
sS'IS_NOT_EMPTY'
p392
S"<class 'gluon.validators.IS_NOT_EMPTY'>"
p393
sg55
S"<Storage {'function': 'index', 'body': <cStringI..., 0, 21, 57, 697170), 'post_vars': <Storage {}>}>"
p394
sS'TBODY'
p395
S"<class 'gluon.html.TBODY'>"
p396
sS'Field'
p397
S"<class 'gluon.sql.Field'>"
p398
sS'Mail'
p399
S"<class 'gluon.tools.Mail'>"
p400
sS'DIV'
p401
S"<class 'gluon.html.DIV'>"
p402
sS'LEGEND'
p403
S"<class 'gluon.html.LEGEND'>"
p404
sS'DAL'
p405
S'<function DAL>'
p406
sS'TT'
p407
S"<class 'gluon.html.TT'>"
p408
sS'TR'
p409
S"<class 'gluon.html.TR'>"
p410
sS'LI'
p411
S"<class 'gluon.html.LI'>"
p412
sS'IFRAME'
p413
S"<class 'gluon.html.IFRAME'>"
p414
sS'TD'
p415
S"<class 'gluon.html.TD'>"
p416
sS'PluginManager'
p417
S"<class 'gluon.tools.PluginManager'>"
p418
sS'IS_URL'
p419
S"<class 'gluon.validators.IS_URL'>"
p420
sS'A'
S"<class 'gluon.html.A'>"
p421
sS'STYLE'
p422
S"<class 'gluon.html.STYLE'>"
p423
sS'IS_DATETIME_IN_RANGE'
p424
S"<class 'gluon.validators.IS_DATETIME_IN_RANGE'>"
p425
sS'HTML'
p426
S"<class 'gluon.html.HTML'>"
p427
sS'IS_IMAGE'
p428
S"<class 'gluon.validators.IS_IMAGE'>"
p429
sS'I'
S"<class 'gluon.html.I'>"
p430
sS'crud'
p431
S'<gluon.tools.Crud object>'
p432
sS'IS_NOT_IN_DB'
p433
S"<class 'gluon.validators.IS_NOT_IN_DB'>"
p434
sg159
S"<Storage {'status': 200, 'body': <cStringIO.Stri...object at 0x9b7a28c>], '_custom_rollback': None}>"
p435
sS'THEAD'
p436
S"<class 'gluon.html.THEAD'>"
p437
sS'IS_NULL_OR'
p438
S"<class 'gluon.validators.IS_EMPTY_OR'>"
p439
sS'IS_FLOAT_IN_RANGE'
p440
S"<class 'gluon.validators.IS_FLOAT_IN_RANGE'>"
p441
sS'IS_EXPR'
p442
S"<class 'gluon.validators.IS_EXPR'>"
p443
sS'T'
S'<gluon.languages.translator object>'
p444
sS'IS_IN_SET'
p445
S"<class 'gluon.validators.IS_IN_SET'>"
p446
sS'IS_UPLOAD_FILENAME'
p447
S"<class 'gluon.validators.IS_UPLOAD_FILENAME'>"
p448
sS'IS_DECIMAL_IN_RANGE'
p449
S"<class 'gluon.validators.IS_DECIMAL_IN_RANGE'>"
p450
sssS'traceback'
p451
S'Traceback (most recent call last):\n  File "/home/j3nnn1/git/pyj3nnn1/web2py/gluon/restricted.py", line 188, in restricted\n    exec ccode in environment\n  File "/home/j3nnn1/git/pyj3nnn1/web2py/applications/blog/views/default/index.html", line 56, in <module>\nTypeError: __call__() got an unexpected keyword argument \'_class\'\n'
p452
s.