(dp1
S'output'
p2
S''
sS'layer'
p3
S'/home/j3nnn1/git/pyj3nnn1/web2py/applications/blog/controllers/default.py'
p4
sS'code'
p5
S'# -*- coding: utf-8 -*- \n\n#########################################################################\n## This is a samples controller\n## - index is the default action of any application\n## - user is required for authentication and authorization\n## - download is for downloading files uploaded in the db (does streaming)\n## - call exposes all registered services (none by default)\n#########################################################################  \n\ndef index():\n    """\n    Esta vista va a obtener 3 post\n    """\n    # filter to join.\n    filtro = (db.articulos.id_usuario==db.usuarios.id)\n    post = db(filtro).select(db.articulos.id, db.articulos.titulo, db.articulos.fecha, db.articulos.articulo, db.usuarios.usuario,limitby=(0,3),orderby=~db.articulos.fecha)\n\n    return dict(post=post)\n\ndef about():\n    """ Informaci\xc3\xb3n sobre mi persona"""\n    return dict()\n\ndef viewpost():\n    filtro      = (db.articulos.id==request.args(0))&(db.articulos.id_usuario==db.usuarios.id)\n    campos      = (db.articulos.ALL, db.usuarios-usuario)\n    #post        = db(filtro).select(db.articulos.ALL, db.usuarios.usuario).first()\n    post        = db(filtro).select(campos).first()\n    form        = SQLFORM(db.comentarios)\n    form.vars.id_articulo = post.articulos.id\n\n    comments    = db(db.comentarios.id_articulo==post.articulos.id).select() or "Este Post no posee comentarios"\n\n    if form.accepts(request.vars, session):\n       response.flash =\'Tu comentario ha sido publicado\'\n\n    return dict(post=post, form=form, comments=comments)\n\ndef user():\n    """\n    exposes:\n    http://..../[app]/default/user/login \n    http://..../[app]/default/user/logout\n    http://..../[app]/default/user/register\n    http://..../[app]/default/user/profile\n    http://..../[app]/default/user/retrieve_password\n    http://..../[app]/default/user/change_password\n    use @auth.requires_login()\n        @auth.requires_membership(\'group name\')\n        @auth.requires_permission(\'read\',\'table name\',record_id)\n    to decorate functions that need access control\n    """\n    return dict(form=auth())\n\n\ndef download():\n    """\n    allows downloading of uploaded files\n    http://..../[app]/default/download/[filename]\n    """\n    return response.download(request,db)\n\n\ndef call():\n    """\n    exposes services. for example:\n    http://..../[app]/default/call/jsonrpc\n    decorate with @services.jsonrpc the functions to expose\n    supports xml, json, xmlrpc, jsonrpc, amfrpc, rss, csv\n    """\n    session.forget()\n    return service()\n\nresponse._vars=response._caller(viewpost)\n'
p6
sS'snapshot'
p7
(dp8
S'exception'
p9
(dp10
S'__hash__'
p11
S"<method-wrapper '__hash__' of exceptions.NameError object>"
p12
sS'__setattr__'
p13
S"<method-wrapper '__setattr__' of exceptions.NameError object>"
p14
sS'__reduce_ex__'
p15
S'<built-in method __reduce_ex__ of exceptions.NameError object>'
p16
sS'__getslice__'
p17
S"<method-wrapper '__getslice__' of exceptions.NameError object>"
p18
sS'__getitem__'
p19
S"<method-wrapper '__getitem__' of exceptions.NameError object>"
p20
sS'__setstate__'
p21
S'<built-in method __setstate__ of exceptions.NameError object>'
p22
sS'__reduce__'
p23
S'<built-in method __reduce__ of exceptions.NameError object>'
p24
sS'__str__'
p25
S"<method-wrapper '__str__' of exceptions.NameError object>"
p26
sS'__format__'
p27
S'<built-in method __format__ of exceptions.NameError object>'
p28
sS'__getattribute__'
p29
S"<method-wrapper '__getattribute__' of exceptions.NameError object>"
p30
sS'__class__'
p31
S"<type 'exceptions.NameError'>"
p32
sS'__unicode__'
p33
S'<built-in method __unicode__ of exceptions.NameError object>'
p34
sS'__delattr__'
p35
S"<method-wrapper '__delattr__' of exceptions.NameError object>"
p36
sS'__subclasshook__'
p37
S'<built-in method __subclasshook__ of type object>'
p38
sS'__repr__'
p39
S"<method-wrapper '__repr__' of exceptions.NameError object>"
p40
sS'args'
p41
S'("global name \'usuario\' is not defined",)'
p42
sS'__dict__'
p43
S'{}'
p44
sS'__sizeof__'
p45
S'<built-in method __sizeof__ of exceptions.NameError object>'
p46
sS'__doc__'
p47
S"'Name not found globally.'"
p48
sS'__init__'
p49
S"<method-wrapper '__init__' of exceptions.NameError object>"
p50
sS'__new__'
p51
S'<built-in method __new__ of type object>'
p52
ssS'evalue'
p53
S"global name 'usuario' is not defined"
p54
sS'request'
p55
(dp56
S'function'
p57
S"'viewpost'"
p58
sS'body'
p59
S'<cStringIO.StringO object>'
p60
sS'wsgi'
p61
S"<Storage {'start_response': <function <lambda> a...ING': 'gzip,deflate', 'HTTP_KEEP_ALIVE': '300'}}>"
p62
sS'extension'
p63
S"'html'"
p64
sS'vars'
p65
S'<Storage {}>'
p66
sS'cid'
p67
S'None'
p68
sS'url'
p69
S'<gluon.html.XML object>'
p70
sg41
S"['5']"
p71
sS'controller'
p72
S"'default'"
p73
sS'cookies'
p74
S"<SimpleCookie: session_id_admin='127-0-0-1-f2e5b...'127-0-0-1-5dc66841-ff4e-4166-a5cb-65f23e1becc2'>"
p75
sS'application'
p76
S"'blog'"
p77
sS'ajax'
p78
S'False'
p79
sS'client'
p80
S"'127.0.0.1'"
p81
sS'env'
p82
S"<Storage {'http_user_agent': 'Mozilla/5.0 (X11; ... False, 'path_info': '/blog/default/viewpost/5'}>"
p83
sS'raw_args'
p84
S"'5'"
p85
sS'get_vars'
p86
S'<Storage {}>'
p87
sS'folder'
p88
S"'/home/j3nnn1/git/pyj3nnn1/web2py/applications/blog/'"
p89
sS'now'
p90
S'datetime.datetime(2010, 10, 24, 20, 38, 0, 201540)'
p91
sS'post_vars'
p92
S'<Storage {}>'
p93
ssS'frames'
p94
(lp95
(dp96
S'file'
p97
S'/home/j3nnn1/git/pyj3nnn1/web2py/gluon/restricted.py'
p98
sS'dump'
p99
(dp100
S'environment'
p101
S"{'A': <class 'gluon.html.A'>, 'Auth': <class 'gluon.tools.Auth'>, 'B': <class 'gluon.html.B'>, 'BEAUTIFY': <class 'gluon.html.BEAUTIFY'>, 'BODY': <class 'gluon.html.BODY'>, 'BR': <class 'gluon.html.BR'>, 'CENTER': <class 'gluon.html.CENTER'>, 'CLEANUP': <class 'gluon.validators.CLEANUP'>, 'CODE': <class 'gluon.html.CODE'>, 'CRYPT': <class 'gluon.validators.CRYPT'>, ...}"
p102
sS'ccode'
p103
S'<code object <module> at 0x98beec0, file "/home/...plications/blog/controllers/default.py", line 11>'
p104
ssS'lnum'
p105
I188
sS'lines'
p106
(dp107
I192
S'        # XXX Show exception in Wing IDE if running in debugger'
p108
sI183
S'        if type(code) == types.CodeType:'
p109
sI184
S'            ccode = code'
p110
sI185
S'        else:'
p111
sI186
S'            ccode = compile2(code,layer)'
p112
sI187
S''
sI188
S'        exec ccode in environment'
p113
sI189
S'    except HTTP:'
p114
sI190
S'        raise'
p115
sI191
S'    except Exception:'
p116
ssS'call'
p117
S"(code='# -*- coding: utf-8 -*- \\n\\n######################...ice()\\n\\nresponse._vars=response._caller(viewpost)\\n', environment={'A': <class 'gluon.html.A'>, 'Auth': <class 'gluon.tools.Auth'>, 'B': <class 'gluon.html.B'>, 'BEAUTIFY': <class 'gluon.html.BEAUTIFY'>, 'BODY': <class 'gluon.html.BODY'>, 'BR': <class 'gluon.html.BR'>, 'CENTER': <class 'gluon.html.CENTER'>, 'CLEANUP': <class 'gluon.validators.CLEANUP'>, 'CODE': <class 'gluon.html.CODE'>, 'CRYPT': <class 'gluon.validators.CRYPT'>, ...}, layer='/home/j3nnn1/git/pyj3nnn1/web2py/applications/blog/controllers/default.py')"
p118
sS'func'
p119
S'restricted'
p120
sa(dp121
g97
S'/home/j3nnn1/git/pyj3nnn1/web2py/applications/blog/controllers/default.py'
p122
sg99
(dp123
sg105
I75
sg106
(dp124
I64
S''
sI65
S'def call():'
p125
sI66
S'    """'
p126
sI67
S'    exposes services. for example:'
p127
sI68
S'    http://..../[app]/default/call/jsonrpc'
p128
sI69
S'    decorate with @services.jsonrpc the functions to expose'
p129
sI70
S'    supports xml, json, xmlrpc, jsonrpc, amfrpc, rss, csv'
p130
sI71
S'    """'
p131
sI72
S'    session.forget()'
p132
sI73
S'    return service()'
p133
ssg117
S'()'
p134
sg119
S'<module>'
p135
sa(dp136
g97
S'/home/j3nnn1/git/pyj3nnn1/web2py/gluon/globals.py'
p137
sg99
(dp138
S'self'
p139
S'undefined'
p140
sS'f'
S'<function viewpost>'
p141
ssg105
I96
sg106
(dp142
I96
S'        self._caller = lambda f: f()'
p143
sI97
S'        self._view_environment = None'
p144
sI98
S'        self._custom_commit = None'
p145
sI99
S'        self._custom_rollback = None'
p146
sI100
S''
sI91
S"        self.flash = ''           # used by the default view layout"
p147
sI92
S'        self.meta = Storage()     # used by web2py_ajax.html'
p148
sI93
S'        self.menu = []            # used by the default view layout'
p149
sI94
S'        self.files = []           # used by web2py_ajax.html'
p150
sI95
S'        self._vars = None'
p151
ssg117
S'(f=<function viewpost>)'
p152
sg119
S'<lambda>'
p153
sa(dp154
g97
S'/home/j3nnn1/git/pyj3nnn1/web2py/applications/blog/controllers/default.py'
p155
sg99
(dp156
S'usuario'
p157
g140
sS'db.articulos.ALL'
p158
S'<gluon.sql.SQLALL object>'
p159
sS'db.articulos'
p160
S"<Table {'ALL': <gluon.sql.SQLALL object at 0x9a1...c>, 'id': <gluon.sql.Field object at 0x9a1116c>}>"
p161
sS'campos'
p162
g140
sS'db.usuarios'
p163
S"<Table {'correo': <gluon.sql.Field object at 0x9...c>, 'id': <gluon.sql.Field object at 0x98538cc>}>"
p164
sS'global db'
p165
S"<SQLDB {'auth_event': <Table {'origin': <gluon.s..., 'id': <gluon.sql.Field object at 0x9a110cc>}>}>"
p166
ssg105
I27
sg106
(dp167
I22
S'    """ Informaci\xc3\xb3n sobre mi persona"""'
p168
sI23
S'    return dict()'
p169
sI24
S''
sI25
S'def viewpost():'
p170
sI26
S'    filtro      = (db.articulos.id==request.args(0))&(db.articulos.id_usuario==db.usuarios.id)'
p171
sI27
S'    campos      = (db.articulos.ALL, db.usuarios-usuario)'
p172
sI28
S'    #post        = db(filtro).select(db.articulos.ALL, db.usuarios.usuario).first()'
p173
sI29
S'    post        = db(filtro).select(campos).first()'
p174
sI30
S'    form        = SQLFORM(db.comentarios)'
p175
sI31
S'    form.vars.id_articulo = post.articulos.id'
p176
ssg117
S'()'
p177
sg119
S'viewpost'
p178
sasS'pyver'
p179
S'Python 2.6.6: /usr/bin/python'
p180
sS'session'
p181
(dp182
S'_formkey[comentarios_create]'
p183
S"'5cfc1c3e-2e19-4fe7-96e6-2a7cace526e3'"
p184
sS'auth'
p185
S'None'
p186
ssS'etype'
p187
S"<type 'exceptions.NameError'>"
p188
sS'date'
p189
S'Sun Oct 24 20:38:01 2010'
p190
sS'response'
p191
(dp192
S'status'
p193
S'200'
p194
sg59
S'<cStringIO.StringO object>'
p195
sg74
S"<SimpleCookie: session_id_blog='127-0-0-1-5dc66841-ff4e-4166-a5cb-65f23e1becc2'>"
p196
sS'_vars'
p197
S'None'
p198
sS'title'
p199
S"'blog'"
p200
sS'session_file'
p201
S"<open file '/home/j3nnn1/git/pyj3nnn1/web2py/app...dc66841-ff4e-4166-a5cb-65f23e1becc2', mode 'rb+'>"
p202
sS'flash'
p203
S"''"
p204
sS'_custom_rollback'
p205
S'None'
p206
sS'session_id'
p207
S"'127-0-0-1-5dc66841-ff4e-4166-a5cb-65f23e1becc2'"
p208
sS'headers'
p209
S"<Storage {'Expires': 'lun, 25 oct 2010 01:08:00 ...he, must-revalidate, post-check=0, pre-check=0'}>"
p210
sS'meta'
p211
S"<Storage {'keywords': 'j3nnn1 web2py python', 'd...con web2py... ', 'author': 'Jennifer Maldonado'}>"
p212
sS'session_filename'
p213
S"'/home/j3nnn1/git/pyj3nnn1/web2py/applications/bl...ns/127-0-0-1-5dc66841-ff4e-4166-a5cb-65f23e1becc2'"
p214
sS'postprocessing'
p215
S'[]'
p216
sS'menu'
p217
S"[(<lazyT 'Index'>, False, <gluon.html.XML object>, []), (<lazyT 'About'>, False, <gluon.html.XML object>, []), (<lazyT 'Edit'>, False, <gluon.html.XML object>, [(<lazyT 'Controller'>, False, <gluon.html.XML object>), (<lazyT 'View'>, False, <gluon.html.XML object>), (<lazyT 'Layout'>, False, <gluon.html.XML object>), (<lazyT 'Stylesheet'>, False, <gluon.html.XML object>), (<lazyT 'DB Model'>, False, <gluon.html.XML object>), (<lazyT 'Menu Model'>, False, <gluon.html.XML object>), (<lazyT 'Database'>, False, <gluon.html.XML object>)])]"
p218
sS'_view_environment'
p219
S"{'A': <class 'gluon.html.A'>, 'Auth': <class 'gluon.tools.Auth'>, 'B': <class 'gluon.html.B'>, 'BEAUTIFY': <class 'gluon.html.BEAUTIFY'>, 'BODY': <class 'gluon.html.BODY'>, 'BR': <class 'gluon.html.BR'>, 'CENTER': <class 'gluon.html.CENTER'>, 'CLEANUP': <class 'gluon.validators.CLEANUP'>, 'CODE': <class 'gluon.html.CODE'>, 'CRYPT': <class 'gluon.validators.CRYPT'>, ...}"
p220
sS'subtitle'
p221
S'<lazyT "it\'s me j3nnn1">'
p222
sS'session_id_name'
p223
S"'session_id_blog'"
p224
sS'_custom_commit'
p225
S'None'
p226
sS'_caller'
p227
S'<function <lambda>>'
p228
sS'files'
p229
S'[]'
p230
sS'view'
p231
S"'default/viewpost.html'"
p232
ssS'locals'
p233
(dp234
S'filtro'
p235
S'<gluon.sql.Query object>'
p236
sssS'traceback'
p237
S'Traceback (most recent call last):\n  File "/home/j3nnn1/git/pyj3nnn1/web2py/gluon/restricted.py", line 188, in restricted\n    exec ccode in environment\n  File "/home/j3nnn1/git/pyj3nnn1/web2py/applications/blog/controllers/default.py", line 75, in <module>\n  File "/home/j3nnn1/git/pyj3nnn1/web2py/gluon/globals.py", line 96, in <lambda>\n    self._caller = lambda f: f()\n  File "/home/j3nnn1/git/pyj3nnn1/web2py/applications/blog/controllers/default.py", line 27, in viewpost\n    campos      = (db.articulos.ALL, db.usuarios-usuario)\nNameError: global name \'usuario\' is not defined\n'
p238
s.