(dp1
S'output'
p2
S''
sS'layer'
p3
S'/home/j3nnn1/git/pyj3nnn1/web2py/applications/blog/controllers/default.py'
p4
sS'code'
p5
S'# -*- coding: utf-8 -*- \n\n#########################################################################\n## This is a samples controller\n## - index is the default action of any application\n## - user is required for authentication and authorization\n## - download is for downloading files uploaded in the db (does streaming)\n## - call exposes all registered services (none by default)\n#########################################################################  \n\ndef index():\n    """\n    Esta vista va a obtener 3 post\n    """\n    # filter to join.\n    #filtro = (db.articulos.id_usuario==db.usuarios.id)\n    #post = db(filtro).select(db.articulos.id, db.articulos.titulo, db.articulos.fecha, db.articulos.articulo, db.usuarios.usuario,limitby=(0,3),orderby=~db.articulos.fecha)\n    #return dict(post=post)\n    filtro = (db.articulos.id_usuario==db.usuarios.id)\n    perpage = 3                  # Numero de articulos por pagina\n    totalposts = db(db.articulos.id > 0).count() # contamos cuantos posts hay en la bd\n    totalpages = totalposts / perpage        # division para sacar el numero de paginas\n                  \n    page = int(request.vars.page) if request.vars.page else 1\n    limit = int(page - 1) * perpage\n                         \n    if totalposts > perpage and totalpages == 1 and totalpages * perpage != totalposts:\n        totalpages = 2\n                                                        \n    post = db(filtro).select(db.articulos.ALL, db.usuarios.usuario,limitby=(limit,page*perpage),orderby=~db.articulos.fecha)\n\n    return dict(post=post,totalpages=totalpages,postpage=page)\n\ndef about():\n    """ Informaci\xc3\xb3n sobre mi persona"""\n    return dict()\n\ndef viewpost():\n    filtro      = (db.articulos.id==request.args(0))&(db.articulos.id_usuario==db.usuarios.id)\n    post        = db(filtro).select(db.articulos.ALL, db.usuarios.usuario).first()\n    form        = SQLFORM(db.comentarios)\n    form.vars.id_articulo = post.articulos.id\n\n    comments    = db(db.comentarios.id_articulo==post.articulos.id).select() or "Este Post no posee comentarios"\n\n    if form.accepts(request.vars, session):\n       response.flash =\'Tu comentario ha sido publicado\'\n\n    return dict(post=post, form=form, comments=comments)\n\ndef user():\n    """\n    exposes:\n    http://..../[app]/default/user/login \n    http://..../[app]/default/user/logout\n    http://..../[app]/default/user/register\n    http://..../[app]/default/user/profile\n    http://..../[app]/default/user/retrieve_password\n    http://..../[app]/default/user/change_password\n    use @auth.requires_login()\n        @auth.requires_membership(\'group name\')\n        @auth.requires_permission(\'read\',\'table name\',record_id)\n    to decorate functions that need access control\n    """\n    return dict(form=auth())\n\n\ndef download():\n    """\n    allows downloading of uploaded files\n    http://..../[app]/default/download/[filename]\n    """\n    return response.download(request,db)\n\n\ndef call():\n    """\n    exposes services. for example:\n    http://..../[app]/default/call/jsonrpc\n    decorate with @services.jsonrpc the functions to expose\n    supports xml, json, xmlrpc, jsonrpc, amfrpc, rss, csv\n    """\n    session.forget()\n    return service()\n\nresponse._vars=response._caller(viewpost)\n'
p6
sS'snapshot'
p7
(dp8
S'exception'
p9
(dp10
S'__hash__'
p11
S"<method-wrapper '__hash__' of exceptions.AttributeError object>"
p12
sS'__setattr__'
p13
S"<method-wrapper '__setattr__' of exceptions.AttributeError object>"
p14
sS'__reduce_ex__'
p15
S'<built-in method __reduce_ex__ of exceptions.AttributeError object>'
p16
sS'__getslice__'
p17
S"<method-wrapper '__getslice__' of exceptions.AttributeError object>"
p18
sS'__getitem__'
p19
S"<method-wrapper '__getitem__' of exceptions.AttributeError object>"
p20
sS'__setstate__'
p21
S'<built-in method __setstate__ of exceptions.AttributeError object>'
p22
sS'__reduce__'
p23
S'<built-in method __reduce__ of exceptions.AttributeError object>'
p24
sS'__str__'
p25
S"<method-wrapper '__str__' of exceptions.AttributeError object>"
p26
sS'__format__'
p27
S'<built-in method __format__ of exceptions.AttributeError object>'
p28
sS'__getattribute__'
p29
S"<method-wrapper '__getattribute__' of exceptions.AttributeError object>"
p30
sS'__class__'
p31
S"<type 'exceptions.AttributeError'>"
p32
sS'__unicode__'
p33
S'<built-in method __unicode__ of exceptions.AttributeError object>'
p34
sS'__delattr__'
p35
S"<method-wrapper '__delattr__' of exceptions.AttributeError object>"
p36
sS'__subclasshook__'
p37
S'<built-in method __subclasshook__ of type object>'
p38
sS'__repr__'
p39
S"<method-wrapper '__repr__' of exceptions.AttributeError object>"
p40
sS'args'
p41
S'("\'NoneType\' object has no attribute \'articulos\'",)'
p42
sS'__dict__'
p43
S'{}'
p44
sS'__sizeof__'
p45
S'<built-in method __sizeof__ of exceptions.AttributeError object>'
p46
sS'__doc__'
p47
S"'Attribute not found.'"
p48
sS'__init__'
p49
S"<method-wrapper '__init__' of exceptions.AttributeError object>"
p50
sS'__new__'
p51
S'<built-in method __new__ of type object>'
p52
ssS'evalue'
p53
S"'NoneType' object has no attribute 'articulos'"
p54
sS'request'
p55
(dp56
S'function'
p57
S"'viewpost'"
p58
sS'body'
p59
S'<cStringIO.StringO object>'
p60
sS'wsgi'
p61
S"<Storage {'start_response': <function <lambda> a...ING': 'gzip,deflate', 'HTTP_KEEP_ALIVE': '300'}}>"
p62
sS'extension'
p63
S"'html'"
p64
sS'vars'
p65
S'<Storage {}>'
p66
sS'cid'
p67
S'None'
p68
sS'url'
p69
S'<gluon.html.XML object>'
p70
sg41
S'[]'
p71
sS'controller'
p72
S"'default'"
p73
sS'cookies'
p74
S"<SimpleCookie: session_id_admin='127-0-0-1-f2e5b...'127-0-0-1-5dc66841-ff4e-4166-a5cb-65f23e1becc2'>"
p75
sS'application'
p76
S"'blog'"
p77
sS'ajax'
p78
S'False'
p79
sS'client'
p80
S"'127.0.0.1'"
p81
sS'env'
p82
S"<Storage {'http_user_agent': 'Mozilla/5.0 (X11; ...: False, 'path_info': '/blog/default/viewpost/'}>"
p83
sS'raw_args'
p84
S'None'
p85
sS'get_vars'
p86
S'<Storage {}>'
p87
sS'folder'
p88
S"'/home/j3nnn1/git/pyj3nnn1/web2py/applications/blog/'"
p89
sS'now'
p90
S'datetime.datetime(2010, 10, 24, 21, 1, 1, 212543)'
p91
sS'post_vars'
p92
S'<Storage {}>'
p93
ssS'frames'
p94
(lp95
(dp96
S'file'
p97
S'/home/j3nnn1/git/pyj3nnn1/web2py/gluon/restricted.py'
p98
sS'dump'
p99
(dp100
S'environment'
p101
S"{'A': <class 'gluon.html.A'>, 'Auth': <class 'gluon.tools.Auth'>, 'B': <class 'gluon.html.B'>, 'BEAUTIFY': <class 'gluon.html.BEAUTIFY'>, 'BODY': <class 'gluon.html.BODY'>, 'BR': <class 'gluon.html.BR'>, 'CENTER': <class 'gluon.html.CENTER'>, 'CLEANUP': <class 'gluon.validators.CLEANUP'>, 'CODE': <class 'gluon.html.CODE'>, 'CRYPT': <class 'gluon.validators.CRYPT'>, ...}"
p102
sS'ccode'
p103
S'<code object <module> at 0x96a6de8, file "/home/...plications/blog/controllers/default.py", line 11>'
p104
ssS'lnum'
p105
I188
sS'lines'
p106
(dp107
I192
S'        # XXX Show exception in Wing IDE if running in debugger'
p108
sI183
S'        if type(code) == types.CodeType:'
p109
sI184
S'            ccode = code'
p110
sI185
S'        else:'
p111
sI186
S'            ccode = compile2(code,layer)'
p112
sI187
S''
sI188
S'        exec ccode in environment'
p113
sI189
S'    except HTTP:'
p114
sI190
S'        raise'
p115
sI191
S'    except Exception:'
p116
ssS'call'
p117
S"(code='# -*- coding: utf-8 -*- \\n\\n######################...ice()\\n\\nresponse._vars=response._caller(viewpost)\\n', environment={'A': <class 'gluon.html.A'>, 'Auth': <class 'gluon.tools.Auth'>, 'B': <class 'gluon.html.B'>, 'BEAUTIFY': <class 'gluon.html.BEAUTIFY'>, 'BODY': <class 'gluon.html.BODY'>, 'BR': <class 'gluon.html.BR'>, 'CENTER': <class 'gluon.html.CENTER'>, 'CLEANUP': <class 'gluon.validators.CLEANUP'>, 'CODE': <class 'gluon.html.CODE'>, 'CRYPT': <class 'gluon.validators.CRYPT'>, ...}, layer='/home/j3nnn1/git/pyj3nnn1/web2py/applications/blog/controllers/default.py')"
p118
sS'func'
p119
S'restricted'
p120
sa(dp121
g97
S'/home/j3nnn1/git/pyj3nnn1/web2py/applications/blog/controllers/default.py'
p122
sg99
(dp123
sg105
I86
sg106
(dp124
I75
S''
sI76
S'def call():'
p125
sI77
S'    """'
p126
sI78
S'    exposes services. for example:'
p127
sI79
S'    http://..../[app]/default/call/jsonrpc'
p128
sI80
S'    decorate with @services.jsonrpc the functions to expose'
p129
sI81
S'    supports xml, json, xmlrpc, jsonrpc, amfrpc, rss, csv'
p130
sI82
S'    """'
p131
sI83
S'    session.forget()'
p132
sI84
S'    return service()'
p133
ssg117
S'()'
p134
sg119
S'<module>'
p135
sa(dp136
g97
S'/home/j3nnn1/git/pyj3nnn1/web2py/gluon/globals.py'
p137
sg99
(dp138
S'self'
p139
S'undefined'
p140
sS'f'
S'<function viewpost>'
p141
ssg105
I96
sg106
(dp142
I96
S'        self._caller = lambda f: f()'
p143
sI97
S'        self._view_environment = None'
p144
sI98
S'        self._custom_commit = None'
p145
sI99
S'        self._custom_rollback = None'
p146
sI100
S''
sI91
S"        self.flash = ''           # used by the default view layout"
p147
sI92
S'        self.meta = Storage()     # used by web2py_ajax.html'
p148
sI93
S'        self.menu = []            # used by the default view layout'
p149
sI94
S'        self.files = []           # used by web2py_ajax.html'
p150
sI95
S'        self._vars = None'
p151
ssg117
S'(f=<function viewpost>)'
p152
sg119
S'<lambda>'
p153
sa(dp154
g97
S'/home/j3nnn1/git/pyj3nnn1/web2py/applications/blog/controllers/default.py'
p155
sg99
(dp156
S'post.articulos'
p157
g140
sS'post'
p158
S'None'
p159
sS'form.vars'
p160
S'<Storage {}>'
p161
sS'form.vars.id_articulo'
p162
S'None'
p163
sS'form'
p164
S'<gluon.sqlhtml.SQLFORM object>'
p165
ssg105
I42
sg106
(dp166
I37
S''
sI38
S'def viewpost():'
p167
sI39
S'    filtro      = (db.articulos.id==request.args(0))&(db.articulos.id_usuario==db.usuarios.id)'
p168
sI40
S'    post        = db(filtro).select(db.articulos.ALL, db.usuarios.usuario).first()'
p169
sI41
S'    form        = SQLFORM(db.comentarios)'
p170
sI42
S'    form.vars.id_articulo = post.articulos.id'
p171
sI43
S''
sI44
S'    comments    = db(db.comentarios.id_articulo==post.articulos.id).select() or "Este Post no posee comentarios"'
p172
sI45
S''
sI46
S'    if form.accepts(request.vars, session):'
p173
ssg117
S'()'
p174
sg119
S'viewpost'
p175
sasS'pyver'
p176
S'Python 2.6.6: /usr/bin/python'
p177
sS'session'
p178
(dp179
S'_formkey[comentarios_create]'
p180
S"'8ebaa86e-0532-4026-8f09-f4188d314ca6'"
p181
sS'auth'
p182
S'None'
p183
ssS'etype'
p184
S"<type 'exceptions.AttributeError'>"
p185
sS'date'
p186
S'Sun Oct 24 21:01:03 2010'
p187
sS'response'
p188
(dp189
S'status'
p190
S'200'
p191
sg59
S'<cStringIO.StringO object>'
p192
sg74
S"<SimpleCookie: session_id_blog='127-0-0-1-5dc66841-ff4e-4166-a5cb-65f23e1becc2'>"
p193
sS'_vars'
p194
S'None'
p195
sS'title'
p196
S"'blog'"
p197
sS'session_file'
p198
S"<open file '/home/j3nnn1/git/pyj3nnn1/web2py/app...dc66841-ff4e-4166-a5cb-65f23e1becc2', mode 'rb+'>"
p199
sS'flash'
p200
S"''"
p201
sS'_custom_rollback'
p202
S'None'
p203
sS'session_id'
p204
S"'127-0-0-1-5dc66841-ff4e-4166-a5cb-65f23e1becc2'"
p205
sS'headers'
p206
S"<Storage {'Expires': 'lun, 25 oct 2010 01:31:01 ...he, must-revalidate, post-check=0, pre-check=0'}>"
p207
sS'meta'
p208
S"<Storage {'keywords': 'j3nnn1 web2py python', 'd...con web2py... ', 'author': 'Jennifer Maldonado'}>"
p209
sS'session_filename'
p210
S"'/home/j3nnn1/git/pyj3nnn1/web2py/applications/bl...ns/127-0-0-1-5dc66841-ff4e-4166-a5cb-65f23e1becc2'"
p211
sS'postprocessing'
p212
S'[]'
p213
sS'menu'
p214
S"[(<lazyT 'Index'>, False, <gluon.html.XML object>, []), (<lazyT 'About'>, False, <gluon.html.XML object>, []), (<lazyT 'Edit'>, False, <gluon.html.XML object>, [(<lazyT 'Controller'>, False, <gluon.html.XML object>), (<lazyT 'View'>, False, <gluon.html.XML object>), (<lazyT 'Layout'>, False, <gluon.html.XML object>), (<lazyT 'Stylesheet'>, False, <gluon.html.XML object>), (<lazyT 'DB Model'>, False, <gluon.html.XML object>), (<lazyT 'Menu Model'>, False, <gluon.html.XML object>), (<lazyT 'Database'>, False, <gluon.html.XML object>)])]"
p215
sS'_view_environment'
p216
S"{'A': <class 'gluon.html.A'>, 'Auth': <class 'gluon.tools.Auth'>, 'B': <class 'gluon.html.B'>, 'BEAUTIFY': <class 'gluon.html.BEAUTIFY'>, 'BODY': <class 'gluon.html.BODY'>, 'BR': <class 'gluon.html.BR'>, 'CENTER': <class 'gluon.html.CENTER'>, 'CLEANUP': <class 'gluon.validators.CLEANUP'>, 'CODE': <class 'gluon.html.CODE'>, 'CRYPT': <class 'gluon.validators.CRYPT'>, ...}"
p217
sS'subtitle'
p218
S'<lazyT "it\'s me j3nnn1">'
p219
sS'session_id_name'
p220
S"'session_id_blog'"
p221
sS'_custom_commit'
p222
S'None'
p223
sS'_caller'
p224
S'<function <lambda>>'
p225
sS'files'
p226
S'[]'
p227
sS'view'
p228
S"'default/viewpost.html'"
p229
ssS'locals'
p230
(dp231
S'filtro'
p232
S'<gluon.sql.Query object>'
p233
sS'post'
p234
S'None'
p235
sS'form'
p236
S'<gluon.sqlhtml.SQLFORM object>'
p237
sssS'traceback'
p238
S'Traceback (most recent call last):\n  File "/home/j3nnn1/git/pyj3nnn1/web2py/gluon/restricted.py", line 188, in restricted\n    exec ccode in environment\n  File "/home/j3nnn1/git/pyj3nnn1/web2py/applications/blog/controllers/default.py", line 86, in <module>\n  File "/home/j3nnn1/git/pyj3nnn1/web2py/gluon/globals.py", line 96, in <lambda>\n    self._caller = lambda f: f()\n  File "/home/j3nnn1/git/pyj3nnn1/web2py/applications/blog/controllers/default.py", line 42, in viewpost\n    form.vars.id_articulo = post.articulos.id\nAttributeError: \'NoneType\' object has no attribute \'articulos\'\n'
p239
s.