(dp1
S'output'
p2
S''
sS'layer'
p3
S'/home/j3nnn1/git/pyj3nnn1/web2py/applications/blog/models/db.py'
p4
sS'code'
p5
S'# -*- coding: utf-8 -*- \n\n#########################################################################\n## This scaffolding model makes your app work on Google App Engine too\n#########################################################################\n\nif request.env.web2py_runtime_gae:            # if running on Google App Engine\n    db = DAL(\'gae\')                           # connect to Google BigTable\n    session.connect(request, response, db = db) # and store sessions and tickets there\n    ### or use the following lines to store sessions in Memcache\n    # from gluon.contrib.memdb import MEMDB\n    # from google.appengine.api.memcache import Client\n    # session.connect(request, response, db = MEMDB(Client()))\nelse:                                         # else use a normal relational database\n    db = DAL(\'sqlite://storage.sqlite\')       # if not, use SQLite or other DB\n## if no need for session\n# session.forget()\n\n#########################################################################\n## Here is sample code if you need for \n## - email capabilities\n## - authentication (registration, login, logout, ... )\n## - authorization (role based authorization)\n## - services (xml, csv, json, xmlrpc, jsonrpc, amf, rss)\n## - crud actions\n## (more options discussed in gluon/tools.py)\n#########################################################################\n\nfrom gluon.tools import *\nmail = Mail()                                  # mailer\nauth = Auth(globals(),db)                      # authentication/authorization\ncrud = Crud(globals(),db)                      # for CRUD helpers using auth\nservice = Service(globals())                   # for json, xml, jsonrpc, xmlrpc, amfrpc\nplugins = PluginManager()\n\nmail.settings.server = \'logging\' or \'smtp.gmail.com:587\'  # your SMTP server\nmail.settings.sender = \'you@gmail.com\'         # your email\nmail.settings.login = \'username:password\'      # your credentials or None\n\nauth.settings.hmac_key = \'sha512:f3d5ade2-9740-497b-92a8-a0d5169de496\'   # before define_tables()\nauth.define_tables()                           # creates all needed tables\nauth.settings.mailer = mail                    # for user email verification\nauth.settings.registration_requires_verification = False\nauth.settings.registration_requires_approval = False\nauth.messages.verify_email = \'Click on the link http://\'+request.env.http_host+URL(r=request,c=\'default\',f=\'user\',args=[\'verify_email\'])+\'/%(key)s to verify your email\'\nauth.settings.reset_password_requires_verification = True\nauth.messages.reset_password = \'Click on the link http://\'+request.env.http_host+URL(r=request,c=\'default\',f=\'user\',args=[\'reset_password\'])+\'/%(key)s to reset your password\'\n\n#########################################################################\n## If you need to use OpenID, Facebook, MySpace, Twitter, Linkedin, etc.\n## register with janrain.com, uncomment and customize following\n# from gluon.contrib.login_methods.rpx_account import RPXAccount\n# auth.settings.actions_disabled=[\'register\',\'change_password\',\'request_reset_password\']\n# auth.settings.login_form = RPXAccount(request, api_key=\'...\',domain=\'...\',\n#    url = "http://localhost:8000/%s/default/user/login" % request.application)\n## other login methods are in gluon/contrib/login_methods\n#########################################################################\n\ncrud.settings.auth = None                      # =auth to enforce authorization on crud\n\n#########################################################################\n## Define your tables below (or better in another model file) for example\n##\n## >>> db.define_table(\'mytable\',Field(\'myfield\',\'string\'))\n##\n## Fields can be \'string\',\'text\',\'password\',\'integer\',\'double\',\'boolean\'\n##       \'date\',\'time\',\'datetime\',\'blob\',\'upload\', \'reference TABLENAME\'\n## There is an implicit \'id integer autoincrement\' field\n## Consult manual for more options, validators, etc.\n##\n## More API examples for controllers:\n##\n## >>> db.mytable.insert(myfield=\'value\')\n## >>> rows=db(db.mytable.myfield==\'value\').select(db.mytable.ALL)\n## >>> for row in rows: print row.id, row.myfield\n#########################################################################\n   \ndb.define_table(\'usuarios\',\n        Field(\'usuario\'),\n        Field(\'password\'),\n        Field(\'correo\'),\n        primarykey=[\'usuario\',\'correo\'])\n        \ndb.usuarios.usuario.requires = IS_NOT_IN_DB(db, db.usuarios.usuario)\ndb.usuarios.correo.requires = IS_EMAIL()\ndb.usuarios.correo.requires = IS_NOT_IN_DB(db, db.usuarios.usuario, db.usuarios.correo)\n\ndb.define_table(\'articulos\',\n        Field(\'titulo\',\'string\',length=255),\n        Field(\'articulo\',\'text\'),\n        Field(\'fecha\',\'datetime\'),\n        Field(\'id_usuario\',db.usuarios))\ndb.articulos.titulo.requires = IS_NOT_IN_DB(db, db.articulos.titulo)\n\ndb.define_table(\'comentarios\',\n        Field(\'id_articulo\', db.articulos),\n        Field(\'titulo\'),\n        Field(\'comentario\'),\n        Field(\'nombre\', format=\'%(name)s\'),\n        Field(\'correo\'),\n        Field(\'url\'),\n        Field(\'fecha\',\'datetime\'),\n        Field(\'visible\', \'boolean\'))\n\ndb.comentarios.url.required = False\ndb.comentarios.comentario.requires = IS_NOT_EMPTY()\ndb.comentarios.nombre.requires = IS_NOT_EMPTY()\ndb.comentarios.correo.requires = IS_EMAIL()\n\ndb.define_table(\'etiquetas\',\n        Field(\'nombre\'), format=\'%(name)s\')\ndb.etiquetas.nombre.requires = IS_NOT_EMPTY()\n\ndb.define_table(\'etiquetas_articulos\', \n        Field(\'id_etiqueta\',db.etiquetas),      \n        Field(\'id_articulo\',db.articulos))\n'
p6
sS'snapshot'
p7
(dp8
S'exception'
p9
(dp10
S'__hash__'
p11
S"<method-wrapper '__hash__' of exceptions.TypeError object>"
p12
sS'__setattr__'
p13
S"<method-wrapper '__setattr__' of exceptions.TypeError object>"
p14
sS'__reduce_ex__'
p15
S'<built-in method __reduce_ex__ of exceptions.TypeError object>'
p16
sS'__getslice__'
p17
S"<method-wrapper '__getslice__' of exceptions.TypeError object>"
p18
sS'__getitem__'
p19
S"<method-wrapper '__getitem__' of exceptions.TypeError object>"
p20
sS'__setstate__'
p21
S'<built-in method __setstate__ of exceptions.TypeError object>'
p22
sS'__reduce__'
p23
S'<built-in method __reduce__ of exceptions.TypeError object>'
p24
sS'__str__'
p25
S"<method-wrapper '__str__' of exceptions.TypeError object>"
p26
sS'__format__'
p27
S'<built-in method __format__ of exceptions.TypeError object>'
p28
sS'__getattribute__'
p29
S"<method-wrapper '__getattribute__' of exceptions.TypeError object>"
p30
sS'__class__'
p31
S"<type 'exceptions.TypeError'>"
p32
sS'__unicode__'
p33
S'<built-in method __unicode__ of exceptions.TypeError object>'
p34
sS'__delattr__'
p35
S"<method-wrapper '__delattr__' of exceptions.TypeError object>"
p36
sS'__subclasshook__'
p37
S'<built-in method __subclasshook__ of type object>'
p38
sS'__repr__'
p39
S"<method-wrapper '__repr__' of exceptions.TypeError object>"
p40
sS'args'
p41
S'("__init__() got an unexpected keyword argument \'format\'",)'
p42
sS'__dict__'
p43
S'{}'
p44
sS'__sizeof__'
p45
S'<built-in method __sizeof__ of exceptions.TypeError object>'
p46
sS'__doc__'
p47
S"'Inappropriate argument type.'"
p48
sS'__init__'
p49
S"<method-wrapper '__init__' of exceptions.TypeError object>"
p50
sS'__new__'
p51
S'<built-in method __new__ of type object>'
p52
ssS'evalue'
p53
S"__init__() got an unexpected keyword argument 'format'"
p54
sS'request'
p55
(dp56
S'function'
p57
S"'index'"
p58
sS'body'
p59
S'<cStringIO.StringO object>'
p60
sS'wsgi'
p61
S"<Storage {'start_response': <function <lambda> a...>, 'HTTP_ACCEPT_ENCODING': 'gzip,deflate,sdch'}}>"
p62
sS'extension'
p63
S"'html'"
p64
sS'vars'
p65
S'<Storage {}>'
p66
sS'cid'
p67
S'None'
p68
sS'url'
p69
S'<gluon.html.XML object>'
p70
sg41
S'[]'
p71
sS'controller'
p72
S"'appadmin'"
p73
sS'cookies'
p74
S"<SimpleCookie: session_id_admin='127-0-0-1-30657...'127-0-0-1-f66a923b-35d4-4221-bb69-65adf56edca3'>"
p75
sS'application'
p76
S"'blog'"
p77
sS'ajax'
p78
S'False'
p79
sS'client'
p80
S"'127.0.0.1'"
p81
sS'env'
p82
S"<Storage {'http_user_agent': 'Mozilla/5.0 (X11; ...ce': False, 'path_info': '/blog/appadmin/index'}>"
p83
sS'raw_args'
p84
S'None'
p85
sS'get_vars'
p86
S'<Storage {}>'
p87
sS'folder'
p88
S"'/home/j3nnn1/git/pyj3nnn1/web2py/applications/blog/'"
p89
sS'now'
p90
S'datetime.datetime(2010, 10, 24, 0, 44, 21, 239633)'
p91
sS'post_vars'
p92
S'<Storage {}>'
p93
ssS'frames'
p94
(lp95
(dp96
S'file'
p97
S'/home/j3nnn1/git/pyj3nnn1/web2py/gluon/restricted.py'
p98
sS'dump'
p99
(dp100
S'environment'
p101
S"{'A': <class 'gluon.html.A'>, 'Auth': <class 'gluon.tools.Auth'>, 'B': <class 'gluon.html.B'>, 'BEAUTIFY': <class 'gluon.html.BEAUTIFY'>, 'BODY': <class 'gluon.html.BODY'>, 'BR': <class 'gluon.html.BR'>, 'CENTER': <class 'gluon.html.CENTER'>, 'CLEANUP': <class 'gluon.validators.CLEANUP'>, 'CODE': <class 'gluon.html.CODE'>, 'CRYPT': <class 'gluon.validators.CRYPT'>, ...}"
p102
sS'ccode'
p103
S'<code object <module> at 0xa1a8b18, file "/home/...1/web2py/applications/blog/models/db.py", line 7>'
p104
ssS'lnum'
p105
I188
sS'lines'
p106
(dp107
I192
S'        # XXX Show exception in Wing IDE if running in debugger'
p108
sI183
S'        if type(code) == types.CodeType:'
p109
sI184
S'            ccode = code'
p110
sI185
S'        else:'
p111
sI186
S'            ccode = compile2(code,layer)'
p112
sI187
S''
sI188
S'        exec ccode in environment'
p113
sI189
S'    except HTTP:'
p114
sI190
S'        raise'
p115
sI191
S'    except Exception:'
p116
ssS'call'
p117
S'(code="# -*- coding: utf-8 -*- \\n\\n######################...     \\n        Field(\'id_articulo\',db.articulos))\\n", environment={\'A\': <class \'gluon.html.A\'>, \'Auth\': <class \'gluon.tools.Auth\'>, \'B\': <class \'gluon.html.B\'>, \'BEAUTIFY\': <class \'gluon.html.BEAUTIFY\'>, \'BODY\': <class \'gluon.html.BODY\'>, \'BR\': <class \'gluon.html.BR\'>, \'CENTER\': <class \'gluon.html.CENTER\'>, \'CLEANUP\': <class \'gluon.validators.CLEANUP\'>, \'CODE\': <class \'gluon.html.CODE\'>, \'CRYPT\': <class \'gluon.validators.CRYPT\'>, ...}, layer=\'/home/j3nnn1/git/pyj3nnn1/web2py/applications/blog/models/db.py\')'
p118
sS'func'
p119
S'restricted'
p120
sa(dp121
g97
S'/home/j3nnn1/git/pyj3nnn1/web2py/applications/blog/models/db.py'
p122
sg99
(dp123
S'Field'
p124
S"<class 'gluon.sql.Field'>"
p125
sS'builtinformat'
p126
S'<built-in function format>'
p127
ssg105
I99
sg106
(dp128
I96
S"        Field('id_articulo', db.articulos),"
p129
sI97
S"        Field('titulo'),"
p130
sI98
S"        Field('comentario'),"
p131
sI99
S"        Field('nombre', format='%(name)s'),"
p132
sI100
S"        Field('correo'),"
p133
sI101
S"        Field('url'),"
p134
sI102
S"        Field('fecha','datetime'),"
p135
sI103
S"        Field('visible', 'boolean'))"
p136
sI94
S''
sI95
S"db.define_table('comentarios',"
p137
ssg117
S'()'
p138
sg119
S'<module>'
p139
sasS'pyver'
p140
S'Python 2.6.6: /usr/bin/python'
p141
sS'session'
p142
(dp143
S'auth'
p144
S'None'
p145
ssS'etype'
p146
S"<type 'exceptions.TypeError'>"
p147
sS'date'
p148
S'Sun Oct 24 00:44:21 2010'
p149
sS'response'
p150
(dp151
S'status'
p152
S'200'
p153
sg59
S'<cStringIO.StringO object>'
p154
sg74
S"<SimpleCookie: session_id_blog='127-0-0-1-c9e49980-0272-480c-b712-192f1f1b4547'>"
p155
sS'_vars'
p156
S'None'
p157
sS'session_file'
p158
S"<open file '/home/j3nnn1/git/pyj3nnn1/web2py/app...9e49980-0272-480c-b712-192f1f1b4547', mode 'rb+'>"
p159
sS'flash'
p160
S"''"
p161
sS'_custom_rollback'
p162
S'None'
p163
sS'session_id'
p164
S"'127-0-0-1-c9e49980-0272-480c-b712-192f1f1b4547'"
p165
sS'headers'
p166
S"<Storage {'Expires': 'dom, 24 oct 2010 05:14:21 ...he, must-revalidate, post-check=0, pre-check=0'}>"
p167
sS'meta'
p168
S'<Storage {}>'
p169
sS'session_filename'
p170
S"'/home/j3nnn1/git/pyj3nnn1/web2py/applications/bl...ns/127-0-0-1-c9e49980-0272-480c-b712-192f1f1b4547'"
p171
sS'postprocessing'
p172
S'[]'
p173
sS'menu'
p174
S'[]'
p175
sS'_view_environment'
p176
S"{'A': <class 'gluon.html.A'>, 'B': <class 'gluon.html.B'>, 'BEAUTIFY': <class 'gluon.html.BEAUTIFY'>, 'BODY': <class 'gluon.html.BODY'>, 'BR': <class 'gluon.html.BR'>, 'CENTER': <class 'gluon.html.CENTER'>, 'CLEANUP': <class 'gluon.validators.CLEANUP'>, 'CODE': <class 'gluon.html.CODE'>, 'CRYPT': <class 'gluon.validators.CRYPT'>, 'DAL': <function DAL>, ...}"
p177
sS'session_id_name'
p178
S"'session_id_blog'"
p179
sS'_custom_commit'
p180
S'None'
p181
sS'_caller'
p182
S'<function <lambda>>'
p183
sS'files'
p184
S'[]'
p185
sS'view'
p186
S"'appadmin/index.html'"
p187
ssS'locals'
p188
(dp189
S'Service'
p190
S'<class gluon.tools.Service>'
p191
sS'OBJECT'
p192
S"<class 'gluon.html.OBJECT'>"
p193
sS'SQLDB'
p194
S"<class 'gluon.sql.SQLDB'>"
p195
sg142
S"<Storage {'auth': None}>"
p196
sS'LINK'
p197
S"<class 'gluon.html.LINK'>"
p198
sS'BR'
p199
S"<class 'gluon.html.BR'>"
p200
sS'local_import'
p201
S'<function <lambda>>'
p202
sS'OPTGROUP'
p203
S"<class 'gluon.html.OPTGROUP'>"
p204
sS'PRE'
p205
S"<class 'gluon.html.PRE'>"
p206
sS'IS_INT_IN_RANGE'
p207
S"<class 'gluon.validators.IS_INT_IN_RANGE'>"
p208
sS'IS_LOWER'
p209
S"<class 'gluon.validators.IS_LOWER'>"
p210
sS'IS_STRONG'
p211
S"<class 'gluon.validators.IS_STRONG'>"
p212
sS'Recaptcha'
p213
S"<class 'gluon.tools.Recaptcha'>"
p214
sS'cache'
p215
S'<gluon.cache.Cache object>'
p216
sS'IS_IN_DB'
p217
S"<class 'gluon.validators.IS_IN_DB'>"
p218
sS'TAG'
p219
S'<gluon.html.__TAG__ object>'
p220
sS'SQLField'
p221
S"<class 'gluon.sql.Field'>"
p222
sS'mail'
p223
S'<gluon.tools.Mail object>'
p224
sS'BODY'
p225
S"<class 'gluon.html.BODY'>"
p226
sS'IS_DATE_IN_RANGE'
p227
S"<class 'gluon.validators.IS_DATE_IN_RANGE'>"
p228
sS'IFRAME'
p229
S"<class 'gluon.html.IFRAME'>"
p230
sS'URL'
p231
S'<function _URL>'
p232
sS'db'
p233
S"<SQLDB {'_connection': <pysqlite2.dbapi2.Connect..., 'id': <gluon.sql.Field object at 0xa2f7cac>}>}>"
p234
sS'auth'
p235
S'<gluon.tools.Auth object>'
p236
sS'P'
S"<class 'gluon.html.P'>"
p237
sS'TFOOT'
p238
S"<class 'gluon.html.TFOOT'>"
p239
sS'XHTML'
p240
S"<class 'gluon.html.XHTML'>"
p241
sS'ON'
p242
S'True'
p243
sS'OL'
p244
S"<class 'gluon.html.OL'>"
p245
sS'TEXTAREA'
p246
S"<class 'gluon.html.TEXTAREA'>"
p247
sS'MENU'
p248
S"<class 'gluon.html.MENU'>"
p249
sS'EM'
p250
S"<class 'gluon.html.EM'>"
p251
sS'CODE'
p252
S"<class 'gluon.html.CODE'>"
p253
sS'HTTP'
p254
S"<class 'gluon.http.HTTP'>"
p255
sS'HR'
p256
S"<class 'gluon.html.HR'>"
p257
sS'IS_DATETIME'
p258
S"<class 'gluon.validators.IS_DATETIME'>"
p259
sS'STYLE'
p260
S"<class 'gluon.html.STYLE'>"
p261
sS'LABEL'
p262
S"<class 'gluon.html.LABEL'>"
p263
sS'CLEANUP'
p264
S"<class 'gluon.validators.CLEANUP'>"
p265
sS'plugins'
p266
S'<gluon.tools.PluginManager object>'
p267
sS'SELECT'
p268
S"<class 'gluon.html.SELECT'>"
p269
sS'CENTER'
p270
S"<class 'gluon.html.CENTER'>"
p271
sS'prettydate'
p272
S'<function prettydate>'
p273
sS'Crud'
p274
S"<class 'gluon.tools.Crud'>"
p275
sS'Auth'
p276
S"<class 'gluon.tools.Auth'>"
p277
sS'__builtins__'
p278
S"{'ArithmeticError': <type 'exceptions.ArithmeticError'>, 'AssertionError': <type 'exceptions.AssertionError'>, 'AttributeError': <type 'exceptions.AttributeError'>, 'BaseException': <type 'exceptions.BaseException'>, 'BufferError': <type 'exceptions.BufferError'>, 'BytesWarning': <type 'exceptions.BytesWarning'>, 'DeprecationWarning': <type 'exceptions.DeprecationWarning'>, 'EOFError': <type 'exceptions.EOFError'>, 'Ellipsis': Ellipsis, 'EnvironmentError': <type 'exceptions.EnvironmentError'>, ...}"
p279
sS'IS_LIST_OF'
p280
S"<class 'gluon.validators.IS_LIST_OF'>"
p281
sS'SQLFORM'
p282
S"<class 'gluon.sqlhtml.SQLFORM'>"
p283
sS'LOAD'
p284
S'<gluon.compileapp.LoadFactory instance>'
p285
sS'redirect'
p286
S'<function redirect>'
p287
sS'FIELDSET'
p288
S"<class 'gluon.html.FIELDSET'>"
p289
sS'IS_EQUAL_TO'
p290
S"<class 'gluon.validators.IS_EQUAL_TO'>"
p291
sS'embed64'
p292
S'<function embed64>'
p293
sS'INPUT'
p294
S"<class 'gluon.html.INPUT'>"
p295
sS'EMBED'
p296
S"<class 'gluon.html.EMBED'>"
p297
sS'FORM'
p298
S"<class 'gluon.html.FORM'>"
p299
sS'H2'
p300
S"<class 'gluon.html.H2'>"
p301
sS'H3'
p302
S"<class 'gluon.html.H3'>"
p303
sS'H1'
p304
S"<class 'gluon.html.H1'>"
p305
sS'H6'
p306
S"<class 'gluon.html.H6'>"
p307
sS'H4'
p308
S"<class 'gluon.html.H4'>"
p309
sS'H5'
p310
S"<class 'gluon.html.H5'>"
p311
sS'UL'
p312
S"<class 'gluon.html.UL'>"
p313
sS'IS_UPPER'
p314
S"<class 'gluon.validators.IS_UPPER'>"
p315
sS'xmlescape'
p316
S'<function xmlescape>'
p317
sS'IS_TIME'
p318
S"<class 'gluon.validators.IS_TIME'>"
p319
sS'OPTION'
p320
S"<class 'gluon.html.OPTION'>"
p321
sS'TITLE'
p322
S"<class 'gluon.html.TITLE'>"
p323
sS'CRYPT'
p324
S"<class 'gluon.validators.CRYPT'>"
p325
sS'IS_EMPTY_OR'
p326
S"<class 'gluon.validators.IS_EMPTY_OR'>"
p327
sS'MARKMIN'
p328
S"<class 'gluon.html.MARKMIN'>"
p329
sS'service'
p330
S'<gluon.tools.Service instance>'
p331
sS'SCRIPT'
p332
S"<class 'gluon.html.SCRIPT'>"
p333
sS'geocode'
p334
S'<function geocode>'
p335
sS'TABLE'
p336
S"<class 'gluon.html.TABLE'>"
p337
sS'IS_IPV4'
p338
S"<class 'gluon.validators.IS_IPV4'>"
p339
sS'IS_LENGTH'
p340
S"<class 'gluon.validators.IS_LENGTH'>"
p341
sS'XML'
p342
S"<class 'gluon.html.XML'>"
p343
sS'B'
S"<class 'gluon.html.B'>"
p344
sS'IMG'
p345
S"<class 'gluon.html.IMG'>"
p346
sS'SQLTABLE'
p347
S"<class 'gluon.sqlhtml.SQLTABLE'>"
p348
sS'IS_MATCH'
p349
S"<class 'gluon.validators.IS_MATCH'>"
p350
sS'IS_ALPHANUMERIC'
p351
S"<class 'gluon.validators.IS_ALPHANUMERIC'>"
p352
sS'SPAN'
p353
S"<class 'gluon.html.SPAN'>"
p354
sS'IS_SLUG'
p355
S"<class 'gluon.validators.IS_SLUG'>"
p356
sS'META'
p357
S"<class 'gluon.html.META'>"
p358
sS'fetch'
p359
S'<function fetch>'
p360
sS'IS_DATE'
p361
S"<class 'gluon.validators.IS_DATE'>"
p362
sS'IS_EMAIL'
p363
S"<class 'gluon.validators.IS_EMAIL'>"
p364
sS'IS_NOT_EMPTY'
p365
S"<class 'gluon.validators.IS_NOT_EMPTY'>"
p366
sS'IS_FLOAT_IN_RANGE'
p367
S"<class 'gluon.validators.IS_FLOAT_IN_RANGE'>"
p368
sS'BEAUTIFY'
p369
S"<class 'gluon.html.BEAUTIFY'>"
p370
sS'TBODY'
p371
S"<class 'gluon.html.TBODY'>"
p372
sS'Field'
p373
S"<class 'gluon.sql.Field'>"
p374
sS'Mail'
p375
S"<class 'gluon.tools.Mail'>"
p376
sS'DIV'
p377
S"<class 'gluon.html.DIV'>"
p378
sS'LEGEND'
p379
S"<class 'gluon.html.LEGEND'>"
p380
sS'DAL'
p381
S'<function DAL>'
p382
sS'TT'
p383
S"<class 'gluon.html.TT'>"
p384
sS'TR'
p385
S"<class 'gluon.html.TR'>"
p386
sS'LI'
p387
S"<class 'gluon.html.LI'>"
p388
sS'TH'
p389
S"<class 'gluon.html.TH'>"
p390
sS'TD'
p391
S"<class 'gluon.html.TD'>"
p392
sS'PluginManager'
p393
S"<class 'gluon.tools.PluginManager'>"
p394
sS'IS_URL'
p395
S"<class 'gluon.validators.IS_URL'>"
p396
sS'A'
S"<class 'gluon.html.A'>"
p397
sS'HEAD'
p398
S"<class 'gluon.html.HEAD'>"
p399
sS'IS_DATETIME_IN_RANGE'
p400
S"<class 'gluon.validators.IS_DATETIME_IN_RANGE'>"
p401
sS'HTML'
p402
S"<class 'gluon.html.HTML'>"
p403
sS'IS_IMAGE'
p404
S"<class 'gluon.validators.IS_IMAGE'>"
p405
sS'I'
S"<class 'gluon.html.I'>"
p406
sS'crud'
p407
S'<gluon.tools.Crud object>'
p408
sS'IS_NOT_IN_DB'
p409
S"<class 'gluon.validators.IS_NOT_IN_DB'>"
p410
sg150
S"<Storage {'status': 200, 'body': <cStringIO.Stri...t': None, 'files': [], '_custom_rollback': None}>"
p411
sS'THEAD'
p412
S"<class 'gluon.html.THEAD'>"
p413
sS'IS_NULL_OR'
p414
S"<class 'gluon.validators.IS_EMPTY_OR'>"
p415
sg55
S"<Storage {'function': 'index', 'body': <cStringI..., 0, 44, 21, 239633), 'post_vars': <Storage {}>}>"
p416
sS'IS_EXPR'
p417
S"<class 'gluon.validators.IS_EXPR'>"
p418
sS'IS_IN_SET'
p419
S"<class 'gluon.validators.IS_IN_SET'>"
p420
sS'IS_UPLOAD_FILENAME'
p421
S"<class 'gluon.validators.IS_UPLOAD_FILENAME'>"
p422
sS'IS_DECIMAL_IN_RANGE'
p423
S"<class 'gluon.validators.IS_DECIMAL_IN_RANGE'>"
p424
sS'T'
S'<gluon.languages.translator object>'
p425
sssS'traceback'
p426
S'Traceback (most recent call last):\n  File "/home/j3nnn1/git/pyj3nnn1/web2py/gluon/restricted.py", line 188, in restricted\n    exec ccode in environment\n  File "/home/j3nnn1/git/pyj3nnn1/web2py/applications/blog/models/db.py", line 99, in <module>\n    Field(\'nombre\', format=\'%(name)s\'),\nTypeError: __init__() got an unexpected keyword argument \'format\'\n'
p427
s.