(dp1
S'output'
p2
S''
sS'layer'
p3
S'/home/j3nnn1/git/pyj3nnn1/web2py/applications/blog/views/default/grantcomment.html'
p4
sS'code'
p5
S'response.write(\'<!DOCTYPE html PUBLIC "-//W3C//DTD XHTML 1.0 Strict//EN" "http://www.w3.org/TR/xhtml1/DTD/xhtml1-strict.dtd">\\n<!--\\nDesign by Free CSS Templates\\nhttp://www.freecsstemplates.org\\nReleased for free under a Creative Commons Attribution 2.5 License\\n\\nName       : Blogging\\nDescription: A two-column, fixed-width design for 1024x768 screen resolutions.\\nVersion    : 1.0\\nReleased   : 20090208\\n\\n-->\\n<html xmlns="http://www.w3.org/1999/xhtml">\\n <head>\\n  <title>\\n   \', escape=False)\nresponse.write(response.title or request.application)\nresponse.write(\'\\n  </title>\\n  \', escape=False)\nresponse.files.append(URL(request.application,\'static\',\'plugin_layouts/layouts/Blogging/style.css\'))\nresponse.write(\'\\n\', escape=False)\nresponse.files.append(URL(\'static\',\'superfish.js\'))\nresponse.write(\'\\n  \', escape=False)\nresponse.files.insert(0,URL(r=request,c=\'static\',f=\'jquery.js\'))\nresponse.files.insert(1,URL(r=request,c=\'static\',f=\'calendar.css\'))\nresponse.files.insert(2,URL(r=request,c=\'static\',f=\'calendar.js\'))\nfor _item in response.meta or []:\n    response.write(\'\\n     <meta name="\', escape=False)\n    response.write(_item)\n    response.write(\'" content="\', escape=False)\n    response.write(response.meta[_item])\n    response.write(\'" />\', escape=False)\n    pass\nfor _k,_file in enumerate(response.files or []):\n    if _file in response.files[:_k]:\n        continue\n    elif _file.lower().endswith(\'.css\'):\n        response.write(\'\\n     <link href="\', escape=False)\n        response.write(_file)\n        response.write(\'" rel="stylesheet" type="text/css" />\', escape=False)\n    elif _file.lower().endswith(\'.js\'):\n        response.write(\'\\n     <script src="\', escape=False)\n        response.write(_file)\n        response.write(\'" type="text/javascript"></script>\', escape=False)\n        pass\n    pass\nresponse.write(\'\\n<script type="text/javascript"><!--\\nfunction popup(url) {\\n  newwindow=window.open(url,\\\'name\\\',\\\'height=400,width=600\\\');\\n  if (window.focus) newwindow.focus();\\n  return false;\\n}\\nfunction collapse(id) { jQuery(\\\'#\\\'+id).slideToggle(); }\\nfunction fade(id,value) { if(value>0) jQuery(\\\'#\\\'+id).hide().fadeIn(\\\'slow\\\'); else jQuery(\\\'#\\\'+id).show().fadeOut(\\\'slow\\\'); }\\nfunction ajax(u,s,t) {\\n    query = \\\'\\\';\\n    if (typeof s == "string") {\\n        d = jQuery(s).serialize();\\n        if(d){ query = d; }\\n    } else {\\n        pcs = [];\\n        for(i=0; i<s.length; i++) {\\n            q = jQuery("[name="+s[i]+"]").serialize();\\n            if(q){pcs.push(q);}\\n        }\\n        if (pcs.length>0){query = pcs.join("&");}\\n    }\\n    jQuery.ajax({type: "POST", url: u, data: query, success: function(msg) { if(t) { if(t==\\\':eval\\\') eval(msg); else jQuery("#" + t).html(msg); } } }); \\n}\\nString.prototype.reverse = function () { return this.split(\\\'\\\').reverse().join(\\\'\\\');};\\nfunction web2py_ajax_init() {\\n  jQuery(\\\'.hidden\\\').hide();\\n  jQuery(\\\'.error\\\').hide().slideDown(\\\'slow\\\');\\n  jQuery(\\\'.flash\\\').click(function() { jQuery(this).fadeOut(\\\'slow\\\'); return false; });\\n  jQuery(\\\'input[type=submit]\\\').click(function(){var t=jQuery(this);t.hide();t.after(\\\'<input class="submit_disabled" disabled="disabled" type="submit" name="\\\'+t.attr("name")+\\\'_dummy" value="\\\'+t.val()+\\\'">\\\')});\\n  jQuery(\\\'input.integer\\\').keyup(function(){this.value=this.value.reverse().replace(/[^0-9\\\\-]|\\\\-(?=.)/g,\\\'\\\').reverse();});\\n  jQuery(\\\'input.double,input.decimal\\\').keyup(function(){this.value=this.value.reverse().replace(/[^0-9\\\\-\\\\.]|[\\\\-](?=.)|[\\\\.](?=[0-9]*[\\\\.])/g,\\\'\\\').reverse();});\\n  jQuery("input[type=\\\'checkbox\\\'].delete").each(function(){jQuery(this).click(function() { if(this.checked) if(!confirm("\', escape=False)\nresponse.write(T(\'Sure you want to delete this object?\'))\nresponse.write(\'")) this.checked=false; });});\\n  try {jQuery("input.date").focus( function() {Calendar.setup({\\n     inputField:this.id, ifFormat:"\', escape=False)\nresponse.write(T(\'%Y-%m-%d\'))\nresponse.write(\'", showsTime:false\\n  }); }); } catch(e) {};\\n  try { jQuery("input.datetime").focus( function() {Calendar.setup({\\n     inputField:this.id, ifFormat:"\', escape=False)\nresponse.write(T(\'%Y-%m-%d %H:%M:%S\'))\nresponse.write(\'", showsTime: true,timeFormat: "24"\\n  }); }); } catch(e) {};\\n  try { jQuery("input.time").clockpick({\\n      starthour:0, endhour:23, showminutes:true, military:true\\n  }); } catch(e) {};\\n};\\njQuery(document).ready(function(){\\n   jQuery(\\\'.flash\\\').hide();\\n   if(jQuery(\\\'.flash\\\').html()!=\\\'\\\') jQuery(\\\'.flash\\\').slideDown(\\\'slow\\\');\\n   web2py_ajax_init();});\\n\\nfunction web2py_trap_form(action,target) {\\n   jQuery(\\\'#\\\'+target+\\\' form\\\').each(function(i){\\n      var form=jQuery(this);\\n      if(!form.hasClass(\\\'no_trap\\\'))\\n        form.submit(function(obj){\\n         jQuery(\\\'.flash\\\').hide().html(\\\'\\\');\\n         web2py_ajax_page(\\\'post\\\',action,form.serialize(),target);\\n         return false;\\n      });\\n   });\\n}\\n\\nfunction web2py_ajax_page(method,action,data,target) {\\n  jQuery.ajax({\\\'type\\\':method,\\\'url\\\':action,\\\'data\\\':data,\\n    \\\'beforeSend\\\':function(xhr) {\\n      xhr.setRequestHeader(\\\'web2py-component-location\\\',document.location);\\n      xhr.setRequestHeader(\\\'web2py-component-element\\\',target);},\\n    \\\'complete\\\':function(xhr,text){\\n      var html=xhr.responseText;\\n      var content=xhr.getResponseHeader(\\\'web2py-component-content\\\'); \\n      var command=xhr.getResponseHeader(\\\'web2py-component-command\\\');\\n      var flash=xhr.getResponseHeader(\\\'web2py-component-flash\\\');\\n      var t = jQuery(\\\'#\\\'+target);\\n      if(content==\\\'prepend\\\') t.prepend(html); \\n      else if(content==\\\'append\\\') t.append(html);\\n      else if(content!=\\\'hide\\\') t.html(html);  \\n      web2py_trap_form(action,target);\\n      web2py_ajax_init();      \\n      if(command) eval(command);\\n      if(flash) jQuery(\\\'.flash\\\').html(flash).slideDown();\\n      }\\n    });\\n}\\nfunction web2py_component(action,target) {\\n    jQuery(document).ready(function(){ web2py_ajax_page(\\\'get\\\',action,null,target); });\\n}\\n//--></script>\\n\', escape=False)\nresponse.write(\'\\n  <style>\\nul.web2py-menu-vertical { width: 150px; position: relative; top:1em; left:1em;  z-index:30; border:0; margin:0; padding: 0; list-style: none; text-decoration: none;}\\nul.web2py-menu-vertical li { margin:0; padding:0; border:0; width: 150px; background: black; text-align:left;}\\nul.web2py-menu-vertical li a { margin:0; padding: 1px 3px 1px 3px; border:0; width: 144px; color: white; font-size:12px;}\\ndiv.flash { position: fixed; float: right; padding: 10px; top: 10px; right: 30px; opacity: 0.75; margin: 10px 10px 10px 10px; text-align: center; clear: both; color: #fff; font-size: 11pt; text-align: center; vertical-align: middle; cursor: pointer; background: black; border: 2px solid #fff; -moz-border-radius: 5px; -webkit-border-radius: 5px; z-index: 2; }\\ndiv.error { background-color: red; color: white; padding: 3px; }\\n.auth_navbar { text-align:right; z-index:20; position: absolute; top: 2px; right:30px; border:0; padding:0 }\\n  </style>\\n </head>\\n <body>\\n  <!-- start header -->\\n  \', escape=False)\ntry:\n    response.write(auth.navbar(action=URL(\'default\',\'user\')))\nexcept:pass\nresponse.write(\'\\n  \', escape=False)\nimport tweepy\nresponse.write(\'\\n  <div id="wrapper">\\n   <div id="header">\\n    <div id="menu">\\n     \', escape=False)\nresponse.write(MENU(response.menu,_class=\'web2py-menu\'))\nresponse.write(\'\\n    <script>\\n      jQuery(document).ready(function(){jQuery(\\\'ul.web2py-menu\\\').superfish({delay:400});});\\n    </script>\\n    </div>\\n    <!-- end #menu -->\\n    <!--<div id="search">\\n     <form method="get" action="">\\n      <fieldset>\\n       <input type="text" name="s" id="search-text" size="15" />\\n       <input type="submit" id="search-submit" value="Search" />\\n      </fieldset>\\n     </form>\\n    </div> -->\\n    <!-- end #search -->\\n   </div>\\n   <!-- end #header -->\\n   <div id="logo">\\n    <h1>\\n     \', escape=False)\nresponse.write(response.title or request.application)\nresponse.write(\'\\n    </h1>\\n    <p>\\n     <em>\\n      template design by\\n      <a href="#">\\n       Expropiada Templates\\n      </a>\\n     </em>\\n    </p>\\n   </div>\\n   <hr />\\n   <!-- end #logo -->\\n   <!-- end #header-wrapper -->\\n   <div id="page">\\n    <div id="content">\\n     <div class="flash">\', escape=False)\nresponse.write(response.flash or \'\')\nresponse.write(\'</div>\\n     \', escape=False)\nresponse.write(" \\n<div class=\'content\' align=\'center\'>\\n", escape=False)\nresponse.write(DIV(H2(T("Aprobar comentarios."), _class=\'title\'), _align=\'center\'))\nresponse.write("\\n<br/>\\n<div id=\'adminpost\'>\\n<table>\\n<tr>\\n    <th>\\n\\t", escape=False)\nresponse.write(T("Comentarios"))\nresponse.write(\'\\n    </th>\\n    <th>\\n\\t\', escape=False)\nresponse.write(T("Art\xc3\xadculo"))\nresponse.write(\'\\n    </th>\\n    <th>\\n\\t\', escape=False)\nresponse.write(T("Fecha del comentario"))\nresponse.write(\'\\n    </th>\\n    <th>\\n\\t\', escape=False)\nresponse.write(T("Visible"))\nresponse.write("\\n    </th>\\n</tr>\\n<form action=\'grantcomment\' method=post>\\n", escape=False)\nfor registro in comments:\n    response.write(\'\\n    <tr>\\n\\t<td>\\n\\t    \', escape=False)\n    response.write(T(registro.comentarios.comentario))\n    response.write(\'\\n\\t</td>\\n\\t<td>\\n\\t    \', escape=False)\n    response.write(registro.articulos.titulo)\n    response.write(\'\\n\\t</td>\\n\\t<td>\\n\\t    \', escape=False)\n    response.write(registro.comentarios.fecha)\n    response.write(\'\\n\\t</td>\\n\\t<td>\\n\\t    \', escape=False)\n    visible = lambda x: x and \'Si\' or \'No\'\n    response.write(\'\\n\\t    \', escape=False)\n    response.write(A(visible(registro.comentarios.visible)), _class=\'link\', _href=URL(\'grantcomment\', args=[registro.comentarios.id ,registro.comentarios.visible])))\n    response.write(\'\\n\\t</td>\\n\', escape=False)\n    pass\nresponse.write(\'\\n    </tr>\\n</form>\\n</table>\\n</div>\\n</div>\\n\', escape=False)\nresponse.write(\'\\n    </div>\\n    <!-- end #content -->\\n    <div id="sidebar">\\n     <ul>\\n         <li>\\n            <h2> Mi Timeline </h2>\\n            <p>\', escape=False)\nusertl = tweepy.api.user_timeline(\'j3nnn1\')\nresponse.write(\'\\n\\n<ul>\\n\', escape=False)\nfor tweet in usertl[0:4]:\n    response.write(\'\\n   <li>\\n   <strong>@\', escape=False)\n    response.write(tweet.user.screen_name)\n    response.write(\':</strong> \', escape=False)\n    response.write(tweet.text)\n    response.write(\'\\n    </li>\\n\', escape=False)\n    pass\nresponse.write(\'\\n</ul>\\n\\n    \\n\\n\', escape=False)\nresponse.write(\' </p>\\n         </li>\\n         <li>\\n            <h2> Menciones en Twitter </h2>\\n            <p> \', escape=False)\nresponse.write("<div class=\'twitter\'>\\n", escape=False)\nsearch_tweets = tweepy.api.search(\'@j3nnn1\')\nresponse.write(\'\\n<ul>\\n\', escape=False)\nfor tweet in search_tweets[0:2]:\n    response.write(\'\\n   <li> \\n   <strong>@\', escape=False)\n    response.write(tweet.from_user)\n    response.write(\':</strong> \', escape=False)\n    response.write(tweet.text)\n    response.write(\'\\n   </li>\\n\', escape=False)\n    pass\nresponse.write(\'\\n</ul>\\n</div>\\n\', escape=False)\nresponse.write(\' </p>\\n         </li>\\n\\n         <li>\\n            <h2> Twitter Busqueda: python </h2>\\n\\t    <p> \', escape=False)\nresponse.write("<div class=\'twitter\'>\\n", escape=False)\nsearch_tweets = tweepy.api.search(\'python\')\nresponse.write(\'\\n<ul>\\n\', escape=False)\nfor tweet in search_tweets[0:2]:\n    response.write(\'\\n   <li>\\n   <strong>@\', escape=False)\n    response.write(tweet.from_user)\n    response.write(\':</strong> \', escape=False)\n    response.write(tweet.text)\n    response.write(\'\\n   </li>\\n\', escape=False)\n    pass\nresponse.write(\'\\n</ul>\\n</div>\\n\\n\', escape=False)\nresponse.write(\' </p>\\n         </li>\\n     </ul>\\n    </div>\\n    <!-- end #sidebar -->\\n    <div style="clear: both;">\\n     &nbsp;\\n    </div>\\n   </div>\\n   <!-- end #page -->\\n   <div id="footer">\\n    <p> .:B106 d3 j3nnn1:.</p>\\n   </div>\\n   <!-- end #footer -->\\n  </div>\\n </body>\\n</html>\\n\', escape=False)'
p6
sS'snapshot'
p7
(dp8
S'exception'
p9
(dp10
S'__getslice__'
p11
S"<method-wrapper '__getslice__' of exceptions.SyntaxError object>"
p12
sS'text'
p13
S"'    response.write(A(visible(registro.comentario...comentarios.id ,registro.comentarios.visible])))\\n'"
p14
sS'__str__'
p15
S"<method-wrapper '__str__' of exceptions.SyntaxError object>"
p16
sS'__reduce__'
p17
S'<built-in method __reduce__ of exceptions.SyntaxError object>'
p18
sS'__dict__'
p19
S'{}'
p20
sS'__sizeof__'
p21
S'<built-in method __sizeof__ of exceptions.SyntaxError object>'
p22
sS'__init__'
p23
S"<method-wrapper '__init__' of exceptions.SyntaxError object>"
p24
sS'__setattr__'
p25
S"<method-wrapper '__setattr__' of exceptions.SyntaxError object>"
p26
sS'__reduce_ex__'
p27
S'<built-in method __reduce_ex__ of exceptions.SyntaxError object>'
p28
sS'__new__'
p29
S'<built-in method __new__ of type object>'
p30
sS'__format__'
p31
S'<built-in method __format__ of exceptions.SyntaxError object>'
p32
sS'__class__'
p33
S"<type 'exceptions.SyntaxError'>"
p34
sS'filename'
p35
S"'/home/j3nnn1/git/pyj3nnn1/web2py/applications/blog/views/default/grantcomment.html'"
p36
sS'lineno'
p37
S'72'
p38
sS'msg'
p39
S"'invalid syntax'"
p40
sS'__doc__'
p41
S"'Invalid syntax.'"
p42
sS'__getitem__'
p43
S"<method-wrapper '__getitem__' of exceptions.SyntaxError object>"
p44
sS'__setstate__'
p45
S'<built-in method __setstate__ of exceptions.SyntaxError object>'
p46
sS'__getattribute__'
p47
S"<method-wrapper '__getattribute__' of exceptions.SyntaxError object>"
p48
sS'print_file_and_line'
p49
S'None'
p50
sS'args'
p51
S"('invalid syntax', ('/home/j3nnn1/git/pyj3nnn1/web2py/applications/blog/views/default/grantcomment.html', 72, 165, '    response.write(A(visible(registro.comentario...comentarios.id ,registro.comentarios.visible])))\\n'))"
p52
sS'__subclasshook__'
p53
S'<built-in method __subclasshook__ of type object>'
p54
sS'offset'
p55
S'165'
p56
sS'__unicode__'
p57
S'<built-in method __unicode__ of exceptions.SyntaxError object>'
p58
sS'__delattr__'
p59
S"<method-wrapper '__delattr__' of exceptions.SyntaxError object>"
p60
sS'__repr__'
p61
S"<method-wrapper '__repr__' of exceptions.SyntaxError object>"
p62
sS'__hash__'
p63
S"<method-wrapper '__hash__' of exceptions.SyntaxError object>"
p64
ssS'evalue'
p65
S'invalid syntax (grantcomment.html, line 72)'
p66
sS'request'
p67
(dp68
S'function'
p69
S"'grantcomment'"
p70
sS'body'
p71
S'<cStringIO.StringO object>'
p72
sS'wsgi'
p73
S"<Storage {'start_response': <function <lambda> a...>, 'HTTP_ACCEPT_ENCODING': 'gzip,deflate,sdch'}}>"
p74
sS'extension'
p75
S"'html'"
p76
sS'vars'
p77
S'<Storage {}>'
p78
sS'cid'
p79
S'None'
p80
sS'url'
p81
S'<gluon.html.XML object>'
p82
sg51
S"['2', 'False']"
p83
sS'controller'
p84
S"'default'"
p85
sS'cookies'
p86
S"<SimpleCookie: session_id_admin='127-0-0-1-3ee7f...'127-0-0-1-fe3dd1f3-580c-48f7-bd9d-954d65cf1cf1'>"
p87
sS'application'
p88
S"'blog'"
p89
sS'ajax'
p90
S'False'
p91
sS'client'
p92
S"'127.0.0.1'"
p93
sS'env'
p94
S"<Storage {'http_user_agent': 'Mozilla/5.0 (X11; ...ch', 'query_string': '', 'wsgi_run_once': False}>"
p95
sS'raw_args'
p96
S"'2/False'"
p97
sS'get_vars'
p98
S'<Storage {}>'
p99
sS'folder'
p100
S"'/home/j3nnn1/git/pyj3nnn1/web2py/applications/blog/'"
p101
sS'now'
p102
S'datetime.datetime(2010, 10, 25, 22, 44, 10, 610310)'
p103
sS'post_vars'
p104
S'<Storage {}>'
p105
ssS'frames'
p106
(lp107
(dp108
S'file'
p109
S'/home/j3nnn1/git/pyj3nnn1/web2py/gluon/restricted.py'
p110
sS'dump'
p111
(dp112
S'code'
p113
S'\'response.write(\\\'<!DOCTYPE html PUBLIC "-//W3C//D...->\\\\n  </div>\\\\n </body>\\\\n</html>\\\\n\\\', escape=False)\''
p114
sS'layer'
p115
S"'/home/j3nnn1/git/pyj3nnn1/web2py/applications/blog/views/default/grantcomment.html'"
p116
sS'global compile2'
p117
S'<function compile2>'
p118
sS'ccode'
p119
S'undefined'
p120
ssS'lnum'
p121
I186
sS'lines'
p122
(dp123
I181
S''
sI182
S'    try:'
p124
sI183
S'        if type(code) == types.CodeType:'
p125
sI184
S'            ccode = code'
p126
sI185
S'        else:'
p127
sI186
S'            ccode = compile2(code,layer)'
p128
sI187
S''
sI188
S'        exec ccode in environment'
p129
sI189
S'    except HTTP:'
p130
sI190
S'        raise'
p131
ssS'call'
p132
S'(code=\'response.write(\\\'<!DOCTYPE html PUBLIC "-//W3C//D...->\\\\n  </div>\\\\n </body>\\\\n</html>\\\\n\\\', escape=False)\', environment={\'A\': <class \'gluon.html.A\'>, \'Auth\': <class \'gluon.tools.Auth\'>, \'B\': <class \'gluon.html.B\'>, \'BEAUTIFY\': <class \'gluon.html.BEAUTIFY\'>, \'BODY\': <class \'gluon.html.BODY\'>, \'BR\': <class \'gluon.html.BR\'>, \'CENTER\': <class \'gluon.html.CENTER\'>, \'CLEANUP\': <class \'gluon.validators.CLEANUP\'>, \'CODE\': <class \'gluon.html.CODE\'>, \'CRYPT\': <class \'gluon.validators.CRYPT\'>, ...}, layer=\'/home/j3nnn1/git/pyj3nnn1/web2py/applications/blog/views/default/grantcomment.html\')'
p133
sS'func'
p134
S'restricted'
p135
sa(dp136
g109
S'/home/j3nnn1/git/pyj3nnn1/web2py/gluon/restricted.py'
p137
sg111
(dp138
S'builtincompile'
p139
S'<built-in function compile>'
p140
sS'code'
p141
S'\'response.write(\\\'<!DOCTYPE html PUBLIC "-//W3C//D...->\\\\n  </div>\\\\n </body>\\\\n</html>\\\\n\\\', escape=False)\''
p142
sS'code.rstrip'
p143
S'<built-in method rstrip of str object>'
p144
sS').replace'
p145
g120
sS'layer'
p146
S"'/home/j3nnn1/git/pyj3nnn1/web2py/applications/blog/views/default/grantcomment.html'"
p147
ssg121
I173
sg122
(dp148
I168
S''
sI169
S'def compile2(code,layer):'
p149
sI170
S'    """'
p150
sI171
S"    The +'\\n' is necessary else compile fails when code ends in a comment."
p151
sI172
S'    """'
p152
sI173
S"    return compile(code.rstrip().replace('\\r\\n','\\n')+'\\n', layer, 'exec')"
p153
sI174
S''
sI175
S"def restricted(code, environment={}, layer='Unknown'):"
p154
sI176
S'    """'
p155
sI177
S'    runs code in environment and returns the output. if an exception occurs'
p156
ssg132
S'(code=\'response.write(\\\'<!DOCTYPE html PUBLIC "-//W3C//D...->\\\\n  </div>\\\\n </body>\\\\n</html>\\\\n\\\', escape=False)\', layer=\'/home/j3nnn1/git/pyj3nnn1/web2py/applications/blog/views/default/grantcomment.html\')'
p157
sg134
S'compile2'
p158
sasS'pyver'
p159
S'Python 2.6.6: /usr/bin/python'
p160
sS'session'
p161
(dp162
S'_formkey[login]'
p163
S"'8ac886fd-017b-4f51-8031-3d488b68f8ee'"
p164
sS'flash'
p165
S'None'
p166
sS'_formkey[comentarios_create]'
p167
S"'f3d95eab-9aef-4aa0-864c-00712498cb4d'"
p168
sS'auth'
p169
S"<Storage {'expiration': 3600, 'user': <Storage {... 10, 25, 22, 44, 10, 610310), 'remember': False}>"
p170
ssS'etype'
p171
S"<type 'exceptions.SyntaxError'>"
p172
sS'date'
p173
S'Mon Oct 25 22:44:12 2010'
p174
sS'response'
p175
(dp176
S'status'
p177
S'200'
p178
sg71
S'<cStringIO.StringO object>'
p179
sg86
S"<SimpleCookie: session_id_blog='127-0-0-1-fe3dd1f3-580c-48f7-bd9d-954d65cf1cf1'>"
p180
sS'_vars'
p181
S"{'comments': [<Row {'articulos': <Row {'titulo': 'With a littl...ete_record': <function <lambda> at 0x9cbaaac>}>}>, <Row {'articulos': <Row {'titulo': 'With a littl...ete_record': <function <lambda> at 0x9cba1ec>}>}>, <Row {'articulos': <Row {'titulo': 'With a littl...ete_record': <function <lambda> at 0x9cba994>}>}>, <Row {'articulos': <Row {'titulo': 'Pangrama'}>,...ete_record': <function <lambda> at 0x9cba25c>}>}>]}"
p182
sS'title'
p183
S'"It\'s me"'
p184
sS'session_file'
p185
S"<open file '/home/j3nnn1/git/pyj3nnn1/web2py/app...e3dd1f3-580c-48f7-bd9d-954d65cf1cf1', mode 'rb+'>"
p186
sS'flash'
p187
S"'El Comentario estar\\xc3\\xa1 visible'"
p188
sS'_custom_rollback'
p189
S'None'
p190
sS'session_id'
p191
S"'127-0-0-1-fe3dd1f3-580c-48f7-bd9d-954d65cf1cf1'"
p192
sS'headers'
p193
S"<Storage {'Expires': 'mar, 26 oct 2010 03:14:10 ...he, must-revalidate, post-check=0, pre-check=0'}>"
p194
sS'meta'
p195
S"<Storage {'keywords': 'j3nnn1 web2py python', 'd...con web2py... ', 'author': 'Jennifer Maldonado'}>"
p196
sS'session_filename'
p197
S"'/home/j3nnn1/git/pyj3nnn1/web2py/applications/bl...ns/127-0-0-1-fe3dd1f3-580c-48f7-bd9d-954d65cf1cf1'"
p198
sS'postprocessing'
p199
S'[]'
p200
sS'menu'
p201
S"[(<lazyT 'Index'>, False, <gluon.html.XML object>, []), (<lazyT 'About'>, False, <gluon.html.XML object>, []), (<lazyT 'Admin'>, False, <gluon.html.XML object>, [])]"
p202
sS'_view_environment'
p203
S"{'A': <class 'gluon.html.A'>, 'Auth': <class 'gluon.tools.Auth'>, 'B': <class 'gluon.html.B'>, 'BEAUTIFY': <class 'gluon.html.BEAUTIFY'>, 'BODY': <class 'gluon.html.BODY'>, 'BR': <class 'gluon.html.BR'>, 'CENTER': <class 'gluon.html.CENTER'>, 'CLEANUP': <class 'gluon.validators.CLEANUP'>, 'CODE': <class 'gluon.html.CODE'>, 'CRYPT': <class 'gluon.validators.CRYPT'>, ...}"
p204
sS'subtitle'
p205
S'<lazyT "it\'s me j3nnn1">'
p206
sS'session_id_name'
p207
S"'session_id_blog'"
p208
sS'_custom_commit'
p209
S'None'
p210
sS'_caller'
p211
S'<function <lambda>>'
p212
sS'files'
p213
S'[]'
p214
sS'view'
p215
S"'default/grantcomment.html'"
p216
ssS'locals'
p217
(dp218
g3
S"'/home/j3nnn1/git/pyj3nnn1/web2py/applications/blog/views/default/grantcomment.html'"
p219
sg5
S'\'response.write(\\\'<!DOCTYPE html PUBLIC "-//W3C//D...->\\\\n  </div>\\\\n </body>\\\\n</html>\\\\n\\\', escape=False)\''
p220
sssS'traceback'
p221
S'Traceback (most recent call last):\n  File "/home/j3nnn1/git/pyj3nnn1/web2py/gluon/restricted.py", line 186, in restricted\n    ccode = compile2(code,layer)\n  File "/home/j3nnn1/git/pyj3nnn1/web2py/gluon/restricted.py", line 173, in compile2\n    return compile(code.rstrip().replace(\'\\r\\n\',\'\\n\')+\'\\n\', layer, \'exec\')\n  File "/home/j3nnn1/git/pyj3nnn1/web2py/applications/blog/views/default/grantcomment.html", line 72\n    response.write(A(visible(registro.comentarios.visible)), _class=\'link\', _href=URL(\'grantcomment\', args=[registro.comentarios.id ,registro.comentarios.visible])))\n                                                                                                                                                                    ^\nSyntaxError: invalid syntax\n'
p222
s.