(dp1
S'output'
p2
S''
sS'layer'
p3
S'/cygdrive/e/Documents and Settings/jmaldo03/git/pyj3nnn1/pyj3nnn1/web2py/applications/blog/views/default/twitterperl.html'
p4
sS'code'
p5
S'response.write("<div class=\'twitter\'>\\n", escape=False)\nimport tweepy\nsearch_tweets = tweepy.api.search(\'perl\')\nresponse.write(\'\\n<ul>\\n\', escape=False)\nfor tweet in search_tweets:\n    response.write(\'\\n   <li> \\n   \', escape=False)\n    response.write(T(tweet.text))\n    response.write(\'\\n   </li>\\n\', escape=False)\n    pass\nresponse.write(\'\\n</ul>\\n</div>\\n\', escape=False)'
p6
sS'snapshot'
p7
(dp8
sS'traceback'
p9
S'Traceback (most recent call last):\n  File "/cygdrive/e/Documents and Settings/jmaldo03/git/pyj3nnn1/pyj3nnn1/web2py/gluon/restricted.py", line 188, in restricted\n    exec ccode in environment\n  File "/cygdrive/e/Documents and Settings/jmaldo03/git/pyj3nnn1/pyj3nnn1/web2py/applications/blog/views/default/twitterperl.html", line 7, in <module>\n    {{=T(tweet.text)}}\n  File "/cygdrive/e/Documents and Settings/jmaldo03/git/pyj3nnn1/pyj3nnn1/web2py/gluon/globals.py", line 105, in write\n    self.body.write(xmlescape(data))\n  File "/cygdrive/e/Documents and Settings/jmaldo03/git/pyj3nnn1/pyj3nnn1/web2py/gluon/html.py", line 108, in xmlescape\n    return data.xml()\n  File "/cygdrive/e/Documents and Settings/jmaldo03/git/pyj3nnn1/pyj3nnn1/web2py/gluon/languages.py", line 167, in xml\n    return cgi.escape(str(self))\n  File "/cygdrive/e/Documents and Settings/jmaldo03/git/pyj3nnn1/pyj3nnn1/web2py/gluon/languages.py", line 131, in __str__\n    return self.T.translate(self.m, self.s)\n  File "/cygdrive/e/Documents and Settings/jmaldo03/git/pyj3nnn1/pyj3nnn1/web2py/gluon/languages.py", line 267, in translate\n    write_dict(self.language_file, self.t)\n  File "/cygdrive/e/Documents and Settings/jmaldo03/git/pyj3nnn1/pyj3nnn1/web2py/gluon/languages.py", line 101, in write_dict\n    fp.write(\'%s: %s,\\n\' % (utf8_repr(key), utf8_repr(contents[key])))\nUnicodeEncodeError: \'ascii\' codec can\'t encode characters in position 1-7: ordinal not in range(128)\n'
p10
s.