(dp1
S'output'
p2
S''
sS'layer'
p3
S'/home/j3nnn1/git/pyj3nnn1/web2py/applications/blog/controllers/default.py'
p4
sS'code'
p5
S'# -*- coding: utf-8 -*- \n\n#########################################################################\n## This is a samples controller\n## - index is the default action of any application\n## - user is required for authentication and authorization\n## - download is for downloading files uploaded in the db (does streaming)\n## - call exposes all registered services (none by default)\n#########################################################################  \n\ndef index():\n    """\n    Esta vista va a obtener 3 post\n    """\n    # filter to join.\n    filtro = (db.articulos.id_usuario==db.usuarios.id)\n    post = db(filtro).select(db.articulos.titulo, db.articulos.fecha, db.articulos.articulo, db.usuarios.usuario, orderby=db.articulo.fecha, limitby(0,3))\n\n    return dict(post=post)\n\ndef about():\n    """ Informaci\xc3\xb3n sobre mi persona"""\n    return dict()\n\ndef user():\n    """\n    exposes:\n    http://..../[app]/default/user/login \n    http://..../[app]/default/user/logout\n    http://..../[app]/default/user/register\n    http://..../[app]/default/user/profile\n    http://..../[app]/default/user/retrieve_password\n    http://..../[app]/default/user/change_password\n    use @auth.requires_login()\n        @auth.requires_membership(\'group name\')\n        @auth.requires_permission(\'read\',\'table name\',record_id)\n    to decorate functions that need access control\n    """\n    return dict(form=auth())\n\n\ndef download():\n    """\n    allows downloading of uploaded files\n    http://..../[app]/default/download/[filename]\n    """\n    return response.download(request,db)\n\n\ndef call():\n    """\n    exposes services. for example:\n    http://..../[app]/default/call/jsonrpc\n    decorate with @services.jsonrpc the functions to expose\n    supports xml, json, xmlrpc, jsonrpc, amfrpc, rss, csv\n    """\n    session.forget()\n    return service()\n\nresponse._vars=response._caller(index)\n'
p6
sS'snapshot'
p7
(dp8
S'exception'
p9
(dp10
S'__getslice__'
p11
S"<method-wrapper '__getslice__' of exceptions.SyntaxError object>"
p12
sS'text'
p13
S"'post = db(filtro).select(db.articulos.titulo, db...suario, orderby=db.articulo.fecha, limitby(0,3))\\n'"
p14
sS'__str__'
p15
S"<method-wrapper '__str__' of exceptions.SyntaxError object>"
p16
sS'__reduce__'
p17
S'<built-in method __reduce__ of exceptions.SyntaxError object>'
p18
sS'__dict__'
p19
S'{}'
p20
sS'__sizeof__'
p21
S'<built-in method __sizeof__ of exceptions.SyntaxError object>'
p22
sS'__init__'
p23
S"<method-wrapper '__init__' of exceptions.SyntaxError object>"
p24
sS'__setattr__'
p25
S"<method-wrapper '__setattr__' of exceptions.SyntaxError object>"
p26
sS'__reduce_ex__'
p27
S'<built-in method __reduce_ex__ of exceptions.SyntaxError object>'
p28
sS'__new__'
p29
S'<built-in method __new__ of type object>'
p30
sS'__format__'
p31
S'<built-in method __format__ of exceptions.SyntaxError object>'
p32
sS'__class__'
p33
S"<type 'exceptions.SyntaxError'>"
p34
sS'filename'
p35
S"'/home/j3nnn1/git/pyj3nnn1/web2py/applications/blog/controllers/default.py'"
p36
sS'lineno'
p37
S'17'
p38
sS'msg'
p39
S"'non-keyword arg after keyword arg'"
p40
sS'__doc__'
p41
S"'Invalid syntax.'"
p42
sS'__getitem__'
p43
S"<method-wrapper '__getitem__' of exceptions.SyntaxError object>"
p44
sS'__setstate__'
p45
S'<built-in method __setstate__ of exceptions.SyntaxError object>'
p46
sS'__getattribute__'
p47
S"<method-wrapper '__getattribute__' of exceptions.SyntaxError object>"
p48
sS'print_file_and_line'
p49
S'None'
p50
sS'args'
p51
S"('non-keyword arg after keyword arg', ('/home/j3nnn1/git/pyj3nnn1/web2py/applications/blog/controllers/default.py', 17, None, 'post = db(filtro).select(db.articulos.titulo, db...suario, orderby=db.articulo.fecha, limitby(0,3))\\n'))"
p52
sS'__subclasshook__'
p53
S'<built-in method __subclasshook__ of type object>'
p54
sS'offset'
p55
S'None'
p56
sS'__unicode__'
p57
S'<built-in method __unicode__ of exceptions.SyntaxError object>'
p58
sS'__delattr__'
p59
S"<method-wrapper '__delattr__' of exceptions.SyntaxError object>"
p60
sS'__repr__'
p61
S"<method-wrapper '__repr__' of exceptions.SyntaxError object>"
p62
sS'__hash__'
p63
S"<method-wrapper '__hash__' of exceptions.SyntaxError object>"
p64
ssS'evalue'
p65
S'non-keyword arg after keyword arg (default.py, line 17)'
p66
sS'request'
p67
(dp68
S'function'
p69
S"'index'"
p70
sS'body'
p71
S'<cStringIO.StringO object>'
p72
sS'wsgi'
p73
S"<Storage {'start_response': <function <lambda> a...>, 'HTTP_ACCEPT_ENCODING': 'gzip,deflate,sdch'}}>"
p74
sS'extension'
p75
S"'html'"
p76
sS'vars'
p77
S'<Storage {}>'
p78
sS'cid'
p79
S'None'
p80
sS'url'
p81
S'<gluon.html.XML object>'
p82
sg51
S'[]'
p83
sS'controller'
p84
S"'default'"
p85
sS'cookies'
p86
S"<SimpleCookie: session_id_admin='127-0-0-1-30657...'127-0-0-1-f66a923b-35d4-4221-bb69-65adf56edca3'>"
p87
sS'application'
p88
S"'blog'"
p89
sS'ajax'
p90
S'False'
p91
sS'client'
p92
S"'127.0.0.1'"
p93
sS'env'
p94
S"<Storage {'http_user_agent': 'Mozilla/5.0 (X11; ...ch', 'query_string': '', 'wsgi_run_once': False}>"
p95
sS'raw_args'
p96
S'None'
p97
sS'get_vars'
p98
S'<Storage {}>'
p99
sS'folder'
p100
S"'/home/j3nnn1/git/pyj3nnn1/web2py/applications/blog/'"
p101
sS'now'
p102
S'datetime.datetime(2010, 10, 24, 15, 35, 17, 740594)'
p103
sS'post_vars'
p104
S'<Storage {}>'
p105
ssS'frames'
p106
(lp107
(dp108
S'file'
p109
S'/home/j3nnn1/git/pyj3nnn1/web2py/gluon/restricted.py'
p110
sS'dump'
p111
(dp112
S'code'
p113
S"'# -*- coding: utf-8 -*- \\n\\n######################...ervice()\\n\\nresponse._vars=response._caller(index)\\n'"
p114
sS'layer'
p115
S"'/home/j3nnn1/git/pyj3nnn1/web2py/applications/blog/controllers/default.py'"
p116
sS'global compile2'
p117
S'<function compile2>'
p118
sS'ccode'
p119
S'undefined'
p120
ssS'lnum'
p121
I186
sS'lines'
p122
(dp123
I181
S''
sI182
S'    try:'
p124
sI183
S'        if type(code) == types.CodeType:'
p125
sI184
S'            ccode = code'
p126
sI185
S'        else:'
p127
sI186
S'            ccode = compile2(code,layer)'
p128
sI187
S''
sI188
S'        exec ccode in environment'
p129
sI189
S'    except HTTP:'
p130
sI190
S'        raise'
p131
ssS'call'
p132
S"(code='# -*- coding: utf-8 -*- \\n\\n######################...ervice()\\n\\nresponse._vars=response._caller(index)\\n', environment={'A': <class 'gluon.html.A'>, 'Auth': <class 'gluon.tools.Auth'>, 'B': <class 'gluon.html.B'>, 'BEAUTIFY': <class 'gluon.html.BEAUTIFY'>, 'BODY': <class 'gluon.html.BODY'>, 'BR': <class 'gluon.html.BR'>, 'CENTER': <class 'gluon.html.CENTER'>, 'CLEANUP': <class 'gluon.validators.CLEANUP'>, 'CODE': <class 'gluon.html.CODE'>, 'CRYPT': <class 'gluon.validators.CRYPT'>, ...}, layer='/home/j3nnn1/git/pyj3nnn1/web2py/applications/blog/controllers/default.py')"
p133
sS'func'
p134
S'restricted'
p135
sa(dp136
g109
S'/home/j3nnn1/git/pyj3nnn1/web2py/gluon/restricted.py'
p137
sg111
(dp138
S'builtincompile'
p139
S'<built-in function compile>'
p140
sS'code'
p141
S"'# -*- coding: utf-8 -*- \\n\\n######################...ervice()\\n\\nresponse._vars=response._caller(index)\\n'"
p142
sS'code.rstrip'
p143
S'<built-in method rstrip of str object>'
p144
sS').replace'
p145
g120
sS'layer'
p146
S"'/home/j3nnn1/git/pyj3nnn1/web2py/applications/blog/controllers/default.py'"
p147
ssg121
I173
sg122
(dp148
I168
S''
sI169
S'def compile2(code,layer):'
p149
sI170
S'    """'
p150
sI171
S"    The +'\\n' is necessary else compile fails when code ends in a comment."
p151
sI172
S'    """'
p152
sI173
S"    return compile(code.rstrip().replace('\\r\\n','\\n')+'\\n', layer, 'exec')"
p153
sI174
S''
sI175
S"def restricted(code, environment={}, layer='Unknown'):"
p154
sI176
S'    """'
p155
sI177
S'    runs code in environment and returns the output. if an exception occurs'
p156
ssg132
S"(code='# -*- coding: utf-8 -*- \\n\\n######################...ervice()\\n\\nresponse._vars=response._caller(index)\\n', layer='/home/j3nnn1/git/pyj3nnn1/web2py/applications/blog/controllers/default.py')"
p157
sg134
S'compile2'
p158
sasS'pyver'
p159
S'Python 2.6.6: /usr/bin/python'
p160
sS'session'
p161
(dp162
S'_formkey[articulos_create]'
p163
S"'0d82bc72-f674-45c1-8ba5-25f7fc51e6d9'"
p164
sS'auth'
p165
S'None'
p166
sS'last_orderby'
p167
S'None'
p168
sS'last_query'
p169
S"'db.articulos.id>0'"
p170
sS'_formkey[comentarios_create]'
p171
S"'76d6c20a-dac7-40ed-a905-102d82b363d6'"
p172
sS'_formkey[usuarios_create]'
p173
S"'1d1883ea-e00c-4bf8-8a71-efed38a78c06'"
p174
sS'_formkey[default]'
p175
S"'a1de23bf-1680-4a4f-b9de-957af6cc5cdf'"
p176
sS'_formkey[auth_user_create]'
p177
S"'8b18cc00-afac-4196-b603-cbe190e85c44'"
p178
ssS'etype'
p179
S"<type 'exceptions.SyntaxError'>"
p180
sS'date'
p181
S'Sun Oct 24 15:35:19 2010'
p182
sS'response'
p183
(dp184
S'status'
p185
S'200'
p186
sg71
S'<cStringIO.StringO object>'
p187
sg86
S"<SimpleCookie: session_id_blog='127-0-0-1-c9e49980-0272-480c-b712-192f1f1b4547'>"
p188
sS'_vars'
p189
S'None'
p190
sS'title'
p191
S"'blog'"
p192
sS'session_file'
p193
S"<open file '/home/j3nnn1/git/pyj3nnn1/web2py/app...9e49980-0272-480c-b712-192f1f1b4547', mode 'rb+'>"
p194
sS'flash'
p195
S"''"
p196
sS'_custom_rollback'
p197
S'None'
p198
sS'session_id'
p199
S"'127-0-0-1-c9e49980-0272-480c-b712-192f1f1b4547'"
p200
sS'headers'
p201
S"<Storage {'Expires': 'dom, 24 oct 2010 20:05:17 ...he, must-revalidate, post-check=0, pre-check=0'}>"
p202
sS'meta'
p203
S"<Storage {'keywords': 'bla bla bla', 'description': 'describe your app', 'author': 'you'}>"
p204
sS'session_filename'
p205
S"'/home/j3nnn1/git/pyj3nnn1/web2py/applications/bl...ns/127-0-0-1-c9e49980-0272-480c-b712-192f1f1b4547'"
p206
sS'postprocessing'
p207
S'[]'
p208
sS'menu'
p209
S"[(<lazyT 'Index'>, False, <gluon.html.XML object>, []), (<lazyT 'Edit'>, False, <gluon.html.XML object>, [(<lazyT 'Controller'>, False, <gluon.html.XML object>), (<lazyT 'View'>, False, <gluon.html.XML object>), (<lazyT 'Layout'>, False, <gluon.html.XML object>), (<lazyT 'Stylesheet'>, False, <gluon.html.XML object>), (<lazyT 'DB Model'>, False, <gluon.html.XML object>), (<lazyT 'Menu Model'>, False, <gluon.html.XML object>), (<lazyT 'Database'>, False, <gluon.html.XML object>)])]"
p210
sS'_view_environment'
p211
S"{'A': <class 'gluon.html.A'>, 'Auth': <class 'gluon.tools.Auth'>, 'B': <class 'gluon.html.B'>, 'BEAUTIFY': <class 'gluon.html.BEAUTIFY'>, 'BODY': <class 'gluon.html.BODY'>, 'BR': <class 'gluon.html.BR'>, 'CENTER': <class 'gluon.html.CENTER'>, 'CLEANUP': <class 'gluon.validators.CLEANUP'>, 'CODE': <class 'gluon.html.CODE'>, 'CRYPT': <class 'gluon.validators.CRYPT'>, ...}"
p212
sS'subtitle'
p213
S"<lazyT 'customize me!'>"
p214
sS'session_id_name'
p215
S"'session_id_blog'"
p216
sS'_custom_commit'
p217
S'None'
p218
sS'_caller'
p219
S'<function <lambda>>'
p220
sS'files'
p221
S'[]'
p222
sS'view'
p223
S"'default/index.html'"
p224
ssS'locals'
p225
(dp226
g3
S"'/home/j3nnn1/git/pyj3nnn1/web2py/applications/blog/controllers/default.py'"
p227
sg5
S"'# -*- coding: utf-8 -*- \\n\\n######################...ervice()\\n\\nresponse._vars=response._caller(index)\\n'"
p228
sssS'traceback'
p229
S'Traceback (most recent call last):\n  File "/home/j3nnn1/git/pyj3nnn1/web2py/gluon/restricted.py", line 186, in restricted\n    ccode = compile2(code,layer)\n  File "/home/j3nnn1/git/pyj3nnn1/web2py/gluon/restricted.py", line 173, in compile2\n    return compile(code.rstrip().replace(\'\\r\\n\',\'\\n\')+\'\\n\', layer, \'exec\')\n  File "/home/j3nnn1/git/pyj3nnn1/web2py/applications/blog/controllers/default.py", line 17\n    post = db(filtro).select(db.articulos.titulo, db.articulos.fecha, db.articulos.articulo, db.usuarios.usuario, orderby=db.articulo.fecha, limitby(0,3))\nSyntaxError: non-keyword arg after keyword arg\n'
p230
s.