(dp1
S'output'
p2
S'Unable to open included view file: /cygdrive/e/Documents and Settings/jmaldo03/git/pyj3nnn1/pyj3nnn1/web2py/applications/blog/views/twitterperl.html'
p3
sS'layer'
p4
S"'layout.html'"
p5
sS'code'
p6
S'<!DOCTYPE html PUBLIC "-//W3C//DTD XHTML 1.0 Strict//EN" "http://www.w3.org/TR/xhtml1/DTD/xhtml1-strict.dtd">\n<!--\nDesign by Free CSS Templates\nhttp://www.freecsstemplates.org\nReleased for free under a Creative Commons Attribution 2.5 License\n\nName       : Blogging\nDescription: A two-column, fixed-width design for 1024x768 screen resolutions.\nVersion    : 1.0\nReleased   : 20090208\n\n-->\n<html xmlns="http://www.w3.org/1999/xhtml">\n <head>\n  <title>\n   {{=response.title or request.application}}\n  </title>\n  {{response.files.append(URL(request.application,\'static\',\'plugin_layouts/layouts/Blogging/style.css\'))}}\n{{response.files.append(URL(\'static\',\'superfish.js\'))}}\n  {{include \'web2py_ajax.html\'}}\n  <style>\nul.web2py-menu-vertical { width: 150px; position: relative; top:1em; left:1em;  z-index:30; border:0; margin:0; padding: 0; list-style: none; text-decoration: none;}\nul.web2py-menu-vertical li { margin:0; padding:0; border:0; width: 150px; background: black; text-align:left;}\nul.web2py-menu-vertical li a { margin:0; padding: 1px 3px 1px 3px; border:0; width: 144px; color: white; font-size:12px;}\ndiv.flash { position: fixed; float: right; padding: 10px; top: 10px; right: 30px; opacity: 0.75; margin: 10px 10px 10px 10px; text-align: center; clear: both; color: #fff; font-size: 11pt; text-align: center; vertical-align: middle; cursor: pointer; background: black; border: 2px solid #fff; -moz-border-radius: 5px; -webkit-border-radius: 5px; z-index: 2; }\ndiv.error { background-color: red; color: white; padding: 3px; }\n.auth_navbar { text-align:right; z-index:20; position: absolute; top: 2px; right:30px; border:0; padding:0 }\n  </style>\n </head>\n <body>\n  <!-- start header -->\n  {{try:}}{{=auth.navbar(action=URL(\'default\',\'user\'))}}{{except:pass}}\n\n  <div id="wrapper">\n   <div id="header">\n    <div id="menu">\n     {{=MENU(response.menu,_class=\'web2py-menu\')}}\n    <script>\n      jQuery(document).ready(function(){jQuery(\'ul.web2py-menu\').superfish({delay:400});});\n    </script>\n    </div>\n    <!-- end #menu -->\n    <!--<div id="search">\n     <form method="get" action="">\n      <fieldset>\n       <input type="text" name="s" id="search-text" size="15" />\n       <input type="submit" id="search-submit" value="Search" />\n      </fieldset>\n     </form>\n    </div> -->\n    <!-- end #search -->\n   </div>\n   <!-- end #header -->\n   <div id="logo">\n    <h1>\n     {{=response.title or request.application}}\n    </h1>\n    <p>\n     <em>\n      template design by\n      <a href="#">\n       Expropiada Templates\n      </a>\n     </em>\n    </p>\n   </div>\n   <hr />\n   <!-- end #logo -->\n   <!-- end #header-wrapper -->\n   <div id="page">\n    <div id="content">\n     <div class="flash">{{=response.flash or \'\'}}</div>\n     {{include}}\n    </div>\n    <!-- end #content -->\n    <div id="sidebar">\n     <ul>\n      <li>\n       <h2> Twitter Busqueda: perl</h2>\n       <p>\n        {{include \'twitterperl.html\'}}\n       </p>\n      </li>\n      <li>\n       <h2>\n        Twitter Busqueda: python\n       </h2>\n       <ul>\n        <li>\n         <a href="#">\n         </a>\n         <a href="#">\n          Nec metus sed donec\n         </a>\n        </li>\n        <li>\n         <a href="#">\n          Magna lacus bibendum mauris\n         </a>\n        </li>\n        <li>\n         <a href="#">\n          Velit semper nisi molestie\n         </a>\n        </li>\n        <li>\n         <a href="#">\n          Eget tempor eget nonummy\n         </a>\n        </li>\n        <li>\n         <a href="#">\n          Nec metus sed donec\n         </a>\n        </li>\n       </ul>\n      </li>\n     </ul>\n     <ul>\n     <li>\n       <h2>\n        Mi Twitter\n       </h2>\n       <p> aca va twitter </p>\n      </li>\n     <ul>\n    </div>\n    <!-- end #sidebar -->\n    <div style="clear: both;">\n     &nbsp;\n    </div>\n   </div>\n   <!-- end #page -->\n   <div id="footer">\n    <p> .:B106 d3 j3nnn1:.</p>\n   </div>\n   <!-- end #footer -->\n  </div>\n </body>\n</html>\n'
p7
sS'snapshot'
p8
(dp9
S'exception'
p10
(dp11
S'__getslice__'
p12
S"<method-wrapper '__getslice__' of exceptions.IOError object>"
p13
sS'__str__'
p14
S"<method-wrapper '__str__' of exceptions.IOError object>"
p15
sS'__reduce__'
p16
S'<built-in method __reduce__ of exceptions.IOError object>'
p17
sS'__dict__'
p18
S'{}'
p19
sS'__sizeof__'
p20
S'<built-in method __sizeof__ of exceptions.IOError object>'
p21
sS'__init__'
p22
S"<method-wrapper '__init__' of exceptions.IOError object>"
p23
sS'__setattr__'
p24
S"<method-wrapper '__setattr__' of exceptions.IOError object>"
p25
sS'__reduce_ex__'
p26
S'<built-in method __reduce_ex__ of exceptions.IOError object>'
p27
sS'__new__'
p28
S'<built-in method __new__ of type object>'
p29
sS'errno'
p30
S'2'
sS'__format__'
p31
S'<built-in method __format__ of exceptions.IOError object>'
p32
sS'__class__'
p33
S"<type 'exceptions.IOError'>"
p34
sS'filename'
p35
S"'/cygdrive/e/Documents and Settings/jmaldo03/git/...1/web2py/applications/blog/views/twitterperl.html'"
p36
sS'__doc__'
p37
S"'I/O operation failed.'"
p38
sS'__getitem__'
p39
S"<method-wrapper '__getitem__' of exceptions.IOError object>"
p40
sS'__setstate__'
p41
S'<built-in method __setstate__ of exceptions.IOError object>'
p42
sS'__getattribute__'
p43
S"<method-wrapper '__getattribute__' of exceptions.IOError object>"
p44
sS'args'
p45
S"(2, 'No such file or directory')"
p46
sS'__subclasshook__'
p47
S'<built-in method __subclasshook__ of type object>'
p48
sS'__unicode__'
p49
S'<built-in method __unicode__ of exceptions.IOError object>'
p50
sS'strerror'
p51
S"'No such file or directory'"
p52
sS'__delattr__'
p53
S"<method-wrapper '__delattr__' of exceptions.IOError object>"
p54
sS'__repr__'
p55
S"<method-wrapper '__repr__' of exceptions.IOError object>"
p56
sS'__hash__'
p57
S"<method-wrapper '__hash__' of exceptions.IOError object>"
p58
ssS'evalue'
p59
S"[Errno 2] No such file or directory: '/cygdrive/e/Documents and Settings/jmaldo03/git/pyj3nnn1/pyj3nnn1/web2py/applications/blog/views/twitterperl.html'"
p60
sS'frames'
p61
(lp62
(dp63
S'file'
p64
S'/cygdrive/e/Documents and Settings/jmaldo03/git/pyj3nnn1/pyj3nnn1/web2py/gluon/template.py'
p65
sS'dump'
p66
(dp67
S'builtinopen'
p68
S'<built-in function open>'
p69
sS'fileobj'
p70
S'undefined'
p71
sS'filepath'
p72
S"'/cygdrive/e/Documents and Settings/jmaldo03/git/...1/web2py/applications/blog/views/twitterperl.html'"
p73
ssS'lnum'
p74
I435
sS'lines'
p75
(dp76
I430
S'        # Get the path of the file on the system.'
p77
sI431
S'        filepath = os.path.join(self.path, filename)'
p78
sI432
S''
sI433
S'        # Lets try to read teh text.'
p79
sI434
S'        try:'
p80
sI435
S"            fileobj = open(filepath, 'rb')"
p81
sI436
S''
sI437
S'            text = fileobj.read()'
p82
sI438
S''
sI439
S'            fileobj.close()'
p83
ssS'call'
p84
S"(self=<gluon.template.TemplateParser object>, filename='twitterperl.html')"
p85
sS'func'
p86
S'_get_file_text'
p87
sasS'pyver'
p88
S'Python 2.6.5: /usr/bin/python'
p89
sS'etype'
p90
S"<type 'exceptions.IOError'>"
p91
sS'date'
p92
S'Mon Oct 25 14:10:22 2010'
p93
sS'locals'
p94
(dp95
S'self'
p96
S'<gluon.template.TemplateParser object>'
p97
sS'filepath'
p98
S"'/cygdrive/e/Documents and Settings/jmaldo03/git/...1/web2py/applications/blog/views/twitterperl.html'"
p99
sg35
S"'twitterperl.html'"
p100
sssS'traceback'
p101
S'Traceback (most recent call last):\n  File "/cygdrive/e/Documents and Settings/jmaldo03/git/pyj3nnn1/pyj3nnn1/web2py/gluon/template.py", line 435, in _get_file_text\n    fileobj = open(filepath, \'rb\')\nIOError: [Errno 2] No such file or directory: \'/cygdrive/e/Documents and Settings/jmaldo03/git/pyj3nnn1/pyj3nnn1/web2py/applications/blog/views/twitterperl.html\'\n'
p102
s.