(dp1
S'output'
p2
S''
sS'layer'
p3
S'/media/misperoles/git/pyj3nnn1/web2py/applications/blog/models/menu.py'
p4
sS'code'
p5
S'# -*- coding: utf-8 -*- \n\n#########################################################################\n## Customize your APP title, subtitle and menus here\n#########################################################################\n\n#response.title = request.application\nresponse.title = "It\'s me" #request.application\nresponse.subtitle = T("J3nnn1")\nresponse.meta.author = \'Jennifer Maldonado\'\nresponse.meta.description = \'blog para contar, experiencias con web2py... \'\nresponse.meta.keywords = \'j3nnn1 web2py python\'\n##########################################\n## this is the main application menu\n## add/remove items as required\n##########################################\n    \nresponse.menu = [\n    (T(\'Index\'), False, URL(request.application,\'default\',\'index\'), []),\n    (T(\'About\'), False, URL(request.application,\'default\',\'about\'), []),\n    (T(\'Admin\'), False, URL(request.application,\'default\',\'admin\'), [])\n    (T(\'Flickr\'), False, URL(request.application,\'default\',\'get\'), [])\n    ]\n\n##########################################\n## this is here to provide shortcuts\n## during development. remove in production \n##\n## mind that plugins may also affect menu\n##########################################\n\n#response.menu+=[\n#    (T(\'Edit\'), False, URL(\'admin\', \'default\', \'design/%s\' % request.application),\n#     [\n#            (T(\'Controller\'), False, \n#             URL(\'admin\', \'default\', \'edit/%s/controllers/%s.py\' \\\n#                     % (request.application,request.controller==\'appadmin\' and\n#                        \'default\' or request.controller))), \n#            (T(\'View\'), False, \n#             URL(\'admin\', \'default\', \'edit/%s/views/%s\' \\\n#                     % (request.application,response.view))),\n#            (T(\'Layout\'), False, \n#             URL(\'admin\', \'default\', \'edit/%s/views/layout.html\' \\\n#                     % request.application)),\n#            (T(\'Stylesheet\'), False, \n#             URL(\'admin\', \'default\', \'edit/%s/static/base.css\' \\\n##                     % request.application)),\n#            (T(\'DB Model\'), False, \n#             URL(\'admin\', \'default\', \'edit/%s/models/db.py\' \\\n#                     % request.application)),\n#            (T(\'Menu Model\'), False, \n#             URL(\'admin\', \'default\', \'edit/%s/models/menu.py\' \\\n#                     % request.application)),\n#            (T(\'Database\'), False, \n#             URL(request.application, \'appadmin\', \'index\')),\n#            ]\n#   ),\n#  ]\n'
p6
sS'snapshot'
p7
(dp8
S'exception'
p9
(dp10
S'__hash__'
p11
S"<method-wrapper '__hash__' of exceptions.TypeError object>"
p12
sS'__setattr__'
p13
S"<method-wrapper '__setattr__' of exceptions.TypeError object>"
p14
sS'__reduce_ex__'
p15
S'<built-in method __reduce_ex__ of exceptions.TypeError object>'
p16
sS'__getslice__'
p17
S"<method-wrapper '__getslice__' of exceptions.TypeError object>"
p18
sS'__getitem__'
p19
S"<method-wrapper '__getitem__' of exceptions.TypeError object>"
p20
sS'__setstate__'
p21
S'<built-in method __setstate__ of exceptions.TypeError object>'
p22
sS'args'
p23
S'("\'tuple\' object is not callable",)'
p24
sS'__reduce__'
p25
S'<built-in method __reduce__ of exceptions.TypeError object>'
p26
sS'__str__'
p27
S"<method-wrapper '__str__' of exceptions.TypeError object>"
p28
sS'__format__'
p29
S'<built-in method __format__ of exceptions.TypeError object>'
p30
sS'__getattribute__'
p31
S"<method-wrapper '__getattribute__' of exceptions.TypeError object>"
p32
sS'__class__'
p33
S"<type 'exceptions.TypeError'>"
p34
sS'__unicode__'
p35
S'<built-in method __unicode__ of exceptions.TypeError object>'
p36
sS'__delattr__'
p37
S"<method-wrapper '__delattr__' of exceptions.TypeError object>"
p38
sS'__subclasshook__'
p39
S'<built-in method __subclasshook__ of type object>'
p40
sS'__repr__'
p41
S"<method-wrapper '__repr__' of exceptions.TypeError object>"
p42
sS'__dict__'
p43
S'{}'
p44
sS'__sizeof__'
p45
S'<built-in method __sizeof__ of exceptions.TypeError object>'
p46
sS'__doc__'
p47
S"'Inappropriate argument type.'"
p48
sS'__init__'
p49
S"<method-wrapper '__init__' of exceptions.TypeError object>"
p50
sS'__new__'
p51
S'<built-in method __new__ of type object>'
p52
ssS'evalue'
p53
S"'tuple' object is not callable"
p54
sS'request'
p55
ccopy_reg
_reconstructor
p56
(cgluon.html
BEAUTIFY
p57
c__builtin__
object
p58
NtRp59
(dp60
S'attributes'
p61
(dp62
sS'components'
p63
(lp64
g56
(cgluon.html
TABLE
p65
g58
NtRp66
(dp67
g61
(dp68
S'level'
p69
I5
ssS'parent'
p70
Nsg63
(lp71
g56
(cgluon.html
TR
p72
g58
NtRp73
(dp74
g61
(dp75
sg70
g66
sg63
(lp76
g56
(cgluon.html
TD
p77
g58
NtRp78
(dp79
g61
(dp80
S'_style'
p81
S'font-weight:bold;'
p82
ssg70
g73
sg63
(lp83
S'ajax'
p84
asbag56
(g77
g58
NtRp85
(dp86
g61
(dp87
S'_valign'
p88
S'top'
p89
ssg70
g73
sg63
(lp90
S':'
asbag56
(g77
g58
NtRp91
(dp92
g61
(dp93
sg70
g73
sg63
(lp94
g56
(g57
g58
NtRp95
(dp96
g61
(dp97
g69
I5
ssg70
g91
sg63
(lp98
S'False'
p99
asbasbasbag56
(g72
g58
NtRp100
(dp101
g61
(dp102
sg70
g66
sg63
(lp103
g56
(g77
g58
NtRp104
(dp105
g61
(dp106
g81
g82
ssg70
g100
sg63
(lp107
S'application'
p108
asbag56
(g77
g58
NtRp109
(dp110
g61
(dp111
g88
g89
ssg70
g100
sg63
(lp112
S':'
asbag56
(g77
g58
NtRp113
(dp114
g61
(dp115
sg70
g100
sg63
(lp116
g56
(g57
g58
NtRp117
(dp118
g61
(dp119
g69
I5
ssg70
g113
sg63
(lp120
S'blog'
p121
asbasbasbag56
(g72
g58
NtRp122
(dp123
g61
(dp124
sg70
g66
sg63
(lp125
g56
(g77
g58
NtRp126
(dp127
g61
(dp128
g81
g82
ssg70
g122
sg63
(lp129
g23
asbag56
(g77
g58
NtRp130
(dp131
g61
(dp132
g88
g89
ssg70
g122
sg63
(lp133
S':'
asbag56
(g77
g58
NtRp134
(dp135
g61
(dp136
sg70
g122
sg63
(lp137
g56
(g57
g58
NtRp138
(dp139
g61
(dp140
g69
I5
ssg70
g134
sg63
(lp141
g56
(g65
g58
NtRp142
(dp143
g61
(dp144
g69
I4
ssg70
Nsg63
(lp145
sbasbasbasbag56
(g72
g58
NtRp146
(dp147
g61
(dp148
sg70
g66
sg63
(lp149
g56
(g77
g58
NtRp150
(dp151
g61
(dp152
g81
g82
ssg70
g146
sg63
(lp153
S'body'
p154
asbag56
(g77
g58
NtRp155
(dp156
g61
(dp157
g88
g89
ssg70
g146
sg63
(lp158
S':'
asbag56
(g77
g58
NtRp159
(dp160
g61
(dp161
sg70
g146
sg63
(lp162
g56
(g57
g58
NtRp163
(dp164
g61
(dp165
g69
I5
ssg70
g159
sg63
(lp166
S'<cStringIO.StringO object at 0x7fe97041ddc0>'
p167
asbasbasbag56
(g72
g58
NtRp168
(dp169
g61
(dp170
sg70
g66
sg63
(lp171
g56
(g77
g58
NtRp172
(dp173
g61
(dp174
g81
g82
ssg70
g168
sg63
(lp175
S'client'
p176
asbag56
(g77
g58
NtRp177
(dp178
g61
(dp179
g88
g89
ssg70
g168
sg63
(lp180
S':'
asbag56
(g77
g58
NtRp181
(dp182
g61
(dp183
sg70
g168
sg63
(lp184
g56
(g57
g58
NtRp185
(dp186
g61
(dp187
g69
I5
ssg70
g181
sg63
(lp188
S'127.0.0.1'
p189
asbasbasbag56
(g72
g58
NtRp190
(dp191
g61
(dp192
sg70
g66
sg63
(lp193
g56
(g77
g58
NtRp194
(dp195
g61
(dp196
g81
g82
ssg70
g190
sg63
(lp197
S'controller'
p198
asbag56
(g77
g58
NtRp199
(dp200
g61
(dp201
g88
g89
ssg70
g190
sg63
(lp202
S':'
asbag56
(g77
g58
NtRp203
(dp204
g61
(dp205
sg70
g190
sg63
(lp206
g56
(g57
g58
NtRp207
(dp208
g61
(dp209
g69
I5
ssg70
g203
sg63
(lp210
S'default'
p211
asbasbasbag56
(g72
g58
NtRp212
(dp213
g61
(dp214
sg70
g66
sg63
(lp215
g56
(g77
g58
NtRp216
(dp217
g61
(dp218
g81
g82
ssg70
g212
sg63
(lp219
S'cookies'
p220
asbag56
(g77
g58
NtRp221
(dp222
g61
(dp223
g88
g89
ssg70
g212
sg63
(lp224
S':'
asbag56
(g77
g58
NtRp225
(dp226
g61
(dp227
sg70
g212
sg63
(lp228
g56
(g57
g58
NtRp229
(dp230
g61
(dp231
g69
I5
ssg70
g225
sg63
(lp232
g56
(g65
g58
NtRp233
(dp234
g61
(dp235
g69
I4
ssg70
Nsg63
(lp236
g56
(g72
g58
NtRp237
(dp238
g61
(dp239
sg70
g233
sg63
(lp240
g56
(g77
g58
NtRp241
(dp242
g61
(dp243
g81
g82
ssg70
g237
sg63
(lp244
S'session_id_admin'
p245
asbag56
(g77
g58
NtRp246
(dp247
g61
(dp248
g88
g89
ssg70
g237
sg63
(lp249
S':'
asbag56
(g77
g58
NtRp250
(dp251
g61
(dp252
sg70
g237
sg63
(lp253
g56
(g57
g58
NtRp254
(dp255
g61
(dp256
g69
I4
ssg70
g250
sg63
(lp257
g56
(g65
g58
NtRp258
(dp259
g61
(dp260
g69
I3
ssg70
Nsg63
(lp261
g56
(g72
g58
NtRp262
(dp263
g61
(dp264
sg70
g258
sg63
(lp265
g56
(g77
g58
NtRp266
(dp267
g61
(dp268
g81
g82
ssg70
g262
sg63
(lp269
S'comment'
p270
asbag56
(g77
g58
NtRp271
(dp272
g61
(dp273
g88
g89
ssg70
g262
sg63
(lp274
S':'
asbag56
(g77
g58
NtRp275
(dp276
g61
(dp277
sg70
g262
sg63
(lp278
g56
(g57
g58
NtRp279
(dp280
g61
(dp281
g69
I3
ssg70
g275
sg63
(lp282
S''
asbasbasbag56
(g72
g58
NtRp283
(dp284
g61
(dp285
sg70
g258
sg63
(lp286
g56
(g77
g58
NtRp287
(dp288
g61
(dp289
g81
g82
ssg70
g283
sg63
(lp290
S'domain'
p291
asbag56
(g77
g58
NtRp292
(dp293
g61
(dp294
g88
g89
ssg70
g283
sg63
(lp295
S':'
asbag56
(g77
g58
NtRp296
(dp297
g61
(dp298
sg70
g283
sg63
(lp299
g56
(g57
g58
NtRp300
(dp301
g61
(dp302
g69
I3
ssg70
g296
sg63
(lp303
S''
asbasbasbag56
(g72
g58
NtRp304
(dp305
g61
(dp306
sg70
g258
sg63
(lp307
g56
(g77
g58
NtRp308
(dp309
g61
(dp310
g81
g82
ssg70
g304
sg63
(lp311
S'expires'
p312
asbag56
(g77
g58
NtRp313
(dp314
g61
(dp315
g88
g89
ssg70
g304
sg63
(lp316
S':'
asbag56
(g77
g58
NtRp317
(dp318
g61
(dp319
sg70
g304
sg63
(lp320
g56
(g57
g58
NtRp321
(dp322
g61
(dp323
g69
I3
ssg70
g317
sg63
(lp324
S''
asbasbasbag56
(g72
g58
NtRp325
(dp326
g61
(dp327
sg70
g258
sg63
(lp328
g56
(g77
g58
NtRp329
(dp330
g61
(dp331
g81
g82
ssg70
g325
sg63
(lp332
S'httponly'
p333
asbag56
(g77
g58
NtRp334
(dp335
g61
(dp336
g88
g89
ssg70
g325
sg63
(lp337
S':'
asbag56
(g77
g58
NtRp338
(dp339
g61
(dp340
sg70
g325
sg63
(lp341
g56
(g57
g58
NtRp342
(dp343
g61
(dp344
g69
I3
ssg70
g338
sg63
(lp345
S''
asbasbasbag56
(g72
g58
NtRp346
(dp347
g61
(dp348
sg70
g258
sg63
(lp349
g56
(g77
g58
NtRp350
(dp351
g61
(dp352
g81
g82
ssg70
g346
sg63
(lp353
S'max-age'
p354
asbag56
(g77
g58
NtRp355
(dp356
g61
(dp357
g88
g89
ssg70
g346
sg63
(lp358
S':'
asbag56
(g77
g58
NtRp359
(dp360
g61
(dp361
sg70
g346
sg63
(lp362
g56
(g57
g58
NtRp363
(dp364
g61
(dp365
g69
I3
ssg70
g359
sg63
(lp366
S''
asbasbasbag56
(g72
g58
NtRp367
(dp368
g61
(dp369
sg70
g258
sg63
(lp370
g56
(g77
g58
NtRp371
(dp372
g61
(dp373
g81
g82
ssg70
g367
sg63
(lp374
S'path'
p375
asbag56
(g77
g58
NtRp376
(dp377
g61
(dp378
g88
g89
ssg70
g367
sg63
(lp379
S':'
asbag56
(g77
g58
NtRp380
(dp381
g61
(dp382
sg70
g367
sg63
(lp383
g56
(g57
g58
NtRp384
(dp385
g61
(dp386
g69
I3
ssg70
g380
sg63
(lp387
S''
asbasbasbag56
(g72
g58
NtRp388
(dp389
g61
(dp390
sg70
g258
sg63
(lp391
g56
(g77
g58
NtRp392
(dp393
g61
(dp394
g81
g82
ssg70
g388
sg63
(lp395
S'secure'
p396
asbag56
(g77
g58
NtRp397
(dp398
g61
(dp399
g88
g89
ssg70
g388
sg63
(lp400
S':'
asbag56
(g77
g58
NtRp401
(dp402
g61
(dp403
sg70
g388
sg63
(lp404
g56
(g57
g58
NtRp405
(dp406
g61
(dp407
g69
I3
ssg70
g401
sg63
(lp408
S''
asbasbasbag56
(g72
g58
NtRp409
(dp410
g61
(dp411
sg70
g258
sg63
(lp412
g56
(g77
g58
NtRp413
(dp414
g61
(dp415
g81
g82
ssg70
g409
sg63
(lp416
S'version'
p417
asbag56
(g77
g58
NtRp418
(dp419
g61
(dp420
g88
g89
ssg70
g409
sg63
(lp421
S':'
asbag56
(g77
g58
NtRp422
(dp423
g61
(dp424
sg70
g409
sg63
(lp425
g56
(g57
g58
NtRp426
(dp427
g61
(dp428
g69
I3
ssg70
g422
sg63
(lp429
S''
asbasbasbasbasbasbasbag56
(g72
g58
NtRp430
(dp431
g61
(dp432
sg70
g233
sg63
(lp433
g56
(g77
g58
NtRp434
(dp435
g61
(dp436
g81
g82
ssg70
g430
sg63
(lp437
S'session_id_blog'
p438
asbag56
(g77
g58
NtRp439
(dp440
g61
(dp441
g88
g89
ssg70
g430
sg63
(lp442
S':'
asbag56
(g77
g58
NtRp443
(dp444
g61
(dp445
sg70
g430
sg63
(lp446
g56
(g57
g58
NtRp447
(dp448
g61
(dp449
g69
I4
ssg70
g443
sg63
(lp450
g56
(g65
g58
NtRp451
(dp452
g61
(dp453
g69
I3
ssg70
Nsg63
(lp454
g56
(g72
g58
NtRp455
(dp456
g61
(dp457
sg70
g451
sg63
(lp458
g56
(g77
g58
NtRp459
(dp460
g61
(dp461
g81
g82
ssg70
g455
sg63
(lp462
g270
asbag56
(g77
g58
NtRp463
(dp464
g61
(dp465
g88
g89
ssg70
g455
sg63
(lp466
S':'
asbag56
(g77
g58
NtRp467
(dp468
g61
(dp469
sg70
g455
sg63
(lp470
g56
(g57
g58
NtRp471
(dp472
g61
(dp473
g69
I3
ssg70
g467
sg63
(lp474
S''
asbasbasbag56
(g72
g58
NtRp475
(dp476
g61
(dp477
sg70
g451
sg63
(lp478
g56
(g77
g58
NtRp479
(dp480
g61
(dp481
g81
g82
ssg70
g475
sg63
(lp482
g291
asbag56
(g77
g58
NtRp483
(dp484
g61
(dp485
g88
g89
ssg70
g475
sg63
(lp486
S':'
asbag56
(g77
g58
NtRp487
(dp488
g61
(dp489
sg70
g475
sg63
(lp490
g56
(g57
g58
NtRp491
(dp492
g61
(dp493
g69
I3
ssg70
g487
sg63
(lp494
S''
asbasbasbag56
(g72
g58
NtRp495
(dp496
g61
(dp497
sg70
g451
sg63
(lp498
g56
(g77
g58
NtRp499
(dp500
g61
(dp501
g81
g82
ssg70
g495
sg63
(lp502
g312
asbag56
(g77
g58
NtRp503
(dp504
g61
(dp505
g88
g89
ssg70
g495
sg63
(lp506
S':'
asbag56
(g77
g58
NtRp507
(dp508
g61
(dp509
sg70
g495
sg63
(lp510
g56
(g57
g58
NtRp511
(dp512
g61
(dp513
g69
I3
ssg70
g507
sg63
(lp514
S''
asbasbasbag56
(g72
g58
NtRp515
(dp516
g61
(dp517
sg70
g451
sg63
(lp518
g56
(g77
g58
NtRp519
(dp520
g61
(dp521
g81
g82
ssg70
g515
sg63
(lp522
g333
asbag56
(g77
g58
NtRp523
(dp524
g61
(dp525
g88
g89
ssg70
g515
sg63
(lp526
S':'
asbag56
(g77
g58
NtRp527
(dp528
g61
(dp529
sg70
g515
sg63
(lp530
g56
(g57
g58
NtRp531
(dp532
g61
(dp533
g69
I3
ssg70
g527
sg63
(lp534
S''
asbasbasbag56
(g72
g58
NtRp535
(dp536
g61
(dp537
sg70
g451
sg63
(lp538
g56
(g77
g58
NtRp539
(dp540
g61
(dp541
g81
g82
ssg70
g535
sg63
(lp542
g354
asbag56
(g77
g58
NtRp543
(dp544
g61
(dp545
g88
g89
ssg70
g535
sg63
(lp546
S':'
asbag56
(g77
g58
NtRp547
(dp548
g61
(dp549
sg70
g535
sg63
(lp550
g56
(g57
g58
NtRp551
(dp552
g61
(dp553
g69
I3
ssg70
g547
sg63
(lp554
S''
asbasbasbag56
(g72
g58
NtRp555
(dp556
g61
(dp557
sg70
g451
sg63
(lp558
g56
(g77
g58
NtRp559
(dp560
g61
(dp561
g81
g82
ssg70
g555
sg63
(lp562
g375
asbag56
(g77
g58
NtRp563
(dp564
g61
(dp565
g88
g89
ssg70
g555
sg63
(lp566
S':'
asbag56
(g77
g58
NtRp567
(dp568
g61
(dp569
sg70
g555
sg63
(lp570
g56
(g57
g58
NtRp571
(dp572
g61
(dp573
g69
I3
ssg70
g567
sg63
(lp574
S''
asbasbasbag56
(g72
g58
NtRp575
(dp576
g61
(dp577
sg70
g451
sg63
(lp578
g56
(g77
g58
NtRp579
(dp580
g61
(dp581
g81
g82
ssg70
g575
sg63
(lp582
g396
asbag56
(g77
g58
NtRp583
(dp584
g61
(dp585
g88
g89
ssg70
g575
sg63
(lp586
S':'
asbag56
(g77
g58
NtRp587
(dp588
g61
(dp589
sg70
g575
sg63
(lp590
g56
(g57
g58
NtRp591
(dp592
g61
(dp593
g69
I3
ssg70
g587
sg63
(lp594
S''
asbasbasbag56
(g72
g58
NtRp595
(dp596
g61
(dp597
sg70
g451
sg63
(lp598
g56
(g77
g58
NtRp599
(dp600
g61
(dp601
g81
g82
ssg70
g595
sg63
(lp602
g417
asbag56
(g77
g58
NtRp603
(dp604
g61
(dp605
g88
g89
ssg70
g595
sg63
(lp606
S':'
asbag56
(g77
g58
NtRp607
(dp608
g61
(dp609
sg70
g595
sg63
(lp610
g56
(g57
g58
NtRp611
(dp612
g61
(dp613
g69
I3
ssg70
g607
sg63
(lp614
S''
asbasbasbasbasbasbasbag56
(g72
g58
NtRp615
(dp616
g61
(dp617
sg70
g233
sg63
(lp618
g56
(g77
g58
NtRp619
(dp620
g61
(dp621
g81
g82
ssg70
g615
sg63
(lp622
S'session_id_welcome'
p623
asbag56
(g77
g58
NtRp624
(dp625
g61
(dp626
g88
g89
ssg70
g615
sg63
(lp627
S':'
asbag56
(g77
g58
NtRp628
(dp629
g61
(dp630
sg70
g615
sg63
(lp631
g56
(g57
g58
NtRp632
(dp633
g61
(dp634
g69
I4
ssg70
g628
sg63
(lp635
g56
(g65
g58
NtRp636
(dp637
g61
(dp638
g69
I3
ssg70
Nsg63
(lp639
g56
(g72
g58
NtRp640
(dp641
g61
(dp642
sg70
g636
sg63
(lp643
g56
(g77
g58
NtRp644
(dp645
g61
(dp646
g81
g82
ssg70
g640
sg63
(lp647
g270
asbag56
(g77
g58
NtRp648
(dp649
g61
(dp650
g88
g89
ssg70
g640
sg63
(lp651
S':'
asbag56
(g77
g58
NtRp652
(dp653
g61
(dp654
sg70
g640
sg63
(lp655
g56
(g57
g58
NtRp656
(dp657
g61
(dp658
g69
I3
ssg70
g652
sg63
(lp659
S''
asbasbasbag56
(g72
g58
NtRp660
(dp661
g61
(dp662
sg70
g636
sg63
(lp663
g56
(g77
g58
NtRp664
(dp665
g61
(dp666
g81
g82
ssg70
g660
sg63
(lp667
g291
asbag56
(g77
g58
NtRp668
(dp669
g61
(dp670
g88
g89
ssg70
g660
sg63
(lp671
S':'
asbag56
(g77
g58
NtRp672
(dp673
g61
(dp674
sg70
g660
sg63
(lp675
g56
(g57
g58
NtRp676
(dp677
g61
(dp678
g69
I3
ssg70
g672
sg63
(lp679
S''
asbasbasbag56
(g72
g58
NtRp680
(dp681
g61
(dp682
sg70
g636
sg63
(lp683
g56
(g77
g58
NtRp684
(dp685
g61
(dp686
g81
g82
ssg70
g680
sg63
(lp687
g312
asbag56
(g77
g58
NtRp688
(dp689
g61
(dp690
g88
g89
ssg70
g680
sg63
(lp691
S':'
asbag56
(g77
g58
NtRp692
(dp693
g61
(dp694
sg70
g680
sg63
(lp695
g56
(g57
g58
NtRp696
(dp697
g61
(dp698
g69
I3
ssg70
g692
sg63
(lp699
S''
asbasbasbag56
(g72
g58
NtRp700
(dp701
g61
(dp702
sg70
g636
sg63
(lp703
g56
(g77
g58
NtRp704
(dp705
g61
(dp706
g81
g82
ssg70
g700
sg63
(lp707
g333
asbag56
(g77
g58
NtRp708
(dp709
g61
(dp710
g88
g89
ssg70
g700
sg63
(lp711
S':'
asbag56
(g77
g58
NtRp712
(dp713
g61
(dp714
sg70
g700
sg63
(lp715
g56
(g57
g58
NtRp716
(dp717
g61
(dp718
g69
I3
ssg70
g712
sg63
(lp719
S''
asbasbasbag56
(g72
g58
NtRp720
(dp721
g61
(dp722
sg70
g636
sg63
(lp723
g56
(g77
g58
NtRp724
(dp725
g61
(dp726
g81
g82
ssg70
g720
sg63
(lp727
g354
asbag56
(g77
g58
NtRp728
(dp729
g61
(dp730
g88
g89
ssg70
g720
sg63
(lp731
S':'
asbag56
(g77
g58
NtRp732
(dp733
g61
(dp734
sg70
g720
sg63
(lp735
g56
(g57
g58
NtRp736
(dp737
g61
(dp738
g69
I3
ssg70
g732
sg63
(lp739
S''
asbasbasbag56
(g72
g58
NtRp740
(dp741
g61
(dp742
sg70
g636
sg63
(lp743
g56
(g77
g58
NtRp744
(dp745
g61
(dp746
g81
g82
ssg70
g740
sg63
(lp747
g375
asbag56
(g77
g58
NtRp748
(dp749
g61
(dp750
g88
g89
ssg70
g740
sg63
(lp751
S':'
asbag56
(g77
g58
NtRp752
(dp753
g61
(dp754
sg70
g740
sg63
(lp755
g56
(g57
g58
NtRp756
(dp757
g61
(dp758
g69
I3
ssg70
g752
sg63
(lp759
S''
asbasbasbag56
(g72
g58
NtRp760
(dp761
g61
(dp762
sg70
g636
sg63
(lp763
g56
(g77
g58
NtRp764
(dp765
g61
(dp766
g81
g82
ssg70
g760
sg63
(lp767
g396
asbag56
(g77
g58
NtRp768
(dp769
g61
(dp770
g88
g89
ssg70
g760
sg63
(lp771
S':'
asbag56
(g77
g58
NtRp772
(dp773
g61
(dp774
sg70
g760
sg63
(lp775
g56
(g57
g58
NtRp776
(dp777
g61
(dp778
g69
I3
ssg70
g772
sg63
(lp779
S''
asbasbasbag56
(g72
g58
NtRp780
(dp781
g61
(dp782
sg70
g636
sg63
(lp783
g56
(g77
g58
NtRp784
(dp785
g61
(dp786
g81
g82
ssg70
g780
sg63
(lp787
g417
asbag56
(g77
g58
NtRp788
(dp789
g61
(dp790
g88
g89
ssg70
g780
sg63
(lp791
S':'
asbag56
(g77
g58
NtRp792
(dp793
g61
(dp794
sg70
g780
sg63
(lp795
g56
(g57
g58
NtRp796
(dp797
g61
(dp798
g69
I3
ssg70
g792
sg63
(lp799
S''
asbasbasbasbasbasbasbasbasbasbasbag56
(g72
g58
NtRp800
(dp801
g61
(dp802
sg70
g66
sg63
(lp803
g56
(g77
g58
NtRp804
(dp805
g61
(dp806
g81
g82
ssg70
g800
sg63
(lp807
S'env'
p808
asbag56
(g77
g58
NtRp809
(dp810
g61
(dp811
g88
g89
ssg70
g800
sg63
(lp812
S':'
asbag56
(g77
g58
NtRp813
(dp814
g61
(dp815
sg70
g800
sg63
(lp816
g56
(g57
g58
NtRp817
(dp818
g61
(dp819
g69
I5
ssg70
g813
sg63
(lp820
g56
(g65
g58
NtRp821
(dp822
g61
(dp823
g69
I4
ssg70
Nsg63
(lp824
g56
(g72
g58
NtRp825
(dp826
g61
(dp827
sg70
g821
sg63
(lp828
g56
(g77
g58
NtRp829
(dp830
g61
(dp831
g81
g82
ssg70
g825
sg63
(lp832
S'app_folders'
p833
asbag56
(g77
g58
NtRp834
(dp835
g61
(dp836
g88
g89
ssg70
g825
sg63
(lp837
S':'
asbag56
(g77
g58
NtRp838
(dp839
g61
(dp840
sg70
g825
sg63
(lp841
g56
(g57
g58
NtRp842
(dp843
g61
(dp844
g69
I4
ssg70
g838
sg63
(lp845
S"set(['/media/misperoles/git/pyj3nnn1/web2py/applications/admin/', '/media/misperoles/git/pyj3nnn1/web2py/applications/blog/', '/media/misperoles/git/pyj3nnn1/web2py/applications/welcome/'])"
p846
asbasbasbag56
(g72
g58
NtRp847
(dp848
g61
(dp849
sg70
g821
sg63
(lp850
g56
(g77
g58
NtRp851
(dp852
g61
(dp853
g81
g82
ssg70
g847
sg63
(lp854
S'applications_parent'
p855
asbag56
(g77
g58
NtRp856
(dp857
g61
(dp858
g88
g89
ssg70
g847
sg63
(lp859
S':'
asbag56
(g77
g58
NtRp860
(dp861
g61
(dp862
sg70
g847
sg63
(lp863
g56
(g57
g58
NtRp864
(dp865
g61
(dp866
g69
I4
ssg70
g860
sg63
(lp867
S'/media/misperoles/git/pyj3nnn1/web2py'
p868
asbasbasbag56
(g72
g58
NtRp869
(dp870
g61
(dp871
sg70
g821
sg63
(lp872
g56
(g77
g58
NtRp873
(dp874
g61
(dp875
g81
g82
ssg70
g869
sg63
(lp876
S'cmd_args'
p877
asbag56
(g77
g58
NtRp878
(dp879
g61
(dp880
g88
g89
ssg70
g869
sg63
(lp881
S':'
asbag56
(g77
g58
NtRp882
(dp883
g61
(dp884
sg70
g869
sg63
(lp885
g56
(g57
g58
NtRp886
(dp887
g61
(dp888
g69
I4
ssg70
g882
sg63
(lp889
g56
(g65
g58
NtRp890
(dp891
g61
(dp892
g69
I3
ssg70
Nsg63
(lp893
sbasbasbasbag56
(g72
g58
NtRp894
(dp895
g61
(dp896
sg70
g821
sg63
(lp897
g56
(g77
g58
NtRp898
(dp899
g61
(dp900
g81
g82
ssg70
g894
sg63
(lp901
S'cmd_options'
p902
asbag56
(g77
g58
NtRp903
(dp904
g61
(dp905
g88
g89
ssg70
g894
sg63
(lp906
S':'
asbag56
(g77
g58
NtRp907
(dp908
g61
(dp909
sg70
g894
sg63
(lp910
g56
(g57
g58
NtRp911
(dp912
g61
(dp913
g69
I4
ssg70
g907
sg63
(lp914
S"<Values at 0x1cdc7e8: {'verbose': False, 'ip': '127.0.0.1', 'shutdown_timeout': 5, 'taskbar': False, 'nocron': False, 'pid_filename': 'httpserver.pid', 'maxthreads': None, 'softcron': False, 'server_name': 'Diotima', 'bpython': False, 'nogui': False, 'port': 8000, 'extcron': False, 'debuglevel': 30, 'test': None, 'folder': '/media/misperoles/git/pyj3nnn1/web2py', 'config': '', 'import_models': False, 'winservice': '', 'shell': None, 'run': '', 'log_filename': 'httpserver.log', 'args': [''], 'ssl_ca_certificate': None, 'scheduler': None, 'profiler_filename': None, 'ssl_private_key': '', 'password': '<ask>', 'request_queue_size': 5, 'ssl_certificate': '', 'cronjob': False, 'plain': False, 'quiet': False, 'interfaces': None, 'minthreads': None, 'timeout': 10, 'numthreads': None, 'nobanner': False}>"
p915
asbasbasbag56
(g72
g58
NtRp916
(dp917
g61
(dp918
sg70
g821
sg63
(lp919
g56
(g77
g58
NtRp920
(dp921
g61
(dp922
g81
g82
ssg70
g916
sg63
(lp923
S'db_sessions'
p924
asbag56
(g77
g58
NtRp925
(dp926
g61
(dp927
g88
g89
ssg70
g916
sg63
(lp928
S':'
asbag56
(g77
g58
NtRp929
(dp930
g61
(dp931
sg70
g916
sg63
(lp932
g56
(g57
g58
NtRp933
(dp934
g61
(dp935
g69
I4
ssg70
g929
sg63
(lp936
S'set([])'
p937
asbasbasbag56
(g72
g58
NtRp938
(dp939
g61
(dp940
sg70
g821
sg63
(lp941
g56
(g77
g58
NtRp942
(dp943
g61
(dp944
g81
g82
ssg70
g938
sg63
(lp945
S'debugging'
p946
asbag56
(g77
g58
NtRp947
(dp948
g61
(dp949
g88
g89
ssg70
g938
sg63
(lp950
S':'
asbag56
(g77
g58
NtRp951
(dp952
g61
(dp953
sg70
g938
sg63
(lp954
g56
(g57
g58
NtRp955
(dp956
g61
(dp957
g69
I4
ssg70
g951
sg63
(lp958
g99
asbasbasbag56
(g72
g58
NtRp959
(dp960
g61
(dp961
sg70
g821
sg63
(lp962
g56
(g77
g58
NtRp963
(dp964
g61
(dp965
g81
g82
ssg70
g959
sg63
(lp966
S'gluon_parent'
p967
asbag56
(g77
g58
NtRp968
(dp969
g61
(dp970
g88
g89
ssg70
g959
sg63
(lp971
S':'
asbag56
(g77
g58
NtRp972
(dp973
g61
(dp974
sg70
g959
sg63
(lp975
g56
(g57
g58
NtRp976
(dp977
g61
(dp978
g69
I4
ssg70
g972
sg63
(lp979
S'/media/misperoles/git/pyj3nnn1/web2py'
p980
asbasbasbag56
(g72
g58
NtRp981
(dp982
g61
(dp983
sg70
g821
sg63
(lp984
g56
(g77
g58
NtRp985
(dp986
g61
(dp987
g81
g82
ssg70
g981
sg63
(lp988
S'http_accept'
p989
asbag56
(g77
g58
NtRp990
(dp991
g61
(dp992
g88
g89
ssg70
g981
sg63
(lp993
S':'
asbag56
(g77
g58
NtRp994
(dp995
g61
(dp996
sg70
g981
sg63
(lp997
g56
(g57
g58
NtRp998
(dp999
g61
(dp1000
g69
I4
ssg70
g994
sg63
(lp1001
S'text/html,application/xhtml+xml,application/xml;q=0.9,*/*;q=0.8'
p1002
asbasbasbag56
(g72
g58
NtRp1003
(dp1004
g61
(dp1005
sg70
g821
sg63
(lp1006
g56
(g77
g58
NtRp1007
(dp1008
g61
(dp1009
g81
g82
ssg70
g1003
sg63
(lp1010
S'http_accept_charset'
p1011
asbag56
(g77
g58
NtRp1012
(dp1013
g61
(dp1014
g88
g89
ssg70
g1003
sg63
(lp1015
S':'
asbag56
(g77
g58
NtRp1016
(dp1017
g61
(dp1018
sg70
g1003
sg63
(lp1019
g56
(g57
g58
NtRp1020
(dp1021
g61
(dp1022
g69
I4
ssg70
g1016
sg63
(lp1023
S'ISO-8859-1,utf-8;q=0.7,*;q=0.7'
p1024
asbasbasbag56
(g72
g58
NtRp1025
(dp1026
g61
(dp1027
sg70
g821
sg63
(lp1028
g56
(g77
g58
NtRp1029
(dp1030
g61
(dp1031
g81
g82
ssg70
g1025
sg63
(lp1032
S'http_accept_encoding'
p1033
asbag56
(g77
g58
NtRp1034
(dp1035
g61
(dp1036
g88
g89
ssg70
g1025
sg63
(lp1037
S':'
asbag56
(g77
g58
NtRp1038
(dp1039
g61
(dp1040
sg70
g1025
sg63
(lp1041
g56
(g57
g58
NtRp1042
(dp1043
g61
(dp1044
g69
I4
ssg70
g1038
sg63
(lp1045
S'gzip, deflate'
p1046
asbasbasbag56
(g72
g58
NtRp1047
(dp1048
g61
(dp1049
sg70
g821
sg63
(lp1050
g56
(g77
g58
NtRp1051
(dp1052
g61
(dp1053
g81
g82
ssg70
g1047
sg63
(lp1054
S'http_accept_language'
p1055
asbag56
(g77
g58
NtRp1056
(dp1057
g61
(dp1058
g88
g89
ssg70
g1047
sg63
(lp1059
S':'
asbag56
(g77
g58
NtRp1060
(dp1061
g61
(dp1062
sg70
g1047
sg63
(lp1063
g56
(g57
g58
NtRp1064
(dp1065
g61
(dp1066
g69
I4
ssg70
g1060
sg63
(lp1067
S'en-us,en;q=0.5'
p1068
asbasbasbag56
(g72
g58
NtRp1069
(dp1070
g61
(dp1071
sg70
g821
sg63
(lp1072
g56
(g77
g58
NtRp1073
(dp1074
g61
(dp1075
g81
g82
ssg70
g1069
sg63
(lp1076
S'http_connection'
p1077
asbag56
(g77
g58
NtRp1078
(dp1079
g61
(dp1080
g88
g89
ssg70
g1069
sg63
(lp1081
S':'
asbag56
(g77
g58
NtRp1082
(dp1083
g61
(dp1084
sg70
g1069
sg63
(lp1085
g56
(g57
g58
NtRp1086
(dp1087
g61
(dp1088
g69
I4
ssg70
g1082
sg63
(lp1089
S'keep-alive'
p1090
asbasbasbag56
(g72
g58
NtRp1091
(dp1092
g61
(dp1093
sg70
g821
sg63
(lp1094
g56
(g77
g58
NtRp1095
(dp1096
g61
(dp1097
g81
g82
ssg70
g1091
sg63
(lp1098
S'http_cookie'
p1099
asbag56
(g77
g58
NtRp1100
(dp1101
g61
(dp1102
g88
g89
ssg70
g1091
sg63
(lp1103
S':'
asbag56
(g77
g58
NtRp1104
(dp1105
g61
(dp1106
sg70
g1091
sg63
(lp1107
g56
(g57
g58
NtRp1108
(dp1109
g61
(dp1110
g69
I4
ssg70
g1104
sg63
(lp1111
S'session_id_blog=127.0.0.1-9f13a1c2-ceb3-4136-a3a8-629ae0a8e7c1; session_id_welcome=127.0.0.1-96b2a66f-ad62-4f92-b25f-a831c3cb17db; session_id_admin=127.0.0.1-f03ec27a-718d-4653-8522-92fe2f9856ae'
p1112
asbasbasbag56
(g72
g58
NtRp1113
(dp1114
g61
(dp1115
sg70
g821
sg63
(lp1116
g56
(g77
g58
NtRp1117
(dp1118
g61
(dp1119
g81
g82
ssg70
g1113
sg63
(lp1120
S'http_host'
p1121
asbag56
(g77
g58
NtRp1122
(dp1123
g61
(dp1124
g88
g89
ssg70
g1113
sg63
(lp1125
S':'
asbag56
(g77
g58
NtRp1126
(dp1127
g61
(dp1128
sg70
g1113
sg63
(lp1129
g56
(g57
g58
NtRp1130
(dp1131
g61
(dp1132
g69
I4
ssg70
g1126
sg63
(lp1133
S'127.0.0.1:8000'
p1134
asbasbasbag56
(g72
g58
NtRp1135
(dp1136
g61
(dp1137
sg70
g821
sg63
(lp1138
g56
(g77
g58
NtRp1139
(dp1140
g61
(dp1141
g81
g82
ssg70
g1135
sg63
(lp1142
S'http_user_agent'
p1143
asbag56
(g77
g58
NtRp1144
(dp1145
g61
(dp1146
g88
g89
ssg70
g1135
sg63
(lp1147
S':'
asbag56
(g77
g58
NtRp1148
(dp1149
g61
(dp1150
sg70
g1135
sg63
(lp1151
g56
(g57
g58
NtRp1152
(dp1153
g61
(dp1154
g69
I4
ssg70
g1148
sg63
(lp1155
S'Mozilla/5.0 (X11; Linux x86_64; rv:9.0.1) Gecko/20100101 Firefox/9.0.1'
p1156
asbasbasbag56
(g72
g58
NtRp1157
(dp1158
g61
(dp1159
sg70
g821
sg63
(lp1160
g56
(g77
g58
NtRp1161
(dp1162
g61
(dp1163
g81
g82
ssg70
g1157
sg63
(lp1164
S'is_jython'
p1165
asbag56
(g77
g58
NtRp1166
(dp1167
g61
(dp1168
g88
g89
ssg70
g1157
sg63
(lp1169
S':'
asbag56
(g77
g58
NtRp1170
(dp1171
g61
(dp1172
sg70
g1157
sg63
(lp1173
g56
(g57
g58
NtRp1174
(dp1175
g61
(dp1176
g69
I4
ssg70
g1170
sg63
(lp1177
g99
asbasbasbag56
(g72
g58
NtRp1178
(dp1179
g61
(dp1180
sg70
g821
sg63
(lp1181
g56
(g77
g58
NtRp1182
(dp1183
g61
(dp1184
g81
g82
ssg70
g1178
sg63
(lp1185
S'path_info'
p1186
asbag56
(g77
g58
NtRp1187
(dp1188
g61
(dp1189
g88
g89
ssg70
g1178
sg63
(lp1190
S':'
asbag56
(g77
g58
NtRp1191
(dp1192
g61
(dp1193
sg70
g1178
sg63
(lp1194
g56
(g57
g58
NtRp1195
(dp1196
g61
(dp1197
g69
I4
ssg70
g1191
sg63
(lp1198
S'/'
asbasbasbag56
(g72
g58
NtRp1199
(dp1200
g61
(dp1201
sg70
g821
sg63
(lp1202
g56
(g77
g58
NtRp1203
(dp1204
g61
(dp1205
g81
g82
ssg70
g1199
sg63
(lp1206
S'query_string'
p1207
asbag56
(g77
g58
NtRp1208
(dp1209
g61
(dp1210
g88
g89
ssg70
g1199
sg63
(lp1211
S':'
asbag56
(g77
g58
NtRp1212
(dp1213
g61
(dp1214
sg70
g1199
sg63
(lp1215
g56
(g57
g58
NtRp1216
(dp1217
g61
(dp1218
g69
I4
ssg70
g1212
sg63
(lp1219
S''
asbasbasbag56
(g72
g58
NtRp1220
(dp1221
g61
(dp1222
sg70
g821
sg63
(lp1223
g56
(g77
g58
NtRp1224
(dp1225
g61
(dp1226
g81
g82
ssg70
g1220
sg63
(lp1227
S'remote_addr'
p1228
asbag56
(g77
g58
NtRp1229
(dp1230
g61
(dp1231
g88
g89
ssg70
g1220
sg63
(lp1232
S':'
asbag56
(g77
g58
NtRp1233
(dp1234
g61
(dp1235
sg70
g1220
sg63
(lp1236
g56
(g57
g58
NtRp1237
(dp1238
g61
(dp1239
g69
I4
ssg70
g1233
sg63
(lp1240
g189
asbasbasbag56
(g72
g58
NtRp1241
(dp1242
g61
(dp1243
sg70
g821
sg63
(lp1244
g56
(g77
g58
NtRp1245
(dp1246
g61
(dp1247
g81
g82
ssg70
g1241
sg63
(lp1248
S'remote_port'
p1249
asbag56
(g77
g58
NtRp1250
(dp1251
g61
(dp1252
g88
g89
ssg70
g1241
sg63
(lp1253
S':'
asbag56
(g77
g58
NtRp1254
(dp1255
g61
(dp1256
sg70
g1241
sg63
(lp1257
g56
(g57
g58
NtRp1258
(dp1259
g61
(dp1260
g69
I4
ssg70
g1254
sg63
(lp1261
S'55160'
p1262
asbasbasbag56
(g72
g58
NtRp1263
(dp1264
g61
(dp1265
sg70
g821
sg63
(lp1266
g56
(g77
g58
NtRp1267
(dp1268
g61
(dp1269
g81
g82
ssg70
g1263
sg63
(lp1270
S'request_method'
p1271
asbag56
(g77
g58
NtRp1272
(dp1273
g61
(dp1274
g88
g89
ssg70
g1263
sg63
(lp1275
S':'
asbag56
(g77
g58
NtRp1276
(dp1277
g61
(dp1278
sg70
g1263
sg63
(lp1279
g56
(g57
g58
NtRp1280
(dp1281
g61
(dp1282
g69
I4
ssg70
g1276
sg63
(lp1283
S'GET'
p1284
asbasbasbag56
(g72
g58
NtRp1285
(dp1286
g61
(dp1287
sg70
g821
sg63
(lp1288
g56
(g77
g58
NtRp1289
(dp1290
g61
(dp1291
g81
g82
ssg70
g1285
sg63
(lp1292
S'request_uri'
p1293
asbag56
(g77
g58
NtRp1294
(dp1295
g61
(dp1296
g88
g89
ssg70
g1285
sg63
(lp1297
S':'
asbag56
(g77
g58
NtRp1298
(dp1299
g61
(dp1300
sg70
g1285
sg63
(lp1301
g56
(g57
g58
NtRp1302
(dp1303
g61
(dp1304
g69
I4
ssg70
g1298
sg63
(lp1305
S'/'
asbasbasbag56
(g72
g58
NtRp1306
(dp1307
g61
(dp1308
sg70
g821
sg63
(lp1309
g56
(g77
g58
NtRp1310
(dp1311
g61
(dp1312
g81
g82
ssg70
g1306
sg63
(lp1313
S'script_name'
p1314
asbag56
(g77
g58
NtRp1315
(dp1316
g61
(dp1317
g88
g89
ssg70
g1306
sg63
(lp1318
S':'
asbag56
(g77
g58
NtRp1319
(dp1320
g61
(dp1321
sg70
g1306
sg63
(lp1322
g56
(g57
g58
NtRp1323
(dp1324
g61
(dp1325
g69
I4
ssg70
g1319
sg63
(lp1326
S''
asbasbasbag56
(g72
g58
NtRp1327
(dp1328
g61
(dp1329
sg70
g821
sg63
(lp1330
g56
(g77
g58
NtRp1331
(dp1332
g61
(dp1333
g81
g82
ssg70
g1327
sg63
(lp1334
S'server_name'
p1335
asbag56
(g77
g58
NtRp1336
(dp1337
g61
(dp1338
g88
g89
ssg70
g1327
sg63
(lp1339
S':'
asbag56
(g77
g58
NtRp1340
(dp1341
g61
(dp1342
sg70
g1327
sg63
(lp1343
g56
(g57
g58
NtRp1344
(dp1345
g61
(dp1346
g69
I4
ssg70
g1340
sg63
(lp1347
S'Diotima'
p1348
asbasbasbag56
(g72
g58
NtRp1349
(dp1350
g61
(dp1351
sg70
g821
sg63
(lp1352
g56
(g77
g58
NtRp1353
(dp1354
g61
(dp1355
g81
g82
ssg70
g1349
sg63
(lp1356
S'server_port'
p1357
asbag56
(g77
g58
NtRp1358
(dp1359
g61
(dp1360
g88
g89
ssg70
g1349
sg63
(lp1361
S':'
asbag56
(g77
g58
NtRp1362
(dp1363
g61
(dp1364
sg70
g1349
sg63
(lp1365
g56
(g57
g58
NtRp1366
(dp1367
g61
(dp1368
g69
I4
ssg70
g1362
sg63
(lp1369
S'8000'
p1370
asbasbasbag56
(g72
g58
NtRp1371
(dp1372
g61
(dp1373
sg70
g821
sg63
(lp1374
g56
(g77
g58
NtRp1375
(dp1376
g61
(dp1377
g81
g82
ssg70
g1371
sg63
(lp1378
S'server_protocol'
p1379
asbag56
(g77
g58
NtRp1380
(dp1381
g61
(dp1382
g88
g89
ssg70
g1371
sg63
(lp1383
S':'
asbag56
(g77
g58
NtRp1384
(dp1385
g61
(dp1386
sg70
g1371
sg63
(lp1387
g56
(g57
g58
NtRp1388
(dp1389
g61
(dp1390
g69
I4
ssg70
g1384
sg63
(lp1391
S'HTTP/1.1'
p1392
asbasbasbag56
(g72
g58
NtRp1393
(dp1394
g61
(dp1395
sg70
g821
sg63
(lp1396
g56
(g77
g58
NtRp1397
(dp1398
g61
(dp1399
g81
g82
ssg70
g1393
sg63
(lp1400
S'server_software'
p1401
asbag56
(g77
g58
NtRp1402
(dp1403
g61
(dp1404
g88
g89
ssg70
g1393
sg63
(lp1405
S':'
asbag56
(g77
g58
NtRp1406
(dp1407
g61
(dp1408
sg70
g1393
sg63
(lp1409
g56
(g57
g58
NtRp1410
(dp1411
g61
(dp1412
g69
I4
ssg70
g1406
sg63
(lp1413
S'Rocket 1.2.4'
p1414
asbasbasbag56
(g72
g58
NtRp1415
(dp1416
g61
(dp1417
sg70
g821
sg63
(lp1418
g56
(g77
g58
NtRp1419
(dp1420
g61
(dp1421
g81
g82
ssg70
g1415
sg63
(lp1422
S'web2py_crontype'
p1423
asbag56
(g77
g58
NtRp1424
(dp1425
g61
(dp1426
g88
g89
ssg70
g1415
sg63
(lp1427
S':'
asbag56
(g77
g58
NtRp1428
(dp1429
g61
(dp1430
sg70
g1415
sg63
(lp1431
g56
(g57
g58
NtRp1432
(dp1433
g61
(dp1434
g69
I4
ssg70
g1428
sg63
(lp1435
S'hard'
p1436
asbasbasbag56
(g72
g58
NtRp1437
(dp1438
g61
(dp1439
sg70
g821
sg63
(lp1440
g56
(g77
g58
NtRp1441
(dp1442
g61
(dp1443
g81
g82
ssg70
g1437
sg63
(lp1444
S'web2py_original_uri'
p1445
asbag56
(g77
g58
NtRp1446
(dp1447
g61
(dp1448
g88
g89
ssg70
g1437
sg63
(lp1449
S':'
asbag56
(g77
g58
NtRp1450
(dp1451
g61
(dp1452
sg70
g1437
sg63
(lp1453
g56
(g57
g58
NtRp1454
(dp1455
g61
(dp1456
g69
I4
ssg70
g1450
sg63
(lp1457
S'/'
asbasbasbag56
(g72
g58
NtRp1458
(dp1459
g61
(dp1460
sg70
g821
sg63
(lp1461
g56
(g77
g58
NtRp1462
(dp1463
g61
(dp1464
g81
g82
ssg70
g1458
sg63
(lp1465
S'web2py_path'
p1466
asbag56
(g77
g58
NtRp1467
(dp1468
g61
(dp1469
g88
g89
ssg70
g1458
sg63
(lp1470
S':'
asbag56
(g77
g58
NtRp1471
(dp1472
g61
(dp1473
sg70
g1458
sg63
(lp1474
g56
(g57
g58
NtRp1475
(dp1476
g61
(dp1477
g69
I4
ssg70
g1471
sg63
(lp1478
g868
asbasbasbag56
(g72
g58
NtRp1479
(dp1480
g61
(dp1481
sg70
g821
sg63
(lp1482
g56
(g77
g58
NtRp1483
(dp1484
g61
(dp1485
g81
g82
ssg70
g1479
sg63
(lp1486
S'web2py_version'
p1487
asbag56
(g77
g58
NtRp1488
(dp1489
g61
(dp1490
g88
g89
ssg70
g1479
sg63
(lp1491
S':'
asbag56
(g77
g58
NtRp1492
(dp1493
g61
(dp1494
sg70
g1479
sg63
(lp1495
g56
(g57
g58
NtRp1496
(dp1497
g61
(dp1498
g69
I4
ssg70
g1492
sg63
(lp1499
g56
(g65
g58
NtRp1500
(dp1501
g61
(dp1502
g69
I3
ssg70
Nsg63
(lp1503
g56
(g72
g58
NtRp1504
(dp1505
g61
(dp1506
sg70
g1500
sg63
(lp1507
g56
(g77
g58
NtRp1508
(dp1509
g61
(dp1510
sg70
g1504
sg63
(lp1511
g56
(g57
g58
NtRp1512
(dp1513
g61
(dp1514
g69
I3
ssg70
g1508
sg63
(lp1515
S'1'
asbasbasbag56
(g72
g58
NtRp1516
(dp1517
g61
(dp1518
sg70
g1500
sg63
(lp1519
g56
(g77
g58
NtRp1520
(dp1521
g61
(dp1522
sg70
g1516
sg63
(lp1523
g56
(g57
g58
NtRp1524
(dp1525
g61
(dp1526
g69
I3
ssg70
g1520
sg63
(lp1527
S'99'
p1528
asbasbasbag56
(g72
g58
NtRp1529
(dp1530
g61
(dp1531
sg70
g1500
sg63
(lp1532
g56
(g77
g58
NtRp1533
(dp1534
g61
(dp1535
sg70
g1529
sg63
(lp1536
g56
(g57
g58
NtRp1537
(dp1538
g61
(dp1539
g69
I3
ssg70
g1533
sg63
(lp1540
S'2'
asbasbasbag56
(g72
g58
NtRp1541
(dp1542
g61
(dp1543
sg70
g1500
sg63
(lp1544
g56
(g77
g58
NtRp1545
(dp1546
g61
(dp1547
sg70
g1541
sg63
(lp1548
g56
(g57
g58
NtRp1549
(dp1550
g61
(dp1551
g69
I3
ssg70
g1545
sg63
(lp1552
S'datetime.datetime(2011, 9, 26, 6, 55, 33)'
p1553
asbasbasbag56
(g72
g58
NtRp1554
(dp1555
g61
(dp1556
sg70
g1500
sg63
(lp1557
g56
(g77
g58
NtRp1558
(dp1559
g61
(dp1560
sg70
g1554
sg63
(lp1561
g56
(g57
g58
NtRp1562
(dp1563
g61
(dp1564
g69
I3
ssg70
g1558
sg63
(lp1565
S'stable'
p1566
asbasbasbasbasbasbasbag56
(g72
g58
NtRp1567
(dp1568
g61
(dp1569
sg70
g821
sg63
(lp1570
g56
(g77
g58
NtRp1571
(dp1572
g61
(dp1573
g81
g82
ssg70
g1567
sg63
(lp1574
S'wsgi_errors'
p1575
asbag56
(g77
g58
NtRp1576
(dp1577
g61
(dp1578
g88
g89
ssg70
g1567
sg63
(lp1579
S':'
asbag56
(g77
g58
NtRp1580
(dp1581
g61
(dp1582
sg70
g1567
sg63
(lp1583
g56
(g57
g58
NtRp1584
(dp1585
g61
(dp1586
g69
I4
ssg70
g1580
sg63
(lp1587
S"<open file '<stderr>', mode 'w' at 0x7fe9acfe5270>"
p1588
asbasbasbag56
(g72
g58
NtRp1589
(dp1590
g61
(dp1591
sg70
g821
sg63
(lp1592
g56
(g77
g58
NtRp1593
(dp1594
g61
(dp1595
g81
g82
ssg70
g1589
sg63
(lp1596
S'wsgi_file_wrapper'
p1597
asbag56
(g77
g58
NtRp1598
(dp1599
g61
(dp1600
g88
g89
ssg70
g1589
sg63
(lp1601
S':'
asbag56
(g77
g58
NtRp1602
(dp1603
g61
(dp1604
sg70
g1589
sg63
(lp1605
g56
(g57
g58
NtRp1606
(dp1607
g61
(dp1608
g69
I4
ssg70
g1602
sg63
(lp1609
S'<class wsgiref.util.FileWrapper at 0x1d85db8>'
p1610
asbasbasbag56
(g72
g58
NtRp1611
(dp1612
g61
(dp1613
sg70
g821
sg63
(lp1614
g56
(g77
g58
NtRp1615
(dp1616
g61
(dp1617
g81
g82
ssg70
g1611
sg63
(lp1618
S'wsgi_input'
p1619
asbag56
(g77
g58
NtRp1620
(dp1621
g61
(dp1622
g88
g89
ssg70
g1611
sg63
(lp1623
S':'
asbag56
(g77
g58
NtRp1624
(dp1625
g61
(dp1626
sg70
g1611
sg63
(lp1627
g56
(g57
g58
NtRp1628
(dp1629
g61
(dp1630
g69
I4
ssg70
g1624
sg63
(lp1631
S'<socket._fileobject object at 0x7fe9782f5ad0>'
p1632
asbasbasbag56
(g72
g58
NtRp1633
(dp1634
g61
(dp1635
sg70
g821
sg63
(lp1636
g56
(g77
g58
NtRp1637
(dp1638
g61
(dp1639
g81
g82
ssg70
g1633
sg63
(lp1640
S'wsgi_multiprocess'
p1641
asbag56
(g77
g58
NtRp1642
(dp1643
g61
(dp1644
g88
g89
ssg70
g1633
sg63
(lp1645
S':'
asbag56
(g77
g58
NtRp1646
(dp1647
g61
(dp1648
sg70
g1633
sg63
(lp1649
g56
(g57
g58
NtRp1650
(dp1651
g61
(dp1652
g69
I4
ssg70
g1646
sg63
(lp1653
g99
asbasbasbag56
(g72
g58
NtRp1654
(dp1655
g61
(dp1656
sg70
g821
sg63
(lp1657
g56
(g77
g58
NtRp1658
(dp1659
g61
(dp1660
g81
g82
ssg70
g1654
sg63
(lp1661
S'wsgi_multithread'
p1662
asbag56
(g77
g58
NtRp1663
(dp1664
g61
(dp1665
g88
g89
ssg70
g1654
sg63
(lp1666
S':'
asbag56
(g77
g58
NtRp1667
(dp1668
g61
(dp1669
sg70
g1654
sg63
(lp1670
g56
(g57
g58
NtRp1671
(dp1672
g61
(dp1673
g69
I4
ssg70
g1667
sg63
(lp1674
S'True'
p1675
asbasbasbag56
(g72
g58
NtRp1676
(dp1677
g61
(dp1678
sg70
g821
sg63
(lp1679
g56
(g77
g58
NtRp1680
(dp1681
g61
(dp1682
g81
g82
ssg70
g1676
sg63
(lp1683
S'wsgi_run_once'
p1684
asbag56
(g77
g58
NtRp1685
(dp1686
g61
(dp1687
g88
g89
ssg70
g1676
sg63
(lp1688
S':'
asbag56
(g77
g58
NtRp1689
(dp1690
g61
(dp1691
sg70
g1676
sg63
(lp1692
g56
(g57
g58
NtRp1693
(dp1694
g61
(dp1695
g69
I4
ssg70
g1689
sg63
(lp1696
g99
asbasbasbag56
(g72
g58
NtRp1697
(dp1698
g61
(dp1699
sg70
g821
sg63
(lp1700
g56
(g77
g58
NtRp1701
(dp1702
g61
(dp1703
g81
g82
ssg70
g1697
sg63
(lp1704
S'wsgi_url_scheme'
p1705
asbag56
(g77
g58
NtRp1706
(dp1707
g61
(dp1708
g88
g89
ssg70
g1697
sg63
(lp1709
S':'
asbag56
(g77
g58
NtRp1710
(dp1711
g61
(dp1712
sg70
g1697
sg63
(lp1713
g56
(g57
g58
NtRp1714
(dp1715
g61
(dp1716
g69
I4
ssg70
g1710
sg63
(lp1717
S'http'
p1718
asbasbasbag56
(g72
g58
NtRp1719
(dp1720
g61
(dp1721
sg70
g821
sg63
(lp1722
g56
(g77
g58
NtRp1723
(dp1724
g61
(dp1725
g81
g82
ssg70
g1719
sg63
(lp1726
S'wsgi_version'
p1727
asbag56
(g77
g58
NtRp1728
(dp1729
g61
(dp1730
g88
g89
ssg70
g1719
sg63
(lp1731
S':'
asbag56
(g77
g58
NtRp1732
(dp1733
g61
(dp1734
sg70
g1719
sg63
(lp1735
g56
(g57
g58
NtRp1736
(dp1737
g61
(dp1738
g69
I4
ssg70
g1732
sg63
(lp1739
g56
(g65
g58
NtRp1740
(dp1741
g61
(dp1742
g69
I3
ssg70
Nsg63
(lp1743
g56
(g72
g58
NtRp1744
(dp1745
g61
(dp1746
sg70
g1740
sg63
(lp1747
g56
(g77
g58
NtRp1748
(dp1749
g61
(dp1750
sg70
g1744
sg63
(lp1751
g56
(g57
g58
NtRp1752
(dp1753
g61
(dp1754
g69
I3
ssg70
g1748
sg63
(lp1755
S'1'
asbasbasbag56
(g72
g58
NtRp1756
(dp1757
g61
(dp1758
sg70
g1740
sg63
(lp1759
g56
(g77
g58
NtRp1760
(dp1761
g61
(dp1762
sg70
g1756
sg63
(lp1763
g56
(g57
g58
NtRp1764
(dp1765
g61
(dp1766
g69
I3
ssg70
g1760
sg63
(lp1767
S'0'
asbasbasbasbasbasbasbasbasbasbasbag56
(g72
g58
NtRp1768
(dp1769
g61
(dp1770
sg70
g66
sg63
(lp1771
g56
(g77
g58
NtRp1772
(dp1773
g61
(dp1774
g81
g82
ssg70
g1768
sg63
(lp1775
S'extension'
p1776
asbag56
(g77
g58
NtRp1777
(dp1778
g61
(dp1779
g88
g89
ssg70
g1768
sg63
(lp1780
S':'
asbag56
(g77
g58
NtRp1781
(dp1782
g61
(dp1783
sg70
g1768
sg63
(lp1784
g56
(g57
g58
NtRp1785
(dp1786
g61
(dp1787
g69
I5
ssg70
g1781
sg63
(lp1788
S'html'
p1789
asbasbasbag56
(g72
g58
NtRp1790
(dp1791
g61
(dp1792
sg70
g66
sg63
(lp1793
g56
(g77
g58
NtRp1794
(dp1795
g61
(dp1796
g81
g82
ssg70
g1790
sg63
(lp1797
S'folder'
p1798
asbag56
(g77
g58
NtRp1799
(dp1800
g61
(dp1801
g88
g89
ssg70
g1790
sg63
(lp1802
S':'
asbag56
(g77
g58
NtRp1803
(dp1804
g61
(dp1805
sg70
g1790
sg63
(lp1806
g56
(g57
g58
NtRp1807
(dp1808
g61
(dp1809
g69
I5
ssg70
g1803
sg63
(lp1810
S'/media/misperoles/git/pyj3nnn1/web2py/applications/blog/'
p1811
asbasbasbag56
(g72
g58
NtRp1812
(dp1813
g61
(dp1814
sg70
g66
sg63
(lp1815
g56
(g77
g58
NtRp1816
(dp1817
g61
(dp1818
g81
g82
ssg70
g1812
sg63
(lp1819
S'function'
p1820
asbag56
(g77
g58
NtRp1821
(dp1822
g61
(dp1823
g88
g89
ssg70
g1812
sg63
(lp1824
S':'
asbag56
(g77
g58
NtRp1825
(dp1826
g61
(dp1827
sg70
g1812
sg63
(lp1828
g56
(g57
g58
NtRp1829
(dp1830
g61
(dp1831
g69
I5
ssg70
g1825
sg63
(lp1832
S'index'
p1833
asbasbasbag56
(g72
g58
NtRp1834
(dp1835
g61
(dp1836
sg70
g66
sg63
(lp1837
g56
(g77
g58
NtRp1838
(dp1839
g61
(dp1840
g81
g82
ssg70
g1834
sg63
(lp1841
S'get_vars'
p1842
asbag56
(g77
g58
NtRp1843
(dp1844
g61
(dp1845
g88
g89
ssg70
g1834
sg63
(lp1846
S':'
asbag56
(g77
g58
NtRp1847
(dp1848
g61
(dp1849
sg70
g1834
sg63
(lp1850
g56
(g57
g58
NtRp1851
(dp1852
g61
(dp1853
g69
I5
ssg70
g1847
sg63
(lp1854
g56
(g65
g58
NtRp1855
(dp1856
g61
(dp1857
g69
I4
ssg70
Nsg63
(lp1858
sbasbasbasbag56
(g72
g58
NtRp1859
(dp1860
g61
(dp1861
sg70
g66
sg63
(lp1862
g56
(g77
g58
NtRp1863
(dp1864
g61
(dp1865
g81
g82
ssg70
g1859
sg63
(lp1866
S'global_settings'
p1867
asbag56
(g77
g58
NtRp1868
(dp1869
g61
(dp1870
g88
g89
ssg70
g1859
sg63
(lp1871
S':'
asbag56
(g77
g58
NtRp1872
(dp1873
g61
(dp1874
sg70
g1859
sg63
(lp1875
g56
(g57
g58
NtRp1876
(dp1877
g61
(dp1878
g69
I5
ssg70
g1872
sg63
(lp1879
g56
(g65
g58
NtRp1880
(dp1881
g61
(dp1882
g69
I4
ssg70
Nsg63
(lp1883
g56
(g72
g58
NtRp1884
(dp1885
g61
(dp1886
sg70
g1880
sg63
(lp1887
g56
(g77
g58
NtRp1888
(dp1889
g61
(dp1890
g81
g82
ssg70
g1884
sg63
(lp1891
g833
asbag56
(g77
g58
NtRp1892
(dp1893
g61
(dp1894
g88
g89
ssg70
g1884
sg63
(lp1895
S':'
asbag56
(g77
g58
NtRp1896
(dp1897
g61
(dp1898
sg70
g1884
sg63
(lp1899
g56
(g57
g58
NtRp1900
(dp1901
g61
(dp1902
g69
I4
ssg70
g1896
sg63
(lp1903
S"set(['/media/misperoles/git/pyj3nnn1/web2py/applications/admin/', '/media/misperoles/git/pyj3nnn1/web2py/applications/blog/', '/media/misperoles/git/pyj3nnn1/web2py/applications/welcome/'])"
p1904
asbasbasbag56
(g72
g58
NtRp1905
(dp1906
g61
(dp1907
sg70
g1880
sg63
(lp1908
g56
(g77
g58
NtRp1909
(dp1910
g61
(dp1911
g81
g82
ssg70
g1905
sg63
(lp1912
g855
asbag56
(g77
g58
NtRp1913
(dp1914
g61
(dp1915
g88
g89
ssg70
g1905
sg63
(lp1916
S':'
asbag56
(g77
g58
NtRp1917
(dp1918
g61
(dp1919
sg70
g1905
sg63
(lp1920
g56
(g57
g58
NtRp1921
(dp1922
g61
(dp1923
g69
I4
ssg70
g1917
sg63
(lp1924
g868
asbasbasbag56
(g72
g58
NtRp1925
(dp1926
g61
(dp1927
sg70
g1880
sg63
(lp1928
g56
(g77
g58
NtRp1929
(dp1930
g61
(dp1931
g81
g82
ssg70
g1925
sg63
(lp1932
g877
asbag56
(g77
g58
NtRp1933
(dp1934
g61
(dp1935
g88
g89
ssg70
g1925
sg63
(lp1936
S':'
asbag56
(g77
g58
NtRp1937
(dp1938
g61
(dp1939
sg70
g1925
sg63
(lp1940
g56
(g57
g58
NtRp1941
(dp1942
g61
(dp1943
g69
I4
ssg70
g1937
sg63
(lp1944
g56
(g65
g58
NtRp1945
(dp1946
g61
(dp1947
g69
I3
ssg70
Nsg63
(lp1948
sbasbasbasbag56
(g72
g58
NtRp1949
(dp1950
g61
(dp1951
sg70
g1880
sg63
(lp1952
g56
(g77
g58
NtRp1953
(dp1954
g61
(dp1955
g81
g82
ssg70
g1949
sg63
(lp1956
g902
asbag56
(g77
g58
NtRp1957
(dp1958
g61
(dp1959
g88
g89
ssg70
g1949
sg63
(lp1960
S':'
asbag56
(g77
g58
NtRp1961
(dp1962
g61
(dp1963
sg70
g1949
sg63
(lp1964
g56
(g57
g58
NtRp1965
(dp1966
g61
(dp1967
g69
I4
ssg70
g1961
sg63
(lp1968
S"<Values at 0x1cdc7e8: {'verbose': False, 'ip': '127.0.0.1', 'shutdown_timeout': 5, 'taskbar': False, 'nocron': False, 'pid_filename': 'httpserver.pid', 'maxthreads': None, 'softcron': False, 'server_name': 'Diotima', 'bpython': False, 'nogui': False, 'port': 8000, 'extcron': False, 'debuglevel': 30, 'test': None, 'folder': '/media/misperoles/git/pyj3nnn1/web2py', 'config': '', 'import_models': False, 'winservice': '', 'shell': None, 'run': '', 'log_filename': 'httpserver.log', 'args': [''], 'ssl_ca_certificate': None, 'scheduler': None, 'profiler_filename': None, 'ssl_private_key': '', 'password': '<ask>', 'request_queue_size': 5, 'ssl_certificate': '', 'cronjob': False, 'plain': False, 'quiet': False, 'interfaces': None, 'minthreads': None, 'timeout': 10, 'numthreads': None, 'nobanner': False}>"
p1969
asbasbasbag56
(g72
g58
NtRp1970
(dp1971
g61
(dp1972
sg70
g1880
sg63
(lp1973
g56
(g77
g58
NtRp1974
(dp1975
g61
(dp1976
g81
g82
ssg70
g1970
sg63
(lp1977
g924
asbag56
(g77
g58
NtRp1978
(dp1979
g61
(dp1980
g88
g89
ssg70
g1970
sg63
(lp1981
S':'
asbag56
(g77
g58
NtRp1982
(dp1983
g61
(dp1984
sg70
g1970
sg63
(lp1985
g56
(g57
g58
NtRp1986
(dp1987
g61
(dp1988
g69
I4
ssg70
g1982
sg63
(lp1989
S'set([])'
p1990
asbasbasbag56
(g72
g58
NtRp1991
(dp1992
g61
(dp1993
sg70
g1880
sg63
(lp1994
g56
(g77
g58
NtRp1995
(dp1996
g61
(dp1997
g81
g82
ssg70
g1991
sg63
(lp1998
g946
asbag56
(g77
g58
NtRp1999
(dp2000
g61
(dp2001
g88
g89
ssg70
g1991
sg63
(lp2002
S':'
asbag56
(g77
g58
NtRp2003
(dp2004
g61
(dp2005
sg70
g1991
sg63
(lp2006
g56
(g57
g58
NtRp2007
(dp2008
g61
(dp2009
g69
I4
ssg70
g2003
sg63
(lp2010
g99
asbasbasbag56
(g72
g58
NtRp2011
(dp2012
g61
(dp2013
sg70
g1880
sg63
(lp2014
g56
(g77
g58
NtRp2015
(dp2016
g61
(dp2017
g81
g82
ssg70
g2011
sg63
(lp2018
g967
asbag56
(g77
g58
NtRp2019
(dp2020
g61
(dp2021
g88
g89
ssg70
g2011
sg63
(lp2022
S':'
asbag56
(g77
g58
NtRp2023
(dp2024
g61
(dp2025
sg70
g2011
sg63
(lp2026
g56
(g57
g58
NtRp2027
(dp2028
g61
(dp2029
g69
I4
ssg70
g2023
sg63
(lp2030
g980
asbasbasbag56
(g72
g58
NtRp2031
(dp2032
g61
(dp2033
sg70
g1880
sg63
(lp2034
g56
(g77
g58
NtRp2035
(dp2036
g61
(dp2037
g81
g82
ssg70
g2031
sg63
(lp2038
g1165
asbag56
(g77
g58
NtRp2039
(dp2040
g61
(dp2041
g88
g89
ssg70
g2031
sg63
(lp2042
S':'
asbag56
(g77
g58
NtRp2043
(dp2044
g61
(dp2045
sg70
g2031
sg63
(lp2046
g56
(g57
g58
NtRp2047
(dp2048
g61
(dp2049
g69
I4
ssg70
g2043
sg63
(lp2050
g99
asbasbasbag56
(g72
g58
NtRp2051
(dp2052
g61
(dp2053
sg70
g1880
sg63
(lp2054
g56
(g77
g58
NtRp2055
(dp2056
g61
(dp2057
g81
g82
ssg70
g2051
sg63
(lp2058
g1423
asbag56
(g77
g58
NtRp2059
(dp2060
g61
(dp2061
g88
g89
ssg70
g2051
sg63
(lp2062
S':'
asbag56
(g77
g58
NtRp2063
(dp2064
g61
(dp2065
sg70
g2051
sg63
(lp2066
g56
(g57
g58
NtRp2067
(dp2068
g61
(dp2069
g69
I4
ssg70
g2063
sg63
(lp2070
g1436
asbasbasbag56
(g72
g58
NtRp2071
(dp2072
g61
(dp2073
sg70
g1880
sg63
(lp2074
g56
(g77
g58
NtRp2075
(dp2076
g61
(dp2077
g81
g82
ssg70
g2071
sg63
(lp2078
g1487
asbag56
(g77
g58
NtRp2079
(dp2080
g61
(dp2081
g88
g89
ssg70
g2071
sg63
(lp2082
S':'
asbag56
(g77
g58
NtRp2083
(dp2084
g61
(dp2085
sg70
g2071
sg63
(lp2086
g56
(g57
g58
NtRp2087
(dp2088
g61
(dp2089
g69
I4
ssg70
g2083
sg63
(lp2090
g56
(g65
g58
NtRp2091
(dp2092
g61
(dp2093
g69
I3
ssg70
Nsg63
(lp2094
g56
(g72
g58
NtRp2095
(dp2096
g61
(dp2097
sg70
g2091
sg63
(lp2098
g56
(g77
g58
NtRp2099
(dp2100
g61
(dp2101
sg70
g2095
sg63
(lp2102
g56
(g57
g58
NtRp2103
(dp2104
g61
(dp2105
g69
I3
ssg70
g2099
sg63
(lp2106
S'1'
asbasbasbag56
(g72
g58
NtRp2107
(dp2108
g61
(dp2109
sg70
g2091
sg63
(lp2110
g56
(g77
g58
NtRp2111
(dp2112
g61
(dp2113
sg70
g2107
sg63
(lp2114
g56
(g57
g58
NtRp2115
(dp2116
g61
(dp2117
g69
I3
ssg70
g2111
sg63
(lp2118
S'99'
p2119
asbasbasbag56
(g72
g58
NtRp2120
(dp2121
g61
(dp2122
sg70
g2091
sg63
(lp2123
g56
(g77
g58
NtRp2124
(dp2125
g61
(dp2126
sg70
g2120
sg63
(lp2127
g56
(g57
g58
NtRp2128
(dp2129
g61
(dp2130
g69
I3
ssg70
g2124
sg63
(lp2131
S'2'
asbasbasbag56
(g72
g58
NtRp2132
(dp2133
g61
(dp2134
sg70
g2091
sg63
(lp2135
g56
(g77
g58
NtRp2136
(dp2137
g61
(dp2138
sg70
g2132
sg63
(lp2139
g56
(g57
g58
NtRp2140
(dp2141
g61
(dp2142
g69
I3
ssg70
g2136
sg63
(lp2143
S'datetime.datetime(2011, 9, 26, 6, 55, 33)'
p2144
asbasbasbag56
(g72
g58
NtRp2145
(dp2146
g61
(dp2147
sg70
g2091
sg63
(lp2148
g56
(g77
g58
NtRp2149
(dp2150
g61
(dp2151
sg70
g2145
sg63
(lp2152
g56
(g57
g58
NtRp2153
(dp2154
g61
(dp2155
g69
I3
ssg70
g2149
sg63
(lp2156
g1566
asbasbasbasbasbasbasbasbasbasbasbag56
(g72
g58
NtRp2157
(dp2158
g61
(dp2159
sg70
g66
sg63
(lp2160
g56
(g77
g58
NtRp2161
(dp2162
g61
(dp2163
g81
g82
ssg70
g2157
sg63
(lp2164
S'is_https'
p2165
asbag56
(g77
g58
NtRp2166
(dp2167
g61
(dp2168
g88
g89
ssg70
g2157
sg63
(lp2169
S':'
asbag56
(g77
g58
NtRp2170
(dp2171
g61
(dp2172
sg70
g2157
sg63
(lp2173
g56
(g57
g58
NtRp2174
(dp2175
g61
(dp2176
g69
I5
ssg70
g2170
sg63
(lp2177
g99
asbasbasbag56
(g72
g58
NtRp2178
(dp2179
g61
(dp2180
sg70
g66
sg63
(lp2181
g56
(g77
g58
NtRp2182
(dp2183
g61
(dp2184
g81
g82
ssg70
g2178
sg63
(lp2185
S'is_local'
p2186
asbag56
(g77
g58
NtRp2187
(dp2188
g61
(dp2189
g88
g89
ssg70
g2178
sg63
(lp2190
S':'
asbag56
(g77
g58
NtRp2191
(dp2192
g61
(dp2193
sg70
g2178
sg63
(lp2194
g56
(g57
g58
NtRp2195
(dp2196
g61
(dp2197
g69
I5
ssg70
g2191
sg63
(lp2198
g1675
asbasbasbag56
(g72
g58
NtRp2199
(dp2200
g61
(dp2201
sg70
g66
sg63
(lp2202
g56
(g77
g58
NtRp2203
(dp2204
g61
(dp2205
g81
g82
ssg70
g2199
sg63
(lp2206
S'is_restful'
p2207
asbag56
(g77
g58
NtRp2208
(dp2209
g61
(dp2210
g88
g89
ssg70
g2199
sg63
(lp2211
S':'
asbag56
(g77
g58
NtRp2212
(dp2213
g61
(dp2214
sg70
g2199
sg63
(lp2215
g56
(g57
g58
NtRp2216
(dp2217
g61
(dp2218
g69
I5
ssg70
g2212
sg63
(lp2219
g99
asbasbasbag56
(g72
g58
NtRp2220
(dp2221
g61
(dp2222
sg70
g66
sg63
(lp2223
g56
(g77
g58
NtRp2224
(dp2225
g61
(dp2226
g81
g82
ssg70
g2220
sg63
(lp2227
S'now'
p2228
asbag56
(g77
g58
NtRp2229
(dp2230
g61
(dp2231
g88
g89
ssg70
g2220
sg63
(lp2232
S':'
asbag56
(g77
g58
NtRp2233
(dp2234
g61
(dp2235
sg70
g2220
sg63
(lp2236
g56
(g57
g58
NtRp2237
(dp2238
g61
(dp2239
g69
I5
ssg70
g2233
sg63
(lp2240
S'datetime.datetime(2012, 1, 21, 19, 52, 17, 195501)'
p2241
asbasbasbag56
(g72
g58
NtRp2242
(dp2243
g61
(dp2244
sg70
g66
sg63
(lp2245
g56
(g77
g58
NtRp2246
(dp2247
g61
(dp2248
g81
g82
ssg70
g2242
sg63
(lp2249
S'post_vars'
p2250
asbag56
(g77
g58
NtRp2251
(dp2252
g61
(dp2253
g88
g89
ssg70
g2242
sg63
(lp2254
S':'
asbag56
(g77
g58
NtRp2255
(dp2256
g61
(dp2257
sg70
g2242
sg63
(lp2258
g56
(g57
g58
NtRp2259
(dp2260
g61
(dp2261
g69
I5
ssg70
g2255
sg63
(lp2262
g56
(g65
g58
NtRp2263
(dp2264
g61
(dp2265
g69
I4
ssg70
Nsg63
(lp2266
sbasbasbasbag56
(g72
g58
NtRp2267
(dp2268
g61
(dp2269
sg70
g66
sg63
(lp2270
g56
(g77
g58
NtRp2271
(dp2272
g61
(dp2273
g81
g82
ssg70
g2267
sg63
(lp2274
S'url'
p2275
asbag56
(g77
g58
NtRp2276
(dp2277
g61
(dp2278
g88
g89
ssg70
g2267
sg63
(lp2279
S':'
asbag56
(g77
g58
NtRp2280
(dp2281
g61
(dp2282
sg70
g2267
sg63
(lp2283
g56
(g57
g58
NtRp2284
(dp2285
g61
(dp2286
g69
I5
ssg70
g2280
sg63
(lp2287
S'/blog/default/index'
p2288
asbasbasbag56
(g72
g58
NtRp2289
(dp2290
g61
(dp2291
sg70
g66
sg63
(lp2292
g56
(g77
g58
NtRp2293
(dp2294
g61
(dp2295
g81
g82
ssg70
g2289
sg63
(lp2296
S'utcnow'
p2297
asbag56
(g77
g58
NtRp2298
(dp2299
g61
(dp2300
g88
g89
ssg70
g2289
sg63
(lp2301
S':'
asbag56
(g77
g58
NtRp2302
(dp2303
g61
(dp2304
sg70
g2289
sg63
(lp2305
g56
(g57
g58
NtRp2306
(dp2307
g61
(dp2308
g69
I5
ssg70
g2302
sg63
(lp2309
S'datetime.datetime(2012, 1, 22, 0, 22, 17, 195555)'
p2310
asbasbasbag56
(g72
g58
NtRp2311
(dp2312
g61
(dp2313
sg70
g66
sg63
(lp2314
g56
(g77
g58
NtRp2315
(dp2316
g61
(dp2317
g81
g82
ssg70
g2311
sg63
(lp2318
S'uuid'
p2319
asbag56
(g77
g58
NtRp2320
(dp2321
g61
(dp2322
g88
g89
ssg70
g2311
sg63
(lp2323
S':'
asbag56
(g77
g58
NtRp2324
(dp2325
g61
(dp2326
sg70
g2311
sg63
(lp2327
g56
(g57
g58
NtRp2328
(dp2329
g61
(dp2330
g69
I5
ssg70
g2324
sg63
(lp2331
S'blog/127.0.0.1.2012-01-21.19-52-17.aa353a4e-c9c2-48c9-8558-26581586ce1e'
p2332
asbasbasbag56
(g72
g58
NtRp2333
(dp2334
g61
(dp2335
sg70
g66
sg63
(lp2336
g56
(g77
g58
NtRp2337
(dp2338
g61
(dp2339
g81
g82
ssg70
g2333
sg63
(lp2340
S'vars'
p2341
asbag56
(g77
g58
NtRp2342
(dp2343
g61
(dp2344
g88
g89
ssg70
g2333
sg63
(lp2345
S':'
asbag56
(g77
g58
NtRp2346
(dp2347
g61
(dp2348
sg70
g2333
sg63
(lp2349
g56
(g57
g58
NtRp2350
(dp2351
g61
(dp2352
g69
I5
ssg70
g2346
sg63
(lp2353
g56
(g65
g58
NtRp2354
(dp2355
g61
(dp2356
g69
I4
ssg70
Nsg63
(lp2357
sbasbasbasbag56
(g72
g58
NtRp2358
(dp2359
g61
(dp2360
sg70
g66
sg63
(lp2361
g56
(g77
g58
NtRp2362
(dp2363
g61
(dp2364
g81
g82
ssg70
g2358
sg63
(lp2365
S'wsgi'
p2366
asbag56
(g77
g58
NtRp2367
(dp2368
g61
(dp2369
g88
g89
ssg70
g2358
sg63
(lp2370
S':'
asbag56
(g77
g58
NtRp2371
(dp2372
g61
(dp2373
sg70
g2358
sg63
(lp2374
g56
(g57
g58
NtRp2375
(dp2376
g61
(dp2377
g69
I5
ssg70
g2371
sg63
(lp2378
g56
(g65
g58
NtRp2379
(dp2380
g61
(dp2381
g69
I4
ssg70
Nsg63
(lp2382
g56
(g72
g58
NtRp2383
(dp2384
g61
(dp2385
sg70
g2379
sg63
(lp2386
g56
(g77
g58
NtRp2387
(dp2388
g61
(dp2389
g81
g82
ssg70
g2383
sg63
(lp2390
S'environ'
p2391
asbag56
(g77
g58
NtRp2392
(dp2393
g61
(dp2394
g88
g89
ssg70
g2383
sg63
(lp2395
S':'
asbag56
(g77
g58
NtRp2396
(dp2397
g61
(dp2398
sg70
g2383
sg63
(lp2399
g56
(g57
g58
NtRp2400
(dp2401
g61
(dp2402
g69
I4
ssg70
g2396
sg63
(lp2403
g56
(g65
g58
NtRp2404
(dp2405
g61
(dp2406
g69
I3
ssg70
Nsg63
(lp2407
g56
(g72
g58
NtRp2408
(dp2409
g61
(dp2410
sg70
g2404
sg63
(lp2411
g56
(g77
g58
NtRp2412
(dp2413
g61
(dp2414
g81
g82
ssg70
g2408
sg63
(lp2415
S'HTTP_ACCEPT'
p2416
asbag56
(g77
g58
NtRp2417
(dp2418
g61
(dp2419
g88
g89
ssg70
g2408
sg63
(lp2420
S':'
asbag56
(g77
g58
NtRp2421
(dp2422
g61
(dp2423
sg70
g2408
sg63
(lp2424
g56
(g57
g58
NtRp2425
(dp2426
g61
(dp2427
g69
I3
ssg70
g2421
sg63
(lp2428
g1002
asbasbasbag56
(g72
g58
NtRp2429
(dp2430
g61
(dp2431
sg70
g2404
sg63
(lp2432
g56
(g77
g58
NtRp2433
(dp2434
g61
(dp2435
g81
g82
ssg70
g2429
sg63
(lp2436
S'HTTP_ACCEPT_CHARSET'
p2437
asbag56
(g77
g58
NtRp2438
(dp2439
g61
(dp2440
g88
g89
ssg70
g2429
sg63
(lp2441
S':'
asbag56
(g77
g58
NtRp2442
(dp2443
g61
(dp2444
sg70
g2429
sg63
(lp2445
g56
(g57
g58
NtRp2446
(dp2447
g61
(dp2448
g69
I3
ssg70
g2442
sg63
(lp2449
g1024
asbasbasbag56
(g72
g58
NtRp2450
(dp2451
g61
(dp2452
sg70
g2404
sg63
(lp2453
g56
(g77
g58
NtRp2454
(dp2455
g61
(dp2456
g81
g82
ssg70
g2450
sg63
(lp2457
S'HTTP_ACCEPT_ENCODING'
p2458
asbag56
(g77
g58
NtRp2459
(dp2460
g61
(dp2461
g88
g89
ssg70
g2450
sg63
(lp2462
S':'
asbag56
(g77
g58
NtRp2463
(dp2464
g61
(dp2465
sg70
g2450
sg63
(lp2466
g56
(g57
g58
NtRp2467
(dp2468
g61
(dp2469
g69
I3
ssg70
g2463
sg63
(lp2470
g1046
asbasbasbag56
(g72
g58
NtRp2471
(dp2472
g61
(dp2473
sg70
g2404
sg63
(lp2474
g56
(g77
g58
NtRp2475
(dp2476
g61
(dp2477
g81
g82
ssg70
g2471
sg63
(lp2478
S'HTTP_ACCEPT_LANGUAGE'
p2479
asbag56
(g77
g58
NtRp2480
(dp2481
g61
(dp2482
g88
g89
ssg70
g2471
sg63
(lp2483
S':'
asbag56
(g77
g58
NtRp2484
(dp2485
g61
(dp2486
sg70
g2471
sg63
(lp2487
g56
(g57
g58
NtRp2488
(dp2489
g61
(dp2490
g69
I3
ssg70
g2484
sg63
(lp2491
g1068
asbasbasbag56
(g72
g58
NtRp2492
(dp2493
g61
(dp2494
sg70
g2404
sg63
(lp2495
g56
(g77
g58
NtRp2496
(dp2497
g61
(dp2498
g81
g82
ssg70
g2492
sg63
(lp2499
S'HTTP_CONNECTION'
p2500
asbag56
(g77
g58
NtRp2501
(dp2502
g61
(dp2503
g88
g89
ssg70
g2492
sg63
(lp2504
S':'
asbag56
(g77
g58
NtRp2505
(dp2506
g61
(dp2507
sg70
g2492
sg63
(lp2508
g56
(g57
g58
NtRp2509
(dp2510
g61
(dp2511
g69
I3
ssg70
g2505
sg63
(lp2512
g1090
asbasbasbag56
(g72
g58
NtRp2513
(dp2514
g61
(dp2515
sg70
g2404
sg63
(lp2516
g56
(g77
g58
NtRp2517
(dp2518
g61
(dp2519
g81
g82
ssg70
g2513
sg63
(lp2520
S'HTTP_COOKIE'
p2521
asbag56
(g77
g58
NtRp2522
(dp2523
g61
(dp2524
g88
g89
ssg70
g2513
sg63
(lp2525
S':'
asbag56
(g77
g58
NtRp2526
(dp2527
g61
(dp2528
sg70
g2513
sg63
(lp2529
g56
(g57
g58
NtRp2530
(dp2531
g61
(dp2532
g69
I3
ssg70
g2526
sg63
(lp2533
g1112
asbasbasbag56
(g72
g58
NtRp2534
(dp2535
g61
(dp2536
sg70
g2404
sg63
(lp2537
g56
(g77
g58
NtRp2538
(dp2539
g61
(dp2540
g81
g82
ssg70
g2534
sg63
(lp2541
S'HTTP_HOST'
p2542
asbag56
(g77
g58
NtRp2543
(dp2544
g61
(dp2545
g88
g89
ssg70
g2534
sg63
(lp2546
S':'
asbag56
(g77
g58
NtRp2547
(dp2548
g61
(dp2549
sg70
g2534
sg63
(lp2550
g56
(g57
g58
NtRp2551
(dp2552
g61
(dp2553
g69
I3
ssg70
g2547
sg63
(lp2554
g1134
asbasbasbag56
(g72
g58
NtRp2555
(dp2556
g61
(dp2557
sg70
g2404
sg63
(lp2558
g56
(g77
g58
NtRp2559
(dp2560
g61
(dp2561
g81
g82
ssg70
g2555
sg63
(lp2562
S'HTTP_USER_AGENT'
p2563
asbag56
(g77
g58
NtRp2564
(dp2565
g61
(dp2566
g88
g89
ssg70
g2555
sg63
(lp2567
S':'
asbag56
(g77
g58
NtRp2568
(dp2569
g61
(dp2570
sg70
g2555
sg63
(lp2571
g56
(g57
g58
NtRp2572
(dp2573
g61
(dp2574
g69
I3
ssg70
g2568
sg63
(lp2575
g1156
asbasbasbag56
(g72
g58
NtRp2576
(dp2577
g61
(dp2578
sg70
g2404
sg63
(lp2579
g56
(g77
g58
NtRp2580
(dp2581
g61
(dp2582
g81
g82
ssg70
g2576
sg63
(lp2583
S'PATH_INFO'
p2584
asbag56
(g77
g58
NtRp2585
(dp2586
g61
(dp2587
g88
g89
ssg70
g2576
sg63
(lp2588
S':'
asbag56
(g77
g58
NtRp2589
(dp2590
g61
(dp2591
sg70
g2576
sg63
(lp2592
g56
(g57
g58
NtRp2593
(dp2594
g61
(dp2595
g69
I3
ssg70
g2589
sg63
(lp2596
S'/'
asbasbasbag56
(g72
g58
NtRp2597
(dp2598
g61
(dp2599
sg70
g2404
sg63
(lp2600
g56
(g77
g58
NtRp2601
(dp2602
g61
(dp2603
g81
g82
ssg70
g2597
sg63
(lp2604
S'QUERY_STRING'
p2605
asbag56
(g77
g58
NtRp2606
(dp2607
g61
(dp2608
g88
g89
ssg70
g2597
sg63
(lp2609
S':'
asbag56
(g77
g58
NtRp2610
(dp2611
g61
(dp2612
sg70
g2597
sg63
(lp2613
g56
(g57
g58
NtRp2614
(dp2615
g61
(dp2616
g69
I3
ssg70
g2610
sg63
(lp2617
S''
asbasbasbag56
(g72
g58
NtRp2618
(dp2619
g61
(dp2620
sg70
g2404
sg63
(lp2621
g56
(g77
g58
NtRp2622
(dp2623
g61
(dp2624
g81
g82
ssg70
g2618
sg63
(lp2625
S'REMOTE_ADDR'
p2626
asbag56
(g77
g58
NtRp2627
(dp2628
g61
(dp2629
g88
g89
ssg70
g2618
sg63
(lp2630
S':'
asbag56
(g77
g58
NtRp2631
(dp2632
g61
(dp2633
sg70
g2618
sg63
(lp2634
g56
(g57
g58
NtRp2635
(dp2636
g61
(dp2637
g69
I3
ssg70
g2631
sg63
(lp2638
g189
asbasbasbag56
(g72
g58
NtRp2639
(dp2640
g61
(dp2641
sg70
g2404
sg63
(lp2642
g56
(g77
g58
NtRp2643
(dp2644
g61
(dp2645
g81
g82
ssg70
g2639
sg63
(lp2646
S'REMOTE_PORT'
p2647
asbag56
(g77
g58
NtRp2648
(dp2649
g61
(dp2650
g88
g89
ssg70
g2639
sg63
(lp2651
S':'
asbag56
(g77
g58
NtRp2652
(dp2653
g61
(dp2654
sg70
g2639
sg63
(lp2655
g56
(g57
g58
NtRp2656
(dp2657
g61
(dp2658
g69
I3
ssg70
g2652
sg63
(lp2659
g1262
asbasbasbag56
(g72
g58
NtRp2660
(dp2661
g61
(dp2662
sg70
g2404
sg63
(lp2663
g56
(g77
g58
NtRp2664
(dp2665
g61
(dp2666
g81
g82
ssg70
g2660
sg63
(lp2667
S'REQUEST_METHOD'
p2668
asbag56
(g77
g58
NtRp2669
(dp2670
g61
(dp2671
g88
g89
ssg70
g2660
sg63
(lp2672
S':'
asbag56
(g77
g58
NtRp2673
(dp2674
g61
(dp2675
sg70
g2660
sg63
(lp2676
g56
(g57
g58
NtRp2677
(dp2678
g61
(dp2679
g69
I3
ssg70
g2673
sg63
(lp2680
g1284
asbasbasbag56
(g72
g58
NtRp2681
(dp2682
g61
(dp2683
sg70
g2404
sg63
(lp2684
g56
(g77
g58
NtRp2685
(dp2686
g61
(dp2687
g81
g82
ssg70
g2681
sg63
(lp2688
S'REQUEST_URI'
p2689
asbag56
(g77
g58
NtRp2690
(dp2691
g61
(dp2692
g88
g89
ssg70
g2681
sg63
(lp2693
S':'
asbag56
(g77
g58
NtRp2694
(dp2695
g61
(dp2696
sg70
g2681
sg63
(lp2697
g56
(g57
g58
NtRp2698
(dp2699
g61
(dp2700
g69
I3
ssg70
g2694
sg63
(lp2701
S'/'
asbasbasbag56
(g72
g58
NtRp2702
(dp2703
g61
(dp2704
sg70
g2404
sg63
(lp2705
g56
(g77
g58
NtRp2706
(dp2707
g61
(dp2708
g81
g82
ssg70
g2702
sg63
(lp2709
S'SCRIPT_NAME'
p2710
asbag56
(g77
g58
NtRp2711
(dp2712
g61
(dp2713
g88
g89
ssg70
g2702
sg63
(lp2714
S':'
asbag56
(g77
g58
NtRp2715
(dp2716
g61
(dp2717
sg70
g2702
sg63
(lp2718
g56
(g57
g58
NtRp2719
(dp2720
g61
(dp2721
g69
I3
ssg70
g2715
sg63
(lp2722
S''
asbasbasbag56
(g72
g58
NtRp2723
(dp2724
g61
(dp2725
sg70
g2404
sg63
(lp2726
g56
(g77
g58
NtRp2727
(dp2728
g61
(dp2729
g81
g82
ssg70
g2723
sg63
(lp2730
S'SERVER_NAME'
p2731
asbag56
(g77
g58
NtRp2732
(dp2733
g61
(dp2734
g88
g89
ssg70
g2723
sg63
(lp2735
S':'
asbag56
(g77
g58
NtRp2736
(dp2737
g61
(dp2738
sg70
g2723
sg63
(lp2739
g56
(g57
g58
NtRp2740
(dp2741
g61
(dp2742
g69
I3
ssg70
g2736
sg63
(lp2743
g1348
asbasbasbag56
(g72
g58
NtRp2744
(dp2745
g61
(dp2746
sg70
g2404
sg63
(lp2747
g56
(g77
g58
NtRp2748
(dp2749
g61
(dp2750
g81
g82
ssg70
g2744
sg63
(lp2751
S'SERVER_PORT'
p2752
asbag56
(g77
g58
NtRp2753
(dp2754
g61
(dp2755
g88
g89
ssg70
g2744
sg63
(lp2756
S':'
asbag56
(g77
g58
NtRp2757
(dp2758
g61
(dp2759
sg70
g2744
sg63
(lp2760
g56
(g57
g58
NtRp2761
(dp2762
g61
(dp2763
g69
I3
ssg70
g2757
sg63
(lp2764
g1370
asbasbasbag56
(g72
g58
NtRp2765
(dp2766
g61
(dp2767
sg70
g2404
sg63
(lp2768
g56
(g77
g58
NtRp2769
(dp2770
g61
(dp2771
g81
g82
ssg70
g2765
sg63
(lp2772
S'SERVER_PROTOCOL'
p2773
asbag56
(g77
g58
NtRp2774
(dp2775
g61
(dp2776
g88
g89
ssg70
g2765
sg63
(lp2777
S':'
asbag56
(g77
g58
NtRp2778
(dp2779
g61
(dp2780
sg70
g2765
sg63
(lp2781
g56
(g57
g58
NtRp2782
(dp2783
g61
(dp2784
g69
I3
ssg70
g2778
sg63
(lp2785
g1392
asbasbasbag56
(g72
g58
NtRp2786
(dp2787
g61
(dp2788
sg70
g2404
sg63
(lp2789
g56
(g77
g58
NtRp2790
(dp2791
g61
(dp2792
g81
g82
ssg70
g2786
sg63
(lp2793
S'SERVER_SOFTWARE'
p2794
asbag56
(g77
g58
NtRp2795
(dp2796
g61
(dp2797
g88
g89
ssg70
g2786
sg63
(lp2798
S':'
asbag56
(g77
g58
NtRp2799
(dp2800
g61
(dp2801
sg70
g2786
sg63
(lp2802
g56
(g57
g58
NtRp2803
(dp2804
g61
(dp2805
g69
I3
ssg70
g2799
sg63
(lp2806
g1414
asbasbasbag56
(g72
g58
NtRp2807
(dp2808
g61
(dp2809
sg70
g2404
sg63
(lp2810
g56
(g77
g58
NtRp2811
(dp2812
g61
(dp2813
g81
g82
ssg70
g2807
sg63
(lp2814
S'WEB2PY_ORIGINAL_URI'
p2815
asbag56
(g77
g58
NtRp2816
(dp2817
g61
(dp2818
g88
g89
ssg70
g2807
sg63
(lp2819
S':'
asbag56
(g77
g58
NtRp2820
(dp2821
g61
(dp2822
sg70
g2807
sg63
(lp2823
g56
(g57
g58
NtRp2824
(dp2825
g61
(dp2826
g69
I3
ssg70
g2820
sg63
(lp2827
S'/'
asbasbasbag56
(g72
g58
NtRp2828
(dp2829
g61
(dp2830
sg70
g2404
sg63
(lp2831
g56
(g77
g58
NtRp2832
(dp2833
g61
(dp2834
g81
g82
ssg70
g2828
sg63
(lp2835
S'wsgi.errors'
p2836
asbag56
(g77
g58
NtRp2837
(dp2838
g61
(dp2839
g88
g89
ssg70
g2828
sg63
(lp2840
S':'
asbag56
(g77
g58
NtRp2841
(dp2842
g61
(dp2843
sg70
g2828
sg63
(lp2844
g56
(g57
g58
NtRp2845
(dp2846
g61
(dp2847
g69
I3
ssg70
g2841
sg63
(lp2848
S"<open file '<stderr>', mode 'w' at 0x7fe9acfe5270>"
p2849
asbasbasbag56
(g72
g58
NtRp2850
(dp2851
g61
(dp2852
sg70
g2404
sg63
(lp2853
g56
(g77
g58
NtRp2854
(dp2855
g61
(dp2856
g81
g82
ssg70
g2850
sg63
(lp2857
S'wsgi.file_wrapper'
p2858
asbag56
(g77
g58
NtRp2859
(dp2860
g61
(dp2861
g88
g89
ssg70
g2850
sg63
(lp2862
S':'
asbag56
(g77
g58
NtRp2863
(dp2864
g61
(dp2865
sg70
g2850
sg63
(lp2866
g56
(g57
g58
NtRp2867
(dp2868
g61
(dp2869
g69
I3
ssg70
g2863
sg63
(lp2870
S'<class wsgiref.util.FileWrapper at 0x1d85db8>'
p2871
asbasbasbag56
(g72
g58
NtRp2872
(dp2873
g61
(dp2874
sg70
g2404
sg63
(lp2875
g56
(g77
g58
NtRp2876
(dp2877
g61
(dp2878
g81
g82
ssg70
g2872
sg63
(lp2879
S'wsgi.input'
p2880
asbag56
(g77
g58
NtRp2881
(dp2882
g61
(dp2883
g88
g89
ssg70
g2872
sg63
(lp2884
S':'
asbag56
(g77
g58
NtRp2885
(dp2886
g61
(dp2887
sg70
g2872
sg63
(lp2888
g56
(g57
g58
NtRp2889
(dp2890
g61
(dp2891
g69
I3
ssg70
g2885
sg63
(lp2892
S'<cStringIO.StringO object at 0x7fe97041ddc0>'
p2893
asbasbasbag56
(g72
g58
NtRp2894
(dp2895
g61
(dp2896
sg70
g2404
sg63
(lp2897
g56
(g77
g58
NtRp2898
(dp2899
g61
(dp2900
g81
g82
ssg70
g2894
sg63
(lp2901
S'wsgi.multiprocess'
p2902
asbag56
(g77
g58
NtRp2903
(dp2904
g61
(dp2905
g88
g89
ssg70
g2894
sg63
(lp2906
S':'
asbag56
(g77
g58
NtRp2907
(dp2908
g61
(dp2909
sg70
g2894
sg63
(lp2910
g56
(g57
g58
NtRp2911
(dp2912
g61
(dp2913
g69
I3
ssg70
g2907
sg63
(lp2914
g99
asbasbasbag56
(g72
g58
NtRp2915
(dp2916
g61
(dp2917
sg70
g2404
sg63
(lp2918
g56
(g77
g58
NtRp2919
(dp2920
g61
(dp2921
g81
g82
ssg70
g2915
sg63
(lp2922
S'wsgi.multithread'
p2923
asbag56
(g77
g58
NtRp2924
(dp2925
g61
(dp2926
g88
g89
ssg70
g2915
sg63
(lp2927
S':'
asbag56
(g77
g58
NtRp2928
(dp2929
g61
(dp2930
sg70
g2915
sg63
(lp2931
g56
(g57
g58
NtRp2932
(dp2933
g61
(dp2934
g69
I3
ssg70
g2928
sg63
(lp2935
g1675
asbasbasbag56
(g72
g58
NtRp2936
(dp2937
g61
(dp2938
sg70
g2404
sg63
(lp2939
g56
(g77
g58
NtRp2940
(dp2941
g61
(dp2942
g81
g82
ssg70
g2936
sg63
(lp2943
S'wsgi.run_once'
p2944
asbag56
(g77
g58
NtRp2945
(dp2946
g61
(dp2947
g88
g89
ssg70
g2936
sg63
(lp2948
S':'
asbag56
(g77
g58
NtRp2949
(dp2950
g61
(dp2951
sg70
g2936
sg63
(lp2952
g56
(g57
g58
NtRp2953
(dp2954
g61
(dp2955
g69
I3
ssg70
g2949
sg63
(lp2956
g99
asbasbasbag56
(g72
g58
NtRp2957
(dp2958
g61
(dp2959
sg70
g2404
sg63
(lp2960
g56
(g77
g58
NtRp2961
(dp2962
g61
(dp2963
g81
g82
ssg70
g2957
sg63
(lp2964
S'wsgi.url_scheme'
p2965
asbag56
(g77
g58
NtRp2966
(dp2967
g61
(dp2968
g88
g89
ssg70
g2957
sg63
(lp2969
S':'
asbag56
(g77
g58
NtRp2970
(dp2971
g61
(dp2972
sg70
g2957
sg63
(lp2973
g56
(g57
g58
NtRp2974
(dp2975
g61
(dp2976
g69
I3
ssg70
g2970
sg63
(lp2977
g1718
asbasbasbag56
(g72
g58
NtRp2978
(dp2979
g61
(dp2980
sg70
g2404
sg63
(lp2981
g56
(g77
g58
NtRp2982
(dp2983
g61
(dp2984
g81
g82
ssg70
g2978
sg63
(lp2985
S'wsgi.version'
p2986
asbag56
(g77
g58
NtRp2987
(dp2988
g61
(dp2989
g88
g89
ssg70
g2978
sg63
(lp2990
S':'
asbag56
(g77
g58
NtRp2991
(dp2992
g61
(dp2993
sg70
g2978
sg63
(lp2994
g56
(g57
g58
NtRp2995
(dp2996
g61
(dp2997
g69
I3
ssg70
g2991
sg63
(lp2998
S'1'
asbasbasbasbasbasbasbasbasbasbasbasbasbsS'frames'
p2999
(lp3000
(dp3001
S'file'
p3002
S'/media/misperoles/git/pyj3nnn1/web2py/gluon/restricted.py'
p3003
sS'dump'
p3004
(dp3005
S'environment'
p3006
S"{'A': <class 'gluon.html.A'>, 'Auth': <class 'gluon.tools.Auth'>, 'B': <class 'gluon.html.B'>, 'BEAUTIFY': <class 'gluon.html.BEAUTIFY'>, 'BODY': <class 'gluon.html.BODY'>, 'BR': <class 'gluon.html.BR'>, 'BUTTON': <class 'gluon.html.BUTTON'>, 'CAT': <class 'gluon.html.CAT'>, 'CENTER': <class 'gluon.html.CENTER'>, 'CLEANUP': <class 'gluon.validators.CLEANUP'>, ...}"
p3007
sS'ccode'
p3008
S'<code object <module> at 0x7fe9782f57b0, file "/...web2py/applications/blog/models/menu.py", line 8>'
p3009
ssS'lnum'
p3010
I194
sS'lines'
p3011
(dp3012
I192
S'        else:'
p3013
sI193
S'            ccode = compile2(code,layer)'
p3014
sI194
S'        exec ccode in environment'
p3015
sI195
S'    except HTTP:'
p3016
sI196
S'        raise'
p3017
sI197
S'    except Exception, error:'
p3018
sI198
S'        # XXX Show exception in Wing IDE if running in debugger'
p3019
sI189
S'    try:'
p3020
sI190
S'        if type(code) == types.CodeType:'
p3021
sI191
S'            ccode = code'
p3022
ssS'call'
p3023
S'(code="# -*- coding: utf-8 -*- \\n\\n######################...appadmin\', \'index\')),\\n#            ]\\n#   ),\\n#  ]\\n", environment={\'A\': <class \'gluon.html.A\'>, \'Auth\': <class \'gluon.tools.Auth\'>, \'B\': <class \'gluon.html.B\'>, \'BEAUTIFY\': <class \'gluon.html.BEAUTIFY\'>, \'BODY\': <class \'gluon.html.BODY\'>, \'BR\': <class \'gluon.html.BR\'>, \'BUTTON\': <class \'gluon.html.BUTTON\'>, \'CAT\': <class \'gluon.html.CAT\'>, \'CENTER\': <class \'gluon.html.CENTER\'>, \'CLEANUP\': <class \'gluon.validators.CLEANUP\'>, ...}, layer=\'/media/misperoles/git/pyj3nnn1/web2py/applications/blog/models/menu.py\')'
p3024
sS'func'
p3025
S'restricted'
p3026
sa(dp3027
g3002
S'/media/misperoles/git/pyj3nnn1/web2py/applications/blog/models/menu.py'
p3028
sg3004
(dp3029
S'URL'
p3030
S'<function URL>'
p3031
sS'request.application'
p3032
S"'blog'"
p3033
sS'request'
p3034
S"<Storage {'body': <cStringIO.StringO object at 0..._vars': <Storage {}>, 'post_vars': <Storage {}>}>"
p3035
sS'T'
S'<gluon.languages.translator object>'
p3036
sS'builtinFalse'
p3037
g99
ssg3010
I22
sg3011
(dp3038
I17
S''
sI18
S'response.menu = ['
p3039
sI19
S"    (T('Index'), False, URL(request.application,'default','index'), []),"
p3040
sI20
S"    (T('About'), False, URL(request.application,'default','about'), []),"
p3041
sI21
S"    (T('Admin'), False, URL(request.application,'default','admin'), [])"
p3042
sI22
S"    (T('Flickr'), False, URL(request.application,'default','get'), [])"
p3043
sI23
S'    ]'
p3044
sI24
S''
sI25
S'##########################################'
p3045
sI26
S'## this is here to provide shortcuts'
p3046
ssg3023
S'()'
p3047
sg3025
S'<module>'
p3048
sasS'pyver'
p3049
S'Python 2.7.2: /usr/bin/python2'
p3050
sS'session'
p3051
g56
(g57
g58
NtRp3052
(dp3053
g61
(dp3054
sg63
(lp3055
g56
(g65
g58
NtRp3056
(dp3057
g61
(dp3058
g69
I5
ssg70
Nsg63
(lp3059
g56
(g72
g58
NtRp3060
(dp3061
g61
(dp3062
sg70
g3056
sg63
(lp3063
g56
(g77
g58
NtRp3064
(dp3065
g61
(dp3066
g81
g82
ssg70
g3060
sg63
(lp3067
S'auth'
p3068
asbag56
(g77
g58
NtRp3069
(dp3070
g61
(dp3071
g88
g89
ssg70
g3060
sg63
(lp3072
S':'
asbag56
(g77
g58
NtRp3073
(dp3074
g61
(dp3075
sg70
g3060
sg63
(lp3076
g56
(g57
g58
NtRp3077
(dp3078
g61
(dp3079
g69
I5
ssg70
g3073
sg63
(lp3080
g56
(g65
g58
NtRp3081
(dp3082
g61
(dp3083
g69
I4
ssg70
Nsg63
(lp3084
g56
(g72
g58
NtRp3085
(dp3086
g61
(dp3087
sg70
g3081
sg63
(lp3088
g56
(g77
g58
NtRp3089
(dp3090
g61
(dp3091
g81
g82
ssg70
g3085
sg63
(lp3092
S'expiration'
p3093
asbag56
(g77
g58
NtRp3094
(dp3095
g61
(dp3096
g88
g89
ssg70
g3085
sg63
(lp3097
S':'
asbag56
(g77
g58
NtRp3098
(dp3099
g61
(dp3100
sg70
g3085
sg63
(lp3101
g56
(g57
g58
NtRp3102
(dp3103
g61
(dp3104
g69
I4
ssg70
g3098
sg63
(lp3105
S'2592000'
p3106
asbasbasbag56
(g72
g58
NtRp3107
(dp3108
g61
(dp3109
sg70
g3081
sg63
(lp3110
g56
(g77
g58
NtRp3111
(dp3112
g61
(dp3113
g81
g82
ssg70
g3107
sg63
(lp3114
S'hmac_key'
p3115
asbag56
(g77
g58
NtRp3116
(dp3117
g61
(dp3118
g88
g89
ssg70
g3107
sg63
(lp3119
S':'
asbag56
(g77
g58
NtRp3120
(dp3121
g61
(dp3122
sg70
g3107
sg63
(lp3123
g56
(g57
g58
NtRp3124
(dp3125
g61
(dp3126
g69
I4
ssg70
g3120
sg63
(lp3127
S'2207d36b-23fa-431e-b7a4-9e2e8ce01bea'
p3128
asbasbasbag56
(g72
g58
NtRp3129
(dp3130
g61
(dp3131
sg70
g3081
sg63
(lp3132
g56
(g77
g58
NtRp3133
(dp3134
g61
(dp3135
g81
g82
ssg70
g3129
sg63
(lp3136
S'last_visit'
p3137
asbag56
(g77
g58
NtRp3138
(dp3139
g61
(dp3140
g88
g89
ssg70
g3129
sg63
(lp3141
S':'
asbag56
(g77
g58
NtRp3142
(dp3143
g61
(dp3144
sg70
g3129
sg63
(lp3145
g56
(g57
g58
NtRp3146
(dp3147
g61
(dp3148
g69
I4
ssg70
g3142
sg63
(lp3149
S'datetime.datetime(2012, 1, 21, 19, 33, 48, 69720)'
p3150
asbasbasbag56
(g72
g58
NtRp3151
(dp3152
g61
(dp3153
sg70
g3081
sg63
(lp3154
g56
(g77
g58
NtRp3155
(dp3156
g61
(dp3157
g81
g82
ssg70
g3151
sg63
(lp3158
S'remember'
p3159
asbag56
(g77
g58
NtRp3160
(dp3161
g61
(dp3162
g88
g89
ssg70
g3151
sg63
(lp3163
S':'
asbag56
(g77
g58
NtRp3164
(dp3165
g61
(dp3166
sg70
g3151
sg63
(lp3167
g56
(g57
g58
NtRp3168
(dp3169
g61
(dp3170
g69
I4
ssg70
g3164
sg63
(lp3171
g99
asbasbasbag56
(g72
g58
NtRp3172
(dp3173
g61
(dp3174
sg70
g3081
sg63
(lp3175
g56
(g77
g58
NtRp3176
(dp3177
g61
(dp3178
g81
g82
ssg70
g3172
sg63
(lp3179
S'user'
p3180
asbag56
(g77
g58
NtRp3181
(dp3182
g61
(dp3183
g88
g89
ssg70
g3172
sg63
(lp3184
S':'
asbag56
(g77
g58
NtRp3185
(dp3186
g61
(dp3187
sg70
g3172
sg63
(lp3188
g56
(g57
g58
NtRp3189
(dp3190
g61
(dp3191
g69
I4
ssg70
g3185
sg63
(lp3192
g56
(g65
g58
NtRp3193
(dp3194
g61
(dp3195
g69
I3
ssg70
Nsg63
(lp3196
g56
(g72
g58
NtRp3197
(dp3198
g61
(dp3199
sg70
g3193
sg63
(lp3200
g56
(g77
g58
NtRp3201
(dp3202
g61
(dp3203
g81
g82
ssg70
g3197
sg63
(lp3204
S'email'
p3205
asbag56
(g77
g58
NtRp3206
(dp3207
g61
(dp3208
g88
g89
ssg70
g3197
sg63
(lp3209
S':'
asbag56
(g77
g58
NtRp3210
(dp3211
g61
(dp3212
sg70
g3197
sg63
(lp3213
g56
(g57
g58
NtRp3214
(dp3215
g61
(dp3216
g69
I3
ssg70
g3210
sg63
(lp3217
S'jcmm986@gmail.com'
p3218
asbasbasbag56
(g72
g58
NtRp3219
(dp3220
g61
(dp3221
sg70
g3193
sg63
(lp3222
g56
(g77
g58
NtRp3223
(dp3224
g61
(dp3225
g81
g82
ssg70
g3219
sg63
(lp3226
S'first_name'
p3227
asbag56
(g77
g58
NtRp3228
(dp3229
g61
(dp3230
g88
g89
ssg70
g3219
sg63
(lp3231
S':'
asbag56
(g77
g58
NtRp3232
(dp3233
g61
(dp3234
sg70
g3219
sg63
(lp3235
g56
(g57
g58
NtRp3236
(dp3237
g61
(dp3238
g69
I3
ssg70
g3232
sg63
(lp3239
S'Jennifer'
p3240
asbasbasbag56
(g72
g58
NtRp3241
(dp3242
g61
(dp3243
sg70
g3193
sg63
(lp3244
g56
(g77
g58
NtRp3245
(dp3246
g61
(dp3247
g81
g82
ssg70
g3241
sg63
(lp3248
S'id'
p3249
asbag56
(g77
g58
NtRp3250
(dp3251
g61
(dp3252
g88
g89
ssg70
g3241
sg63
(lp3253
S':'
asbag56
(g77
g58
NtRp3254
(dp3255
g61
(dp3256
sg70
g3241
sg63
(lp3257
g56
(g57
g58
NtRp3258
(dp3259
g61
(dp3260
g69
I3
ssg70
g3254
sg63
(lp3261
S'1'
asbasbasbag56
(g72
g58
NtRp3262
(dp3263
g61
(dp3264
sg70
g3193
sg63
(lp3265
g56
(g77
g58
NtRp3266
(dp3267
g61
(dp3268
g81
g82
ssg70
g3262
sg63
(lp3269
S'last_name'
p3270
asbag56
(g77
g58
NtRp3271
(dp3272
g61
(dp3273
g88
g89
ssg70
g3262
sg63
(lp3274
S':'
asbag56
(g77
g58
NtRp3275
(dp3276
g61
(dp3277
sg70
g3262
sg63
(lp3278
g56
(g57
g58
NtRp3279
(dp3280
g61
(dp3281
g69
I3
ssg70
g3275
sg63
(lp3282
S'Maldonado'
p3283
asbasbasbag56
(g72
g58
NtRp3284
(dp3285
g61
(dp3286
sg70
g3193
sg63
(lp3287
g56
(g77
g58
NtRp3288
(dp3289
g61
(dp3290
g81
g82
ssg70
g3284
sg63
(lp3291
S'password'
p3292
asbag56
(g77
g58
NtRp3293
(dp3294
g61
(dp3295
g88
g89
ssg70
g3284
sg63
(lp3296
S':'
asbag56
(g77
g58
NtRp3297
(dp3298
g61
(dp3299
sg70
g3284
sg63
(lp3300
g56
(g57
g58
NtRp3301
(dp3302
g61
(dp3303
g69
I3
ssg70
g3297
sg63
(lp3304
S'75a1df1426d7e3980535feeb25d013cdd1c2c37fb03ea34b9ae214fb274ace780a8d84d328913b45ec9f8d1566a223fec4ba45e1948685e99d4a947a280c14bf'
p3305
asbasbasbag56
(g72
g58
NtRp3306
(dp3307
g61
(dp3308
sg70
g3193
sg63
(lp3309
g56
(g77
g58
NtRp3310
(dp3311
g61
(dp3312
g81
g82
ssg70
g3306
sg63
(lp3313
S'registration_key'
p3314
asbag56
(g77
g58
NtRp3315
(dp3316
g61
(dp3317
g88
g89
ssg70
g3306
sg63
(lp3318
S':'
asbag56
(g77
g58
NtRp3319
(dp3320
g61
(dp3321
sg70
g3306
sg63
(lp3322
g56
(g57
g58
NtRp3323
(dp3324
g61
(dp3325
g69
I3
ssg70
g3319
sg63
(lp3326
S''
asbasbasbag56
(g72
g58
NtRp3327
(dp3328
g61
(dp3329
sg70
g3193
sg63
(lp3330
g56
(g77
g58
NtRp3331
(dp3332
g61
(dp3333
g81
g82
ssg70
g3327
sg63
(lp3334
S'reset_password_key'
p3335
asbag56
(g77
g58
NtRp3336
(dp3337
g61
(dp3338
g88
g89
ssg70
g3327
sg63
(lp3339
S':'
asbag56
(g77
g58
NtRp3340
(dp3341
g61
(dp3342
sg70
g3327
sg63
(lp3343
g56
(g57
g58
NtRp3344
(dp3345
g61
(dp3346
g69
I3
ssg70
g3340
sg63
(lp3347
S''
asbasbasbasbasbasbasbasbasbasbasbasbasbsS'etype'
p3348
S"<type 'exceptions.TypeError'>"
p3349
sS'date'
p3350
S'Sat Jan 21 19:52:17 2012'
p3351
sS'response'
p3352
g56
(g57
g58
NtRp3353
(dp3354
g61
(dp3355
sg63
(lp3356
g56
(g65
g58
NtRp3357
(dp3358
g61
(dp3359
g69
I5
ssg70
Nsg63
(lp3360
g56
(g72
g58
NtRp3361
(dp3362
g61
(dp3363
sg70
g3357
sg63
(lp3364
g56
(g77
g58
NtRp3365
(dp3366
g61
(dp3367
g81
g82
ssg70
g3361
sg63
(lp3368
g154
asbag56
(g77
g58
NtRp3369
(dp3370
g61
(dp3371
g88
g89
ssg70
g3361
sg63
(lp3372
S':'
asbag56
(g77
g58
NtRp3373
(dp3374
g61
(dp3375
sg70
g3361
sg63
(lp3376
g56
(g57
g58
NtRp3377
(dp3378
g61
(dp3379
g69
I5
ssg70
g3373
sg63
(lp3380
S'<cStringIO.StringO object at 0x7fe96c38c618>'
p3381
asbasbasbag56
(g72
g58
NtRp3382
(dp3383
g61
(dp3384
sg70
g3357
sg63
(lp3385
g56
(g77
g58
NtRp3386
(dp3387
g61
(dp3388
g81
g82
ssg70
g3382
sg63
(lp3389
g220
asbag56
(g77
g58
NtRp3390
(dp3391
g61
(dp3392
g88
g89
ssg70
g3382
sg63
(lp3393
S':'
asbag56
(g77
g58
NtRp3394
(dp3395
g61
(dp3396
sg70
g3382
sg63
(lp3397
g56
(g57
g58
NtRp3398
(dp3399
g61
(dp3400
g69
I5
ssg70
g3394
sg63
(lp3401
g56
(g65
g58
NtRp3402
(dp3403
g61
(dp3404
g69
I4
ssg70
Nsg63
(lp3405
g56
(g72
g58
NtRp3406
(dp3407
g61
(dp3408
sg70
g3402
sg63
(lp3409
g56
(g77
g58
NtRp3410
(dp3411
g61
(dp3412
g81
g82
ssg70
g3406
sg63
(lp3413
S'session_id_blog'
p3414
asbag56
(g77
g58
NtRp3415
(dp3416
g61
(dp3417
g88
g89
ssg70
g3406
sg63
(lp3418
S':'
asbag56
(g77
g58
NtRp3419
(dp3420
g61
(dp3421
sg70
g3406
sg63
(lp3422
g56
(g57
g58
NtRp3423
(dp3424
g61
(dp3425
g69
I4
ssg70
g3419
sg63
(lp3426
g56
(g65
g58
NtRp3427
(dp3428
g61
(dp3429
g69
I3
ssg70
Nsg63
(lp3430
g56
(g72
g58
NtRp3431
(dp3432
g61
(dp3433
sg70
g3427
sg63
(lp3434
g56
(g77
g58
NtRp3435
(dp3436
g61
(dp3437
g81
g82
ssg70
g3431
sg63
(lp3438
g270
asbag56
(g77
g58
NtRp3439
(dp3440
g61
(dp3441
g88
g89
ssg70
g3431
sg63
(lp3442
S':'
asbag56
(g77
g58
NtRp3443
(dp3444
g61
(dp3445
sg70
g3431
sg63
(lp3446
g56
(g57
g58
NtRp3447
(dp3448
g61
(dp3449
g69
I3
ssg70
g3443
sg63
(lp3450
S''
asbasbasbag56
(g72
g58
NtRp3451
(dp3452
g61
(dp3453
sg70
g3427
sg63
(lp3454
g56
(g77
g58
NtRp3455
(dp3456
g61
(dp3457
g81
g82
ssg70
g3451
sg63
(lp3458
g291
asbag56
(g77
g58
NtRp3459
(dp3460
g61
(dp3461
g88
g89
ssg70
g3451
sg63
(lp3462
S':'
asbag56
(g77
g58
NtRp3463
(dp3464
g61
(dp3465
sg70
g3451
sg63
(lp3466
g56
(g57
g58
NtRp3467
(dp3468
g61
(dp3469
g69
I3
ssg70
g3463
sg63
(lp3470
S''
asbasbasbag56
(g72
g58
NtRp3471
(dp3472
g61
(dp3473
sg70
g3427
sg63
(lp3474
g56
(g77
g58
NtRp3475
(dp3476
g61
(dp3477
g81
g82
ssg70
g3471
sg63
(lp3478
g312
asbag56
(g77
g58
NtRp3479
(dp3480
g61
(dp3481
g88
g89
ssg70
g3471
sg63
(lp3482
S':'
asbag56
(g77
g58
NtRp3483
(dp3484
g61
(dp3485
sg70
g3471
sg63
(lp3486
g56
(g57
g58
NtRp3487
(dp3488
g61
(dp3489
g69
I3
ssg70
g3483
sg63
(lp3490
S''
asbasbasbag56
(g72
g58
NtRp3491
(dp3492
g61
(dp3493
sg70
g3427
sg63
(lp3494
g56
(g77
g58
NtRp3495
(dp3496
g61
(dp3497
g81
g82
ssg70
g3491
sg63
(lp3498
g333
asbag56
(g77
g58
NtRp3499
(dp3500
g61
(dp3501
g88
g89
ssg70
g3491
sg63
(lp3502
S':'
asbag56
(g77
g58
NtRp3503
(dp3504
g61
(dp3505
sg70
g3491
sg63
(lp3506
g56
(g57
g58
NtRp3507
(dp3508
g61
(dp3509
g69
I3
ssg70
g3503
sg63
(lp3510
S''
asbasbasbag56
(g72
g58
NtRp3511
(dp3512
g61
(dp3513
sg70
g3427
sg63
(lp3514
g56
(g77
g58
NtRp3515
(dp3516
g61
(dp3517
g81
g82
ssg70
g3511
sg63
(lp3518
g354
asbag56
(g77
g58
NtRp3519
(dp3520
g61
(dp3521
g88
g89
ssg70
g3511
sg63
(lp3522
S':'
asbag56
(g77
g58
NtRp3523
(dp3524
g61
(dp3525
sg70
g3511
sg63
(lp3526
g56
(g57
g58
NtRp3527
(dp3528
g61
(dp3529
g69
I3
ssg70
g3523
sg63
(lp3530
S''
asbasbasbag56
(g72
g58
NtRp3531
(dp3532
g61
(dp3533
sg70
g3427
sg63
(lp3534
g56
(g77
g58
NtRp3535
(dp3536
g61
(dp3537
g81
g82
ssg70
g3531
sg63
(lp3538
g375
asbag56
(g77
g58
NtRp3539
(dp3540
g61
(dp3541
g88
g89
ssg70
g3531
sg63
(lp3542
S':'
asbag56
(g77
g58
NtRp3543
(dp3544
g61
(dp3545
sg70
g3531
sg63
(lp3546
g56
(g57
g58
NtRp3547
(dp3548
g61
(dp3549
g69
I3
ssg70
g3543
sg63
(lp3550
S'/'
asbasbasbag56
(g72
g58
NtRp3551
(dp3552
g61
(dp3553
sg70
g3427
sg63
(lp3554
g56
(g77
g58
NtRp3555
(dp3556
g61
(dp3557
g81
g82
ssg70
g3551
sg63
(lp3558
g396
asbag56
(g77
g58
NtRp3559
(dp3560
g61
(dp3561
g88
g89
ssg70
g3551
sg63
(lp3562
S':'
asbag56
(g77
g58
NtRp3563
(dp3564
g61
(dp3565
sg70
g3551
sg63
(lp3566
g56
(g57
g58
NtRp3567
(dp3568
g61
(dp3569
g69
I3
ssg70
g3563
sg63
(lp3570
S''
asbasbasbag56
(g72
g58
NtRp3571
(dp3572
g61
(dp3573
sg70
g3427
sg63
(lp3574
g56
(g77
g58
NtRp3575
(dp3576
g61
(dp3577
g81
g82
ssg70
g3571
sg63
(lp3578
g417
asbag56
(g77
g58
NtRp3579
(dp3580
g61
(dp3581
g88
g89
ssg70
g3571
sg63
(lp3582
S':'
asbag56
(g77
g58
NtRp3583
(dp3584
g61
(dp3585
sg70
g3571
sg63
(lp3586
g56
(g57
g58
NtRp3587
(dp3588
g61
(dp3589
g69
I3
ssg70
g3583
sg63
(lp3590
S''
asbasbasbasbasbasbasbasbasbasbasbag56
(g72
g58
NtRp3591
(dp3592
g61
(dp3593
sg70
g3357
sg63
(lp3594
g56
(g77
g58
NtRp3595
(dp3596
g61
(dp3597
g81
g82
ssg70
g3591
sg63
(lp3598
S'files'
p3599
asbag56
(g77
g58
NtRp3600
(dp3601
g61
(dp3602
g88
g89
ssg70
g3591
sg63
(lp3603
S':'
asbag56
(g77
g58
NtRp3604
(dp3605
g61
(dp3606
sg70
g3591
sg63
(lp3607
g56
(g57
g58
NtRp3608
(dp3609
g61
(dp3610
g69
I5
ssg70
g3604
sg63
(lp3611
g56
(g65
g58
NtRp3612
(dp3613
g61
(dp3614
g69
I4
ssg70
Nsg63
(lp3615
sbasbasbasbag56
(g72
g58
NtRp3616
(dp3617
g61
(dp3618
sg70
g3357
sg63
(lp3619
g56
(g77
g58
NtRp3620
(dp3621
g61
(dp3622
g81
g82
ssg70
g3616
sg63
(lp3623
S'flash'
p3624
asbag56
(g77
g58
NtRp3625
(dp3626
g61
(dp3627
g88
g89
ssg70
g3616
sg63
(lp3628
S':'
asbag56
(g77
g58
NtRp3629
(dp3630
g61
(dp3631
sg70
g3616
sg63
(lp3632
g56
(g57
g58
NtRp3633
(dp3634
g61
(dp3635
g69
I5
ssg70
g3629
sg63
(lp3636
S''
asbasbasbag56
(g72
g58
NtRp3637
(dp3638
g61
(dp3639
sg70
g3357
sg63
(lp3640
g56
(g77
g58
NtRp3641
(dp3642
g61
(dp3643
g81
g82
ssg70
g3637
sg63
(lp3644
S'generic_patterns'
p3645
asbag56
(g77
g58
NtRp3646
(dp3647
g61
(dp3648
g88
g89
ssg70
g3637
sg63
(lp3649
S':'
asbag56
(g77
g58
NtRp3650
(dp3651
g61
(dp3652
sg70
g3637
sg63
(lp3653
g56
(g57
g58
NtRp3654
(dp3655
g61
(dp3656
g69
I5
ssg70
g3650
sg63
(lp3657
g56
(g65
g58
NtRp3658
(dp3659
g61
(dp3660
g69
I4
ssg70
Nsg63
(lp3661
g56
(g72
g58
NtRp3662
(dp3663
g61
(dp3664
sg70
g3658
sg63
(lp3665
g56
(g77
g58
NtRp3666
(dp3667
g61
(dp3668
sg70
g3662
sg63
(lp3669
g56
(g57
g58
NtRp3670
(dp3671
g61
(dp3672
g69
I4
ssg70
g3666
sg63
(lp3673
S'*.json'
p3674
asbasbasbag56
(g72
g58
NtRp3675
(dp3676
g61
(dp3677
sg70
g3658
sg63
(lp3678
g56
(g77
g58
NtRp3679
(dp3680
g61
(dp3681
sg70
g3675
sg63
(lp3682
g56
(g57
g58
NtRp3683
(dp3684
g61
(dp3685
g69
I4
ssg70
g3679
sg63
(lp3686
S'*.xml'
p3687
asbasbasbag56
(g72
g58
NtRp3688
(dp3689
g61
(dp3690
sg70
g3658
sg63
(lp3691
g56
(g77
g58
NtRp3692
(dp3693
g61
(dp3694
sg70
g3688
sg63
(lp3695
g56
(g57
g58
NtRp3696
(dp3697
g61
(dp3698
g69
I4
ssg70
g3692
sg63
(lp3699
S'*.rss'
p3700
asbasbasbasbasbasbasbag56
(g72
g58
NtRp3701
(dp3702
g61
(dp3703
sg70
g3357
sg63
(lp3704
g56
(g77
g58
NtRp3705
(dp3706
g61
(dp3707
g81
g82
ssg70
g3701
sg63
(lp3708
S'headers'
p3709
asbag56
(g77
g58
NtRp3710
(dp3711
g61
(dp3712
g88
g89
ssg70
g3701
sg63
(lp3713
S':'
asbag56
(g77
g58
NtRp3714
(dp3715
g61
(dp3716
sg70
g3701
sg63
(lp3717
g56
(g57
g58
NtRp3718
(dp3719
g61
(dp3720
g69
I5
ssg70
g3714
sg63
(lp3721
g56
(g65
g58
NtRp3722
(dp3723
g61
(dp3724
g69
I4
ssg70
Nsg63
(lp3725
g56
(g72
g58
NtRp3726
(dp3727
g61
(dp3728
sg70
g3722
sg63
(lp3729
g56
(g77
g58
NtRp3730
(dp3731
g61
(dp3732
g81
g82
ssg70
g3726
sg63
(lp3733
S'Cache-Control'
p3734
asbag56
(g77
g58
NtRp3735
(dp3736
g61
(dp3737
g88
g89
ssg70
g3726
sg63
(lp3738
S':'
asbag56
(g77
g58
NtRp3739
(dp3740
g61
(dp3741
sg70
g3726
sg63
(lp3742
g56
(g57
g58
NtRp3743
(dp3744
g61
(dp3745
g69
I4
ssg70
g3739
sg63
(lp3746
S'no-store, no-cache, must-revalidate, post-check=0, pre-check=0'
p3747
asbasbasbag56
(g72
g58
NtRp3748
(dp3749
g61
(dp3750
sg70
g3722
sg63
(lp3751
g56
(g77
g58
NtRp3752
(dp3753
g61
(dp3754
g81
g82
ssg70
g3748
sg63
(lp3755
S'Content-Type'
p3756
asbag56
(g77
g58
NtRp3757
(dp3758
g61
(dp3759
g88
g89
ssg70
g3748
sg63
(lp3760
S':'
asbag56
(g77
g58
NtRp3761
(dp3762
g61
(dp3763
sg70
g3748
sg63
(lp3764
g56
(g57
g58
NtRp3765
(dp3766
g61
(dp3767
g69
I4
ssg70
g3761
sg63
(lp3768
S'text/html; charset=utf-8'
p3769
asbasbasbag56
(g72
g58
NtRp3770
(dp3771
g61
(dp3772
sg70
g3722
sg63
(lp3773
g56
(g77
g58
NtRp3774
(dp3775
g61
(dp3776
g81
g82
ssg70
g3770
sg63
(lp3777
S'Expires'
p3778
asbag56
(g77
g58
NtRp3779
(dp3780
g61
(dp3781
g88
g89
ssg70
g3770
sg63
(lp3782
S':'
asbag56
(g77
g58
NtRp3783
(dp3784
g61
(dp3785
sg70
g3770
sg63
(lp3786
g56
(g57
g58
NtRp3787
(dp3788
g61
(dp3789
g69
I4
ssg70
g3783
sg63
(lp3790
S'Sun, 22 Jan 2012 00:22:17 GMT'
p3791
asbasbasbag56
(g72
g58
NtRp3792
(dp3793
g61
(dp3794
sg70
g3722
sg63
(lp3795
g56
(g77
g58
NtRp3796
(dp3797
g61
(dp3798
g81
g82
ssg70
g3792
sg63
(lp3799
S'Pragma'
p3800
asbag56
(g77
g58
NtRp3801
(dp3802
g61
(dp3803
g88
g89
ssg70
g3792
sg63
(lp3804
S':'
asbag56
(g77
g58
NtRp3805
(dp3806
g61
(dp3807
sg70
g3792
sg63
(lp3808
g56
(g57
g58
NtRp3809
(dp3810
g61
(dp3811
g69
I4
ssg70
g3805
sg63
(lp3812
S'no-cache'
p3813
asbasbasbag56
(g72
g58
NtRp3814
(dp3815
g61
(dp3816
sg70
g3722
sg63
(lp3817
g56
(g77
g58
NtRp3818
(dp3819
g61
(dp3820
g81
g82
ssg70
g3814
sg63
(lp3821
S'X-Powered-By'
p3822
asbag56
(g77
g58
NtRp3823
(dp3824
g61
(dp3825
g88
g89
ssg70
g3814
sg63
(lp3826
S':'
asbag56
(g77
g58
NtRp3827
(dp3828
g61
(dp3829
sg70
g3814
sg63
(lp3830
g56
(g57
g58
NtRp3831
(dp3832
g61
(dp3833
g69
I4
ssg70
g3827
sg63
(lp3834
S'web2py'
p3835
asbasbasbasbasbasbasbag56
(g72
g58
NtRp3836
(dp3837
g61
(dp3838
sg70
g3357
sg63
(lp3839
g56
(g77
g58
NtRp3840
(dp3841
g61
(dp3842
g81
g82
ssg70
g3836
sg63
(lp3843
S'menu'
p3844
asbag56
(g77
g58
NtRp3845
(dp3846
g61
(dp3847
g88
g89
ssg70
g3836
sg63
(lp3848
S':'
asbag56
(g77
g58
NtRp3849
(dp3850
g61
(dp3851
sg70
g3836
sg63
(lp3852
g56
(g57
g58
NtRp3853
(dp3854
g61
(dp3855
g69
I5
ssg70
g3849
sg63
(lp3856
g56
(g65
g58
NtRp3857
(dp3858
g61
(dp3859
g69
I4
ssg70
Nsg63
(lp3860
sbasbasbasbag56
(g72
g58
NtRp3861
(dp3862
g61
(dp3863
sg70
g3357
sg63
(lp3864
g56
(g77
g58
NtRp3865
(dp3866
g61
(dp3867
g81
g82
ssg70
g3861
sg63
(lp3868
S'meta'
p3869
asbag56
(g77
g58
NtRp3870
(dp3871
g61
(dp3872
g88
g89
ssg70
g3861
sg63
(lp3873
S':'
asbag56
(g77
g58
NtRp3874
(dp3875
g61
(dp3876
sg70
g3861
sg63
(lp3877
g56
(g57
g58
NtRp3878
(dp3879
g61
(dp3880
g69
I5
ssg70
g3874
sg63
(lp3881
g56
(g65
g58
NtRp3882
(dp3883
g61
(dp3884
g69
I4
ssg70
Nsg63
(lp3885
g56
(g72
g58
NtRp3886
(dp3887
g61
(dp3888
sg70
g3882
sg63
(lp3889
g56
(g77
g58
NtRp3890
(dp3891
g61
(dp3892
g81
g82
ssg70
g3886
sg63
(lp3893
S'author'
p3894
asbag56
(g77
g58
NtRp3895
(dp3896
g61
(dp3897
g88
g89
ssg70
g3886
sg63
(lp3898
S':'
asbag56
(g77
g58
NtRp3899
(dp3900
g61
(dp3901
sg70
g3886
sg63
(lp3902
g56
(g57
g58
NtRp3903
(dp3904
g61
(dp3905
g69
I4
ssg70
g3899
sg63
(lp3906
S'Jennifer Maldonado'
p3907
asbasbasbag56
(g72
g58
NtRp3908
(dp3909
g61
(dp3910
sg70
g3882
sg63
(lp3911
g56
(g77
g58
NtRp3912
(dp3913
g61
(dp3914
g81
g82
ssg70
g3908
sg63
(lp3915
S'description'
p3916
asbag56
(g77
g58
NtRp3917
(dp3918
g61
(dp3919
g88
g89
ssg70
g3908
sg63
(lp3920
S':'
asbag56
(g77
g58
NtRp3921
(dp3922
g61
(dp3923
sg70
g3908
sg63
(lp3924
g56
(g57
g58
NtRp3925
(dp3926
g61
(dp3927
g69
I4
ssg70
g3921
sg63
(lp3928
S'blog para contar, experiencias con web2py... '
p3929
asbasbasbag56
(g72
g58
NtRp3930
(dp3931
g61
(dp3932
sg70
g3882
sg63
(lp3933
g56
(g77
g58
NtRp3934
(dp3935
g61
(dp3936
g81
g82
ssg70
g3930
sg63
(lp3937
S'keywords'
p3938
asbag56
(g77
g58
NtRp3939
(dp3940
g61
(dp3941
g88
g89
ssg70
g3930
sg63
(lp3942
S':'
asbag56
(g77
g58
NtRp3943
(dp3944
g61
(dp3945
sg70
g3930
sg63
(lp3946
g56
(g57
g58
NtRp3947
(dp3948
g61
(dp3949
g69
I4
ssg70
g3943
sg63
(lp3950
S'j3nnn1 web2py python'
p3951
asbasbasbasbasbasbasbag56
(g72
g58
NtRp3952
(dp3953
g61
(dp3954
sg70
g3357
sg63
(lp3955
g56
(g77
g58
NtRp3956
(dp3957
g61
(dp3958
g81
g82
ssg70
g3952
sg63
(lp3959
S'postprocessing'
p3960
asbag56
(g77
g58
NtRp3961
(dp3962
g61
(dp3963
g88
g89
ssg70
g3952
sg63
(lp3964
S':'
asbag56
(g77
g58
NtRp3965
(dp3966
g61
(dp3967
sg70
g3952
sg63
(lp3968
g56
(g57
g58
NtRp3969
(dp3970
g61
(dp3971
g69
I5
ssg70
g3965
sg63
(lp3972
g56
(g65
g58
NtRp3973
(dp3974
g61
(dp3975
g69
I4
ssg70
Nsg63
(lp3976
sbasbasbasbag56
(g72
g58
NtRp3977
(dp3978
g61
(dp3979
sg70
g3357
sg63
(lp3980
g56
(g77
g58
NtRp3981
(dp3982
g61
(dp3983
g81
g82
ssg70
g3977
sg63
(lp3984
S'session_file'
p3985
asbag56
(g77
g58
NtRp3986
(dp3987
g61
(dp3988
g88
g89
ssg70
g3977
sg63
(lp3989
S':'
asbag56
(g77
g58
NtRp3990
(dp3991
g61
(dp3992
sg70
g3977
sg63
(lp3993
g56
(g57
g58
NtRp3994
(dp3995
g61
(dp3996
g69
I5
ssg70
g3990
sg63
(lp3997
S"<open file '/media/misperoles/git/pyj3nnn1/web2py/applications/blog/sessions/127.0.0.1-9f13a1c2-ceb3-4136-a3a8-629ae0a8e7c1', mode 'rb+' at 0x7fe9782f8660>"
p3998
asbasbasbag56
(g72
g58
NtRp3999
(dp4000
g61
(dp4001
sg70
g3357
sg63
(lp4002
g56
(g77
g58
NtRp4003
(dp4004
g61
(dp4005
g81
g82
ssg70
g3999
sg63
(lp4006
S'session_filename'
p4007
asbag56
(g77
g58
NtRp4008
(dp4009
g61
(dp4010
g88
g89
ssg70
g3999
sg63
(lp4011
S':'
asbag56
(g77
g58
NtRp4012
(dp4013
g61
(dp4014
sg70
g3999
sg63
(lp4015
g56
(g57
g58
NtRp4016
(dp4017
g61
(dp4018
g69
I5
ssg70
g4012
sg63
(lp4019
S'/media/misperoles/git/pyj3nnn1/web2py/applications/blog/sessions/127.0.0.1-9f13a1c2-ceb3-4136-a3a8-629ae0a8e7c1'
p4020
asbasbasbag56
(g72
g58
NtRp4021
(dp4022
g61
(dp4023
sg70
g3357
sg63
(lp4024
g56
(g77
g58
NtRp4025
(dp4026
g61
(dp4027
g81
g82
ssg70
g4021
sg63
(lp4028
S'session_id'
p4029
asbag56
(g77
g58
NtRp4030
(dp4031
g61
(dp4032
g88
g89
ssg70
g4021
sg63
(lp4033
S':'
asbag56
(g77
g58
NtRp4034
(dp4035
g61
(dp4036
sg70
g4021
sg63
(lp4037
g56
(g57
g58
NtRp4038
(dp4039
g61
(dp4040
g69
I5
ssg70
g4034
sg63
(lp4041
S'127.0.0.1-9f13a1c2-ceb3-4136-a3a8-629ae0a8e7c1'
p4042
asbasbasbag56
(g72
g58
NtRp4043
(dp4044
g61
(dp4045
sg70
g3357
sg63
(lp4046
g56
(g77
g58
NtRp4047
(dp4048
g61
(dp4049
g81
g82
ssg70
g4043
sg63
(lp4050
S'session_id_name'
p4051
asbag56
(g77
g58
NtRp4052
(dp4053
g61
(dp4054
g88
g89
ssg70
g4043
sg63
(lp4055
S':'
asbag56
(g77
g58
NtRp4056
(dp4057
g61
(dp4058
sg70
g4043
sg63
(lp4059
g56
(g57
g58
NtRp4060
(dp4061
g61
(dp4062
g69
I5
ssg70
g4056
sg63
(lp4063
g3414
asbasbasbag56
(g72
g58
NtRp4064
(dp4065
g61
(dp4066
sg70
g3357
sg63
(lp4067
g56
(g77
g58
NtRp4068
(dp4069
g61
(dp4070
g81
g82
ssg70
g4064
sg63
(lp4071
S'session_locked'
p4072
asbag56
(g77
g58
NtRp4073
(dp4074
g61
(dp4075
g88
g89
ssg70
g4064
sg63
(lp4076
S':'
asbag56
(g77
g58
NtRp4077
(dp4078
g61
(dp4079
sg70
g4064
sg63
(lp4080
g56
(g57
g58
NtRp4081
(dp4082
g61
(dp4083
g69
I5
ssg70
g4077
sg63
(lp4084
g1675
asbasbasbag56
(g72
g58
NtRp4085
(dp4086
g61
(dp4087
sg70
g3357
sg63
(lp4088
g56
(g77
g58
NtRp4089
(dp4090
g61
(dp4091
g81
g82
ssg70
g4085
sg63
(lp4092
S'session_new'
p4093
asbag56
(g77
g58
NtRp4094
(dp4095
g61
(dp4096
g88
g89
ssg70
g4085
sg63
(lp4097
S':'
asbag56
(g77
g58
NtRp4098
(dp4099
g61
(dp4100
sg70
g4085
sg63
(lp4101
g56
(g57
g58
NtRp4102
(dp4103
g61
(dp4104
g69
I5
ssg70
g4098
sg63
(lp4105
g99
asbasbasbag56
(g72
g58
NtRp4106
(dp4107
g61
(dp4108
sg70
g3357
sg63
(lp4109
g56
(g77
g58
NtRp4110
(dp4111
g61
(dp4112
g81
g82
ssg70
g4106
sg63
(lp4113
S'status'
p4114
asbag56
(g77
g58
NtRp4115
(dp4116
g61
(dp4117
g88
g89
ssg70
g4106
sg63
(lp4118
S':'
asbag56
(g77
g58
NtRp4119
(dp4120
g61
(dp4121
sg70
g4106
sg63
(lp4122
g56
(g57
g58
NtRp4123
(dp4124
g61
(dp4125
g69
I5
ssg70
g4119
sg63
(lp4126
S'200'
p4127
asbasbasbag56
(g72
g58
NtRp4128
(dp4129
g61
(dp4130
sg70
g3357
sg63
(lp4131
g56
(g77
g58
NtRp4132
(dp4133
g61
(dp4134
g81
g82
ssg70
g4128
sg63
(lp4135
S'subtitle'
p4136
asbag56
(g77
g58
NtRp4137
(dp4138
g61
(dp4139
g88
g89
ssg70
g4128
sg63
(lp4140
S':'
asbag56
(g77
g58
NtRp4141
(dp4142
g61
(dp4143
sg70
g4128
sg63
(lp4144
g56
(g57
g58
NtRp4145
(dp4146
g61
(dp4147
g69
I5
ssg70
g4141
sg63
(lp4148
cgluon.languages
lazyT_unpickle
p4149
(S't\x06\x00\x00\x00J3nnn1'
tRp4150
asbasbasbag56
(g72
g58
NtRp4151
(dp4152
g61
(dp4153
sg70
g3357
sg63
(lp4154
g56
(g77
g58
NtRp4155
(dp4156
g61
(dp4157
g81
g82
ssg70
g4151
sg63
(lp4158
S'title'
p4159
asbag56
(g77
g58
NtRp4160
(dp4161
g61
(dp4162
g88
g89
ssg70
g4151
sg63
(lp4163
S':'
asbag56
(g77
g58
NtRp4164
(dp4165
g61
(dp4166
sg70
g4151
sg63
(lp4167
g56
(g57
g58
NtRp4168
(dp4169
g61
(dp4170
g69
I5
ssg70
g4164
sg63
(lp4171
S"It's me"
p4172
asbasbasbag56
(g72
g58
NtRp4173
(dp4174
g61
(dp4175
sg70
g3357
sg63
(lp4176
g56
(g77
g58
NtRp4177
(dp4178
g61
(dp4179
g81
g82
ssg70
g4173
sg63
(lp4180
g2319
asbag56
(g77
g58
NtRp4181
(dp4182
g61
(dp4183
g88
g89
ssg70
g4173
sg63
(lp4184
S':'
asbag56
(g77
g58
NtRp4185
(dp4186
g61
(dp4187
sg70
g4173
sg63
(lp4188
g56
(g57
g58
NtRp4189
(dp4190
g61
(dp4191
g69
I5
ssg70
g4185
sg63
(lp4192
g2332
asbasbasbag56
(g72
g58
NtRp4193
(dp4194
g61
(dp4195
sg70
g3357
sg63
(lp4196
g56
(g77
g58
NtRp4197
(dp4198
g61
(dp4199
g81
g82
ssg70
g4193
sg63
(lp4200
S'view'
p4201
asbag56
(g77
g58
NtRp4202
(dp4203
g61
(dp4204
g88
g89
ssg70
g4193
sg63
(lp4205
S':'
asbag56
(g77
g58
NtRp4206
(dp4207
g61
(dp4208
sg70
g4193
sg63
(lp4209
g56
(g57
g58
NtRp4210
(dp4211
g61
(dp4212
g69
I5
ssg70
g4206
sg63
(lp4213
S'default/index.html'
p4214
asbasbasbasbasbsS'locals'
p4215
(dp4216
S'Service'
p4217
S"<class 'gluon.tools.Service'>"
p4218
sS'OBJECT'
p4219
S"<class 'gluon.html.OBJECT'>"
p4220
sS'SQLDB'
p4221
S"<class 'gluon.dal.DAL'>"
p4222
sg3051
S"<Storage {'_formkey[articulos/create]': '350f726... 1, 21, 19, 33, 48, 69720), 'remember': False}>}>"
p4223
sS'LINK'
p4224
S"<class 'gluon.html.LINK'>"
p4225
sS'BR'
p4226
S"<class 'gluon.html.BR'>"
p4227
sS'local_import'
p4228
S'<function <lambda>>'
p4229
sS'OPTGROUP'
p4230
S"<class 'gluon.html.OPTGROUP'>"
p4231
sS'PRE'
p4232
S"<class 'gluon.html.PRE'>"
p4233
sS'IS_INT_IN_RANGE'
p4234
S"<class 'gluon.validators.IS_INT_IN_RANGE'>"
p4235
sg2228
S'datetime.datetime(2012, 1, 21, 19, 52, 17, 219003)'
p4236
sS'IS_LOWER'
p4237
S"<class 'gluon.validators.IS_LOWER'>"
p4238
sS'IS_STRONG'
p4239
S"<class 'gluon.validators.IS_STRONG'>"
p4240
sS'Recaptcha'
p4241
S"<class 'gluon.tools.Recaptcha'>"
p4242
sS'cache'
p4243
S'<gluon.cache.Cache object>'
p4244
sS'IS_IN_DB'
p4245
S"<class 'gluon.validators.IS_IN_DB'>"
p4246
sS'TAG'
p4247
S'<gluon.html.__TAG__ object>'
p4248
sS'SQLField'
p4249
S"<class 'gluon.dal.Field'>"
p4250
sS'mail'
p4251
S'<gluon.tools.Mail object>'
p4252
sS'BODY'
p4253
S"<class 'gluon.html.BODY'>"
p4254
sS'IS_DATE_IN_RANGE'
p4255
S"<class 'gluon.validators.IS_DATE_IN_RANGE'>"
p4256
sS'IFRAME'
p4257
S"<class 'gluon.html.IFRAME'>"
p4258
sS'URL'
p4259
S'<function URL>'
p4260
sS'__file__'
p4261
S"'/media/misperoles/git/pyj3nnn1/web2py/applications/blog/models/menu.py'"
p4262
sS'db'
p4263
S"<DAL {'auth_event': <Table {'origin': <gluon.dal...': <gluon.dal.Field object at 0x7fe97063d4d0>}>}>"
p4264
sS'auth'
p4265
S'<gluon.tools.Auth object>'
p4266
sS'P'
S"<class 'gluon.html.P'>"
p4267
sS'TFOOT'
p4268
S"<class 'gluon.html.TFOOT'>"
p4269
sS'XHTML'
p4270
S"<class 'gluon.html.XHTML'>"
p4271
sS'datetime'
p4272
S"<module 'datetime' from '/usr/lib/python2.7/lib-dynload/datetime.so'>"
p4273
sS'ON'
p4274
g1675
sS'OL'
p4275
S"<class 'gluon.html.OL'>"
p4276
sS'TEXTAREA'
p4277
S"<class 'gluon.html.TEXTAREA'>"
p4278
sS'MENU'
p4279
S"<class 'gluon.html.MENU'>"
p4280
sS'EM'
p4281
S"<class 'gluon.html.EM'>"
p4282
sS'CODE'
p4283
S"<class 'gluon.html.CODE'>"
p4284
sS'HTTP'
p4285
S"<class 'gluon.http.HTTP'>"
p4286
sS'HR'
p4287
S"<class 'gluon.html.HR'>"
p4288
sS'IS_DATETIME'
p4289
S"<class 'gluon.validators.IS_DATETIME'>"
p4290
sS'STYLE'
p4291
S"<class 'gluon.html.STYLE'>"
p4292
sS'LABEL'
p4293
S"<class 'gluon.html.LABEL'>"
p4294
sS'META'
p4295
S"<class 'gluon.html.META'>"
p4296
sS'plugins'
p4297
S'<gluon.tools.PluginManager object>'
p4298
sS'SELECT'
p4299
S"<class 'gluon.html.SELECT'>"
p4300
sS'CENTER'
p4301
S"<class 'gluon.html.CENTER'>"
p4302
sS'prettydate'
p4303
S'<function prettydate>'
p4304
sS'Crud'
p4305
S"<class 'gluon.tools.Crud'>"
p4306
sS'Auth'
p4307
S"<class 'gluon.tools.Auth'>"
p4308
sS'__builtins__'
p4309
S"{'ArithmeticError': <type 'exceptions.ArithmeticError'>, 'AssertionError': <type 'exceptions.AssertionError'>, 'AttributeError': <type 'exceptions.AttributeError'>, 'BaseException': <type 'exceptions.BaseException'>, 'BufferError': <type 'exceptions.BufferError'>, 'BytesWarning': <type 'exceptions.BytesWarning'>, 'DeprecationWarning': <type 'exceptions.DeprecationWarning'>, 'EOFError': <type 'exceptions.EOFError'>, 'Ellipsis': Ellipsis, 'EnvironmentError': <type 'exceptions.EnvironmentError'>, ...}"
p4310
sS'HTML'
p4311
S"<class 'gluon.html.HTML'>"
p4312
sS'SQLFORM'
p4313
S"<class 'gluon.sqlhtml.SQLFORM'>"
p4314
sS'LOAD'
p4315
S'<gluon.compileapp.LoadFactory object>'
p4316
sS'redirect'
p4317
S'<function redirect>'
p4318
sS'FIELDSET'
p4319
S"<class 'gluon.html.FIELDSET'>"
p4320
sS'IS_EQUAL_TO'
p4321
S"<class 'gluon.validators.IS_EQUAL_TO'>"
p4322
sS'embed64'
p4323
S'<function embed64>'
p4324
sS'IS_LIST_OF'
p4325
S"<class 'gluon.validators.IS_LIST_OF'>"
p4326
sS'INPUT'
p4327
S"<class 'gluon.html.INPUT'>"
p4328
sS'EMBED'
p4329
S"<class 'gluon.html.EMBED'>"
p4330
sS'FORM'
p4331
S"<class 'gluon.html.FORM'>"
p4332
sS'H2'
p4333
S"<class 'gluon.html.H2'>"
p4334
sS'H3'
p4335
S"<class 'gluon.html.H3'>"
p4336
sS'BUTTON'
p4337
S"<class 'gluon.html.BUTTON'>"
p4338
sS'H1'
p4339
S"<class 'gluon.html.H1'>"
p4340
sS'H6'
p4341
S"<class 'gluon.html.H6'>"
p4342
sS'H4'
p4343
S"<class 'gluon.html.H4'>"
p4344
sS'H5'
p4345
S"<class 'gluon.html.H5'>"
p4346
sS'UL'
p4347
S"<class 'gluon.html.UL'>"
p4348
sS'IS_UPPER'
p4349
S"<class 'gluon.validators.IS_UPPER'>"
p4350
sS'xmlescape'
p4351
S'<function xmlescape>'
p4352
sS'IS_TIME'
p4353
S"<class 'gluon.validators.IS_TIME'>"
p4354
sS'OPTION'
p4355
S"<class 'gluon.html.OPTION'>"
p4356
sS'TITLE'
p4357
S"<class 'gluon.html.TITLE'>"
p4358
sS'CRYPT'
p4359
S"<class 'gluon.validators.CRYPT'>"
p4360
sS'IS_EMPTY_OR'
p4361
S"<class 'gluon.validators.IS_EMPTY_OR'>"
p4362
sS'MARKMIN'
p4363
S"<class 'gluon.html.MARKMIN'>"
p4364
sS'COL'
p4365
S"<class 'gluon.html.COL'>"
p4366
sS'service'
p4367
S'<gluon.tools.Service object>'
p4368
sS'SCRIPT'
p4369
S"<class 'gluon.html.SCRIPT'>"
p4370
sS'geocode'
p4371
S'<function geocode>'
p4372
sS'TABLE'
p4373
S"<class 'gluon.html.TABLE'>"
p4374
sS'IS_IPV4'
p4375
S"<class 'gluon.validators.IS_IPV4'>"
p4376
sS'IS_LENGTH'
p4377
S"<class 'gluon.validators.IS_LENGTH'>"
p4378
sS'XML'
p4379
S"<class 'gluon.html.XML'>"
p4380
sS'B'
S"<class 'gluon.html.B'>"
p4381
sS'IMG'
p4382
S"<class 'gluon.html.IMG'>"
p4383
sS'SQLTABLE'
p4384
S"<class 'gluon.sqlhtml.SQLTABLE'>"
p4385
sS'IS_MATCH'
p4386
S"<class 'gluon.validators.IS_MATCH'>"
p4387
sS'IS_ALPHANUMERIC'
p4388
S"<class 'gluon.validators.IS_ALPHANUMERIC'>"
p4389
sS'SPAN'
p4390
S"<class 'gluon.html.SPAN'>"
p4391
sS'IS_SLUG'
p4392
S"<class 'gluon.validators.IS_SLUG'>"
p4393
sS'CLEANUP'
p4394
S"<class 'gluon.validators.CLEANUP'>"
p4395
sS'fetch'
p4396
S'<function fetch>'
p4397
sS'IS_DATE'
p4398
S"<class 'gluon.validators.IS_DATE'>"
p4399
sS'IS_EMAIL'
p4400
S"<class 'gluon.validators.IS_EMAIL'>"
p4401
sS'IS_NOT_EMPTY'
p4402
S"<class 'gluon.validators.IS_NOT_EMPTY'>"
p4403
sS'IS_FLOAT_IN_RANGE'
p4404
S"<class 'gluon.validators.IS_FLOAT_IN_RANGE'>"
p4405
sS'BEAUTIFY'
p4406
S"<class 'gluon.html.BEAUTIFY'>"
p4407
sS'TBODY'
p4408
S"<class 'gluon.html.TBODY'>"
p4409
sS'CAT'
p4410
S"<class 'gluon.html.CAT'>"
p4411
sS'Field'
p4412
S"<class 'gluon.dal.Field'>"
p4413
sS'Mail'
p4414
S"<class 'gluon.tools.Mail'>"
p4415
sS'DIV'
p4416
S"<class 'gluon.html.DIV'>"
p4417
sS'LEGEND'
p4418
S"<class 'gluon.html.LEGEND'>"
p4419
sS'COLGROUP'
p4420
S"<class 'gluon.html.COLGROUP'>"
p4421
sS'DAL'
p4422
S"<class 'gluon.dal.DAL'>"
p4423
sS'TT'
p4424
S"<class 'gluon.html.TT'>"
p4425
sS'TR'
p4426
S"<class 'gluon.html.TR'>"
p4427
sS'LI'
p4428
S"<class 'gluon.html.LI'>"
p4429
sS'TH'
p4430
S"<class 'gluon.html.TH'>"
p4431
sS'TD'
p4432
S"<class 'gluon.html.TD'>"
p4433
sS'PluginManager'
p4434
S"<class 'gluon.tools.PluginManager'>"
p4435
sS'IS_URL'
p4436
S"<class 'gluon.validators.IS_URL'>"
p4437
sS'A'
S"<class 'gluon.html.A'>"
p4438
sS'HEAD'
p4439
S"<class 'gluon.html.HEAD'>"
p4440
sS'IS_DATETIME_IN_RANGE'
p4441
S"<class 'gluon.validators.IS_DATETIME_IN_RANGE'>"
p4442
sS'IS_IMAGE'
p4443
S"<class 'gluon.validators.IS_IMAGE'>"
p4444
sS'I'
S"<class 'gluon.html.I'>"
p4445
sS'crud'
p4446
S'<gluon.tools.Crud object>'
p4447
sS'IS_NOT_IN_DB'
p4448
S"<class 'gluon.validators.IS_NOT_IN_DB'>"
p4449
sg3352
S"<Storage {'body': <cStringIO.StringO object at 0...t 0x7fe98c289c80>, 'view': 'default/index.html'}>"
p4450
sS'THEAD'
p4451
S"<class 'gluon.html.THEAD'>"
p4452
sS'IS_NULL_OR'
p4453
S"<class 'gluon.validators.IS_EMPTY_OR'>"
p4454
sg55
S"<Storage {'body': <cStringIO.StringO object at 0..._vars': <Storage {}>, 'post_vars': <Storage {}>}>"
p4455
sS'IS_EXPR'
p4456
S"<class 'gluon.validators.IS_EXPR'>"
p4457
sS'IS_IN_SET'
p4458
S"<class 'gluon.validators.IS_IN_SET'>"
p4459
sS'IS_UPLOAD_FILENAME'
p4460
S"<class 'gluon.validators.IS_UPLOAD_FILENAME'>"
p4461
sS'IS_DECIMAL_IN_RANGE'
p4462
S"<class 'gluon.validators.IS_DECIMAL_IN_RANGE'>"
p4463
sS'T'
S'<gluon.languages.translator object>'
p4464
sssS'traceback'
p4465
S'Traceback (most recent call last):\n  File "/media/misperoles/git/pyj3nnn1/web2py/gluon/restricted.py", line 194, in restricted\n    exec ccode in environment\n  File "/media/misperoles/git/pyj3nnn1/web2py/applications/blog/models/menu.py", line 22, in <module>\n    (T(\'Flickr\'), False, URL(request.application,\'default\',\'get\'), [])\nTypeError: \'tuple\' object is not callable\n'
p4466
s.