(dp1
S'output'
p2
S''
sS'layer'
p3
S'/cygdrive/e/Documents and Settings/jmaldo03/git/pyj3nnn1/pyj3nnn1/web2py/applications/blog/views/default/deletepost.html'
p4
sS'code'
p5
S'response.write(\'<!DOCTYPE html PUBLIC "-//W3C//DTD XHTML 1.0 Strict//EN" "http://www.w3.org/TR/xhtml1/DTD/xhtml1-strict.dtd">\\n<!--\\nDesign by Free CSS Templates\\nhttp://www.freecsstemplates.org\\nReleased for free under a Creative Commons Attribution 2.5 License\\n\\nName       : Blogging\\nDescription: A two-column, fixed-width design for 1024x768 screen resolutions.\\nVersion    : 1.0\\nReleased   : 20090208\\n\\n-->\\n<html xmlns="http://www.w3.org/1999/xhtml">\\n <head>\\n  <title>\\n   \', escape=False)\nresponse.write(response.title or request.application)\nresponse.write(\'\\n  </title>\\n  \', escape=False)\nresponse.files.append(URL(request.application,\'static\',\'plugin_layouts/layouts/Blogging/style.css\'))\nresponse.write(\'\\n\', escape=False)\nresponse.files.append(URL(\'static\',\'superfish.js\'))\nresponse.write(\'\\n  \', escape=False)\nresponse.files.insert(0,URL(r=request,c=\'static\',f=\'jquery.js\'))\nresponse.files.insert(1,URL(r=request,c=\'static\',f=\'calendar.css\'))\nresponse.files.insert(2,URL(r=request,c=\'static\',f=\'calendar.js\'))\nfor _item in response.meta or []:\n    response.write(\'\\n     <meta name="\', escape=False)\n    response.write(_item)\n    response.write(\'" content="\', escape=False)\n    response.write(response.meta[_item])\n    response.write(\'" />\', escape=False)\n    pass\nfor _k,_file in enumerate(response.files or []):\n    if _file in response.files[:_k]:\n        continue\n    elif _file.lower().endswith(\'.css\'):\n        response.write(\'\\n     <link href="\', escape=False)\n        response.write(_file)\n        response.write(\'" rel="stylesheet" type="text/css" />\', escape=False)\n    elif _file.lower().endswith(\'.js\'):\n        response.write(\'\\n     <script src="\', escape=False)\n        response.write(_file)\n        response.write(\'" type="text/javascript"></script>\', escape=False)\n        pass\n    pass\nresponse.write(\'\\n<script type="text/javascript"><!--\\nfunction popup(url) {\\n  newwindow=window.open(url,\\\'name\\\',\\\'height=400,width=600\\\');\\n  if (window.focus) newwindow.focus();\\n  return false;\\n}\\nfunction collapse(id) { jQuery(\\\'#\\\'+id).slideToggle(); }\\nfunction fade(id,value) { if(value>0) jQuery(\\\'#\\\'+id).hide().fadeIn(\\\'slow\\\'); else jQuery(\\\'#\\\'+id).show().fadeOut(\\\'slow\\\'); }\\nfunction ajax(u,s,t) {\\n    query = \\\'\\\';\\n    if (typeof s == "string") {\\n        d = jQuery(s).serialize();\\n        if(d){ query = d; }\\n    } else {\\n        pcs = [];\\n        for(i=0; i<s.length; i++) {\\n            q = jQuery("[name="+s[i]+"]").serialize();\\n            if(q){pcs.push(q);}\\n        }\\n        if (pcs.length>0){query = pcs.join("&");}\\n    }\\n    jQuery.ajax({type: "POST", url: u, data: query, success: function(msg) { if(t) { if(t==\\\':eval\\\') eval(msg); else jQuery("#" + t).html(msg); } } }); \\n}\\nString.prototype.reverse = function () { return this.split(\\\'\\\').reverse().join(\\\'\\\');};\\nfunction web2py_ajax_init() {\\n  jQuery(\\\'.hidden\\\').hide();\\n  jQuery(\\\'.error\\\').hide().slideDown(\\\'slow\\\');\\n  jQuery(\\\'.flash\\\').click(function() { jQuery(this).fadeOut(\\\'slow\\\'); return false; });\\n  jQuery(\\\'input[type=submit]\\\').click(function(){var t=jQuery(this);t.hide();t.after(\\\'<input class="submit_disabled" disabled="disabled" type="submit" name="\\\'+t.attr("name")+\\\'_dummy" value="\\\'+t.val()+\\\'">\\\')});\\n  jQuery(\\\'input.integer\\\').keyup(function(){this.value=this.value.reverse().replace(/[^0-9\\\\-]|\\\\-(?=.)/g,\\\'\\\').reverse();});\\n  jQuery(\\\'input.double,input.decimal\\\').keyup(function(){this.value=this.value.reverse().replace(/[^0-9\\\\-\\\\.]|[\\\\-](?=.)|[\\\\.](?=[0-9]*[\\\\.])/g,\\\'\\\').reverse();});\\n  jQuery("input[type=\\\'checkbox\\\'].delete").each(function(){jQuery(this).click(function() { if(this.checked) if(!confirm("\', escape=False)\nresponse.write(T(\'Sure you want to delete this object?\'))\nresponse.write(\'")) this.checked=false; });});\\n  try {jQuery("input.date").focus( function() {Calendar.setup({\\n     inputField:this.id, ifFormat:"\', escape=False)\nresponse.write(T(\'%Y-%m-%d\'))\nresponse.write(\'", showsTime:false\\n  }); }); } catch(e) {};\\n  try { jQuery("input.datetime").focus( function() {Calendar.setup({\\n     inputField:this.id, ifFormat:"\', escape=False)\nresponse.write(T(\'%Y-%m-%d %H:%M:%S\'))\nresponse.write(\'", showsTime: true,timeFormat: "24"\\n  }); }); } catch(e) {};\\n  try { jQuery("input.time").clockpick({\\n      starthour:0, endhour:23, showminutes:true, military:true\\n  }); } catch(e) {};\\n};\\njQuery(document).ready(function(){\\n   jQuery(\\\'.flash\\\').hide();\\n   if(jQuery(\\\'.flash\\\').html()!=\\\'\\\') jQuery(\\\'.flash\\\').slideDown(\\\'slow\\\');\\n   web2py_ajax_init();});\\n\\nfunction web2py_trap_form(action,target) {\\n   jQuery(\\\'#\\\'+target+\\\' form\\\').each(function(i){\\n      var form=jQuery(this);\\n      if(!form.hasClass(\\\'no_trap\\\'))\\n        form.submit(function(obj){\\n         jQuery(\\\'.flash\\\').hide().html(\\\'\\\');\\n         web2py_ajax_page(\\\'post\\\',action,form.serialize(),target);\\n         return false;\\n      });\\n   });\\n}\\n\\nfunction web2py_ajax_page(method,action,data,target) {\\n  jQuery.ajax({\\\'type\\\':method,\\\'url\\\':action,\\\'data\\\':data,\\n    \\\'beforeSend\\\':function(xhr) {\\n      xhr.setRequestHeader(\\\'web2py-component-location\\\',document.location);\\n      xhr.setRequestHeader(\\\'web2py-component-element\\\',target);},\\n    \\\'complete\\\':function(xhr,text){\\n      var html=xhr.responseText;\\n      var content=xhr.getResponseHeader(\\\'web2py-component-content\\\'); \\n      var command=xhr.getResponseHeader(\\\'web2py-component-command\\\');\\n      var flash=xhr.getResponseHeader(\\\'web2py-component-flash\\\');\\n      var t = jQuery(\\\'#\\\'+target);\\n      if(content==\\\'prepend\\\') t.prepend(html); \\n      else if(content==\\\'append\\\') t.append(html);\\n      else if(content!=\\\'hide\\\') t.html(html);  \\n      web2py_trap_form(action,target);\\n      web2py_ajax_init();      \\n      if(command) eval(command);\\n      if(flash) jQuery(\\\'.flash\\\').html(flash).slideDown();\\n      }\\n    });\\n}\\nfunction web2py_component(action,target) {\\n    jQuery(document).ready(function(){ web2py_ajax_page(\\\'get\\\',action,null,target); });\\n}\\n//--></script>\\n\', escape=False)\nresponse.write(\'\\n  <style>\\nul.web2py-menu-vertical { width: 150px; position: relative; top:1em; left:1em;  z-index:30; border:0; margin:0; padding: 0; list-style: none; text-decoration: none;}\\nul.web2py-menu-vertical li { margin:0; padding:0; border:0; width: 150px; background: black; text-align:left;}\\nul.web2py-menu-vertical li a { margin:0; padding: 1px 3px 1px 3px; border:0; width: 144px; color: white; font-size:12px;}\\ndiv.flash { position: fixed; float: right; padding: 10px; top: 10px; right: 30px; opacity: 0.75; margin: 10px 10px 10px 10px; text-align: center; clear: both; color: #fff; font-size: 11pt; text-align: center; vertical-align: middle; cursor: pointer; background: black; border: 2px solid #fff; -moz-border-radius: 5px; -webkit-border-radius: 5px; z-index: 2; }\\ndiv.error { background-color: red; color: white; padding: 3px; }\\n.auth_navbar { text-align:right; z-index:20; position: absolute; top: 2px; right:30px; border:0; padding:0 }\\n  </style>\\n </head>\\n <body>\\n  <!-- start header -->\\n  \', escape=False)\ntry:\n    response.write(auth.navbar(action=URL(\'default\',\'user\')))\nexcept:pass\nresponse.write(\'\\n\\n  <div id="wrapper">\\n   <div id="header">\\n    <div id="menu">\\n     \', escape=False)\nresponse.write(MENU(response.menu,_class=\'web2py-menu\'))\nresponse.write(\'\\n    <script>\\n      jQuery(document).ready(function(){jQuery(\\\'ul.web2py-menu\\\').superfish({delay:400});});\\n    </script>\\n    </div>\\n    <!-- end #menu -->\\n    <div id="search">\\n     <form method="get" action="">\\n      <fieldset>\\n       <input type="text" name="s" id="search-text" size="15" />\\n       <input type="submit" id="search-submit" value="Search" />\\n      </fieldset>\\n     </form>\\n    </div>\\n    <!-- end #search -->\\n   </div>\\n   <!-- end #header -->\\n   <div id="logo">\\n    <h1>\\n     \', escape=False)\nresponse.write(response.title or request.application)\nresponse.write(\'\\n    </h1>\\n    <p>\\n     <em>\\n      template design by\\n      <a href="#">\\n       Expropiada Templates\\n      </a>\\n     </em>\\n    </p>\\n   </div>\\n   <hr />\\n   <!-- end #logo -->\\n   <!-- end #header-wrapper -->\\n   <div id="page">\\n    <div id="content">\\n     <div class="flash">\', escape=False)\nresponse.write(response.flash or \'\')\nresponse.write(\'</div>\\n     \', escape=False)\nresponse.write(\'\\n\\n\', escape=False)\nresponse.write(table)\nresponse.write("\\n<div class=\'content\'>\\n    <ul>\\n        <li> ", escape=False)\nresponse.write(H3(A(T("Crear nueva entrada"), _class=\'link\', _href=\'createpost\'), _class=\'title\'))\nresponse.write(\' </li>\\n    <li> \', escape=False)\nresponse.write(H3(A(T("Modificar o Eliminar Entrada"), _class=\'link\'), _class=\'title\'))\nresponse.write(\'</li>\\n    </ul>\\n\', escape=False)\n#=tableart\nresponse.write("\\n<table class=\'adminpost\' border=\'1\' align=\'center\'>\\n<tr>\\n    <th>\\n    ", escape=False)\nresponse.write(T("T\xc3\xadtulo"))\nresponse.write(\'\\n    </th>\\n    <th>\\n    \', escape=False)\nresponse.write(T("Fecha de Creaci\xc3\xb3n"))\nresponse.write(\'\\n    </th>\\n    <th colspan=2>\\n    \', escape=False)\nresponse.write(T("Acciones"))\nresponse.write(\'\\n    </th>\\n</tr>\\n\', escape=False)\nfor registro in tableart:\n    response.write(\'\\n    <tr>\\n    <td>\\n        \', escape=False)\n    response.write(T(registro.articulos.titulo))\n    response.write(\'\\n    </td>\\n    <td>\\n        \', escape=False)\n    response.write(registro.articulos.fecha)\n    response.write(\'\\n    </td>\\n    <td>\\n        \', escape=False)\n    response.write(A(T("Modicar Post"), _href=URL(\'modifypost\', args=registro.articulos.id), _class=\'link\'))\n    response.write(\'\\n    </td>\\n    <td>\\n        \', escape=False)\n    response.write(A(T("Eliminar Post"), _href=URL(\'deletepost\', args=registro.articulos.id), _class=\'link\'))\n    response.write(\'\\n    </td>\\n\', escape=False)\n    pass\nresponse.write(\'\\n    </tr>\\n</table>\\n</div>\\n\', escape=False)\nresponse.write(\'\\n    </div>\\n    <!-- end #content -->\\n    <div id="sidebar">\\n     <ul>\\n      <li>\\n       <h2> Twitter Busqueda: perl</h2>\\n       <p>\\n        Mauris vitae nisl nec metus placerat perdiet est. Phasellus dapibus semper urna. Pellentesque ornare, orci in consectetuer hendrerit, volutpat.\\n       </p>\\n      </li>\\n      <li>\\n       <h2>\\n        Twitter Busqueda: python\\n       </h2>\\n       <ul>\\n        <li>\\n         <a href="#">\\n         </a>\\n         <a href="#">\\n          Nec metus sed donec\\n         </a>\\n        </li>\\n        <li>\\n         <a href="#">\\n          Magna lacus bibendum mauris\\n         </a>\\n        </li>\\n        <li>\\n         <a href="#">\\n          Velit semper nisi molestie\\n         </a>\\n        </li>\\n        <li>\\n         <a href="#">\\n          Eget tempor eget nonummy\\n         </a>\\n        </li>\\n        <li>\\n         <a href="#">\\n          Nec metus sed donec\\n         </a>\\n        </li>\\n       </ul>\\n      </li>\\n     </ul>\\n     <ul>\\n     <li>\\n       <h2>\\n        Mi Twitter\\n       </h2>\\n       <p> aca va twitter </p>\\n      </li>\\n     <ul>\\n    </div>\\n    <!-- end #sidebar -->\\n    <div style="clear: both;">\\n     &nbsp;\\n    </div>\\n   </div>\\n   <!-- end #page -->\\n   <div id="footer">\\n    <p> .:B106 d3 j3nnn1:.</p>\\n   </div>\\n   <!-- end #footer -->\\n  </div>\\n </body>\\n</html>\\n\', escape=False)'
p6
sS'snapshot'
p7
(dp8
S'exception'
p9
(dp10
S'__hash__'
p11
S"<method-wrapper '__hash__' of exceptions.NameError object>"
p12
sS'__setattr__'
p13
S"<method-wrapper '__setattr__' of exceptions.NameError object>"
p14
sS'__reduce_ex__'
p15
S'<built-in method __reduce_ex__ of exceptions.NameError object>'
p16
sS'__getslice__'
p17
S"<method-wrapper '__getslice__' of exceptions.NameError object>"
p18
sS'__getitem__'
p19
S"<method-wrapper '__getitem__' of exceptions.NameError object>"
p20
sS'__setstate__'
p21
S'<built-in method __setstate__ of exceptions.NameError object>'
p22
sS'__reduce__'
p23
S'<built-in method __reduce__ of exceptions.NameError object>'
p24
sS'__str__'
p25
S"<method-wrapper '__str__' of exceptions.NameError object>"
p26
sS'__format__'
p27
S'<built-in method __format__ of exceptions.NameError object>'
p28
sS'__getattribute__'
p29
S"<method-wrapper '__getattribute__' of exceptions.NameError object>"
p30
sS'__class__'
p31
S"<type 'exceptions.NameError'>"
p32
sS'__unicode__'
p33
S'<built-in method __unicode__ of exceptions.NameError object>'
p34
sS'__delattr__'
p35
S"<method-wrapper '__delattr__' of exceptions.NameError object>"
p36
sS'__subclasshook__'
p37
S'<built-in method __subclasshook__ of type object>'
p38
sS'__repr__'
p39
S"<method-wrapper '__repr__' of exceptions.NameError object>"
p40
sS'args'
p41
S'("name \'tableart\' is not defined",)'
p42
sS'__dict__'
p43
S'{}'
p44
sS'__sizeof__'
p45
S'<built-in method __sizeof__ of exceptions.NameError object>'
p46
sS'__doc__'
p47
S"'Name not found globally.'"
p48
sS'__init__'
p49
S"<method-wrapper '__init__' of exceptions.NameError object>"
p50
sS'__new__'
p51
S'<built-in method __new__ of type object>'
p52
ssS'evalue'
p53
S"name 'tableart' is not defined"
p54
sS'request'
p55
(dp56
S'function'
p57
S"'deletepost'"
p58
sS'body'
p59
S'<cStringIO.StringO object>'
p60
sS'wsgi'
p61
S"<Storage {'start_response': <function <lambda> a...ING': 'gzip,deflate', 'HTTP_KEEP_ALIVE': '115'}}>"
p62
sS'extension'
p63
S"'html'"
p64
sS'vars'
p65
S'<Storage {}>'
p66
sS'cid'
p67
S'None'
p68
sS'url'
p69
S'<gluon.html.XML object>'
p70
sg41
S"['12']"
p71
sS'controller'
p72
S"'default'"
p73
sS'cookies'
p74
S"<SimpleCookie: session_id_admin='127-0-0-1-877c5...'127-0-0-1-abbacfdd-6a37-4a45-8aaf-8734a84b6dd4'>"
p75
sS'application'
p76
S"'blog'"
p77
sS'ajax'
p78
S'False'
p79
sS'client'
p80
S"'127.0.0.1'"
p81
sS'env'
p82
S"<Storage {'http_user_agent': 'Mozilla/5.0 (Windo...lse, 'path_info': '/blog/default/deletepost/12'}>"
p83
sS'raw_args'
p84
S"'12'"
p85
sS'get_vars'
p86
S'<Storage {}>'
p87
sS'folder'
p88
S"'/cygdrive/e/Documents and Settings/jmaldo03/git/pyj3nnn1/pyj3nnn1/web2py/applications/blog/'"
p89
sS'now'
p90
S'datetime.datetime(2010, 10, 25, 11, 54, 43, 68750)'
p91
sS'post_vars'
p92
S'<Storage {}>'
p93
ssS'frames'
p94
(lp95
(dp96
S'file'
p97
S'/cygdrive/e/Documents and Settings/jmaldo03/git/pyj3nnn1/pyj3nnn1/web2py/gluon/restricted.py'
p98
sS'dump'
p99
(dp100
S'environment'
p101
S"{'A': <class 'gluon.html.A'>, 'Auth': <class 'gluon.tools.Auth'>, 'B': <class 'gluon.html.B'>, 'BEAUTIFY': <class 'gluon.html.BEAUTIFY'>, 'BODY': <class 'gluon.html.BODY'>, 'BR': <class 'gluon.html.BR'>, 'CENTER': <class 'gluon.html.CENTER'>, 'CLEANUP': <class 'gluon.validators.CLEANUP'>, 'CODE': <class 'gluon.html.CODE'>, 'CRYPT': <class 'gluon.validators.CRYPT'>, ...}"
p102
sS'ccode'
p103
S'<code object <module> at 0x7f61ec80, file "/cygd...ions/blog/views/default/deletepost.html", line 1>'
p104
ssS'lnum'
p105
I188
sS'lines'
p106
(dp107
I192
S'        # XXX Show exception in Wing IDE if running in debugger'
p108
sI183
S'        if type(code) == types.CodeType:'
p109
sI184
S'            ccode = code'
p110
sI185
S'        else:'
p111
sI186
S'            ccode = compile2(code,layer)'
p112
sI187
S''
sI188
S'        exec ccode in environment'
p113
sI189
S'    except HTTP:'
p114
sI190
S'        raise'
p115
sI191
S'    except Exception:'
p116
ssS'call'
p117
S'(code=\'response.write(\\\'<!DOCTYPE html PUBLIC "-//W3C//D...->\\\\n  </div>\\\\n </body>\\\\n</html>\\\\n\\\', escape=False)\', environment={\'A\': <class \'gluon.html.A\'>, \'Auth\': <class \'gluon.tools.Auth\'>, \'B\': <class \'gluon.html.B\'>, \'BEAUTIFY\': <class \'gluon.html.BEAUTIFY\'>, \'BODY\': <class \'gluon.html.BODY\'>, \'BR\': <class \'gluon.html.BR\'>, \'CENTER\': <class \'gluon.html.CENTER\'>, \'CLEANUP\': <class \'gluon.validators.CLEANUP\'>, \'CODE\': <class \'gluon.html.CODE\'>, \'CRYPT\': <class \'gluon.validators.CRYPT\'>, ...}, layer=\'/cygdrive/e/Documents and Settings/jmaldo03/git/...y/applications/blog/views/default/deletepost.html\')'
p118
sS'func'
p119
S'restricted'
p120
sa(dp121
g97
S'/cygdrive/e/Documents and Settings/jmaldo03/git/pyj3nnn1/pyj3nnn1/web2py/applications/blog/views/default/deletepost.html'
p122
sg99
(dp123
sg105
I64
sg106
(dp124
I64
S'for registro in tableart:'
p125
sI65
S"    response.write('\\n    <tr>\\n    <td>\\n        ', escape=False)"
p126
sI66
S'    response.write(T(registro.articulos.titulo))'
p127
sI67
S"    response.write('\\n    </td>\\n    <td>\\n        ', escape=False)"
p128
sI68
S'    response.write(registro.articulos.fecha)'
p129
sI69
S"    response.write('\\n    </td>\\n    <td>\\n        ', escape=False)"
p130
sI70
S'    response.write(A(T("Modicar Post"), _href=URL(\'modifypost\', args=registro.articulos.id), _class=\'link\'))'
p131
sI71
S"    response.write('\\n    </td>\\n    <td>\\n        ', escape=False)"
p132
sI72
S'    response.write(A(T("Eliminar Post"), _href=URL(\'deletepost\', args=registro.articulos.id), _class=\'link\'))'
p133
sI73
S"    response.write('\\n    </td>\\n', escape=False)"
p134
sI74
S'    pass'
p135
sI55
S"response.write('</li>\\n    </ul>\\n', escape=False)"
p136
sI56
S'#=tableart'
p137
sI57
S'response.write("\\n<table class=\'adminpost\' border=\'1\' align=\'center\'>\\n<tr>\\n    <th>\\n    ", escape=False)'
p138
sI58
S'response.write(T("T\xc3\xadtulo"))'
p139
sI59
S"response.write('\\n    </th>\\n    <th>\\n    ', escape=False)"
p140
sI60
S'response.write(T("Fecha de Creaci\xc3\xb3n"))'
p141
sI61
S"response.write('\\n    </th>\\n    <th colspan=2>\\n    ', escape=False)"
p142
sI62
S'response.write(T("Acciones"))'
p143
sI63
S"response.write('\\n    </th>\\n</tr>\\n', escape=False)"
p144
ssg117
S'()'
p145
sg119
S'<module>'
p146
sasS'pyver'
p147
S'Python 2.6.5: /usr/bin/python'
p148
sS'session'
p149
(dp150
S'_formkey[articulos_create]'
p151
S"'61685073-3084-41a5-ad6b-d2cd4cb259a8'"
p152
sS'_formkey[register]'
p153
S"'916f3654-72ab-4fe3-8c51-26ed26684973'"
p154
sS'flash'
p155
S'None'
p156
sS'auth'
p157
S"<Storage {'expiration': 3600, 'last_visit': date...y': '', 'email': 'jcmm986@gmail.com', 'id': 1}>}>"
p158
sS'last_orderby'
p159
S'None'
p160
sS'last_query'
p161
S"'db.articulos.id>0'"
p162
sS'_formkey[comentarios_create]'
p163
S"'d790f6ac-3d09-4040-9003-e1b08e3cb564'"
p164
sS'_formkey[articulos_1]'
p165
S"'074680d4-ecb2-487d-9a3c-920a47b19b26'"
p166
sS'_formkey[login]'
p167
S"'cd0d63aa-d852-4aef-8758-6b04cccb3d22'"
p168
ssS'etype'
p169
S"<type 'exceptions.NameError'>"
p170
sS'date'
p171
S'Mon Oct 25 11:54:43 2010'
p172
sS'response'
p173
(dp174
S'status'
p175
S'200'
p176
sg59
S'<cStringIO.StringO object>'
p177
sg74
S"<SimpleCookie: session_id_blog='127-0-0-1-fee2cd34-3e42-44cb-bee6-3936b80cedc4'>"
p178
sS'_vars'
p179
S"{'table': [<Row {'articulos': <Row {'update_record': <funct...lete_record': <function <lambda> at 0xe29b8c>}>}>, <Row {'articulos': <Row {'update_record': <funct...lete_record': <function <lambda> at 0xe29064>}>}>, <Row {'articulos': <Row {'update_record': <funct...lete_record': <function <lambda> at 0xe291b4>}>}>, <Row {'articulos': <Row {'update_record': <funct...lete_record': <function <lambda> at 0xe2933c>}>}>]}"
p180
sS'title'
p181
S"'blog'"
p182
sS'session_file'
p183
S"<open file '/cygdrive/e/Documents and Settings/j...ee2cd34-3e42-44cb-bee6-3936b80cedc4', mode 'rb+'>"
p184
sS'flash'
p185
S"'Tu articulo ha sido eliminado'"
p186
sS'_custom_rollback'
p187
S'None'
p188
sS'session_id'
p189
S"'127-0-0-1-fee2cd34-3e42-44cb-bee6-3936b80cedc4'"
p190
sS'headers'
p191
S"<Storage {'Expires': 'Mon, 25 Oct 2010 16:24:43 ...he, must-revalidate, post-check=0, pre-check=0'}>"
p192
sS'meta'
p193
S"<Storage {'keywords': 'j3nnn1 web2py python', 'd...con web2py... ', 'author': 'Jennifer Maldonado'}>"
p194
sS'session_filename'
p195
S"'/cygdrive/e/Documents and Settings/jmaldo03/git/...ns/127-0-0-1-fee2cd34-3e42-44cb-bee6-3936b80cedc4'"
p196
sS'postprocessing'
p197
S'[]'
p198
sS'menu'
p199
S"[(<lazyT 'Index'>, False, <gluon.html.XML object>, []), (<lazyT 'About'>, False, <gluon.html.XML object>, []), (<lazyT 'Admin'>, False, <gluon.html.XML object>, []), (<lazyT 'Edit'>, False, <gluon.html.XML object>, [(<lazyT 'Controller'>, False, <gluon.html.XML object>), (<lazyT 'View'>, False, <gluon.html.XML object>), (<lazyT 'Layout'>, False, <gluon.html.XML object>), (<lazyT 'Stylesheet'>, False, <gluon.html.XML object>), (<lazyT 'DB Model'>, False, <gluon.html.XML object>), (<lazyT 'Menu Model'>, False, <gluon.html.XML object>), (<lazyT 'Database'>, False, <gluon.html.XML object>)])]"
p200
sS'_view_environment'
p201
S"{'A': <class 'gluon.html.A'>, 'Auth': <class 'gluon.tools.Auth'>, 'B': <class 'gluon.html.B'>, 'BEAUTIFY': <class 'gluon.html.BEAUTIFY'>, 'BODY': <class 'gluon.html.BODY'>, 'BR': <class 'gluon.html.BR'>, 'CENTER': <class 'gluon.html.CENTER'>, 'CLEANUP': <class 'gluon.validators.CLEANUP'>, 'CODE': <class 'gluon.html.CODE'>, 'CRYPT': <class 'gluon.validators.CRYPT'>, ...}"
p202
sS'subtitle'
p203
S'<lazyT "it\'s me j3nnn1">'
p204
sS'session_id_name'
p205
S"'session_id_blog'"
p206
sS'_custom_commit'
p207
S'None'
p208
sS'_caller'
p209
S'<function <lambda>>'
p210
sS'files'
p211
S'[<gluon.html.XML object>, <gluon.html.XML object>, <gluon.html.XML object>, <gluon.html.XML object>, <gluon.html.XML object>]'
p212
sS'view'
p213
S"'default/deletepost.html'"
p214
ssS'locals'
p215
(dp216
S'Service'
p217
S'<class gluon.tools.Service>'
p218
sS'OBJECT'
p219
S"<class 'gluon.html.OBJECT'>"
p220
sS'_file'
p221
S'<gluon.html.XML object>'
p222
sS'datetime'
p223
S"<module 'datetime' from '/usr/lib/python2.6/lib-dynload/datetime.dll'>"
p224
sg149
S"<Storage {'_formkey[articulos_create]': '6168507...login]': 'cd0d63aa-d852-4aef-8758-6b04cccb3d22'}>"
p225
sS'LINK'
p226
S"<class 'gluon.html.LINK'>"
p227
sS'BR'
p228
S"<class 'gluon.html.BR'>"
p229
sS'local_import'
p230
S'<function <lambda>>'
p231
sS'OPTGROUP'
p232
S"<class 'gluon.html.OPTGROUP'>"
p233
sS'PRE'
p234
S"<class 'gluon.html.PRE'>"
p235
sS'IS_INT_IN_RANGE'
p236
S"<class 'gluon.validators.IS_INT_IN_RANGE'>"
p237
sS'IS_LOWER'
p238
S"<class 'gluon.validators.IS_LOWER'>"
p239
sS'IS_STRONG'
p240
S"<class 'gluon.validators.IS_STRONG'>"
p241
sS'Recaptcha'
p242
S"<class 'gluon.tools.Recaptcha'>"
p243
sS'cache'
p244
S'<gluon.cache.Cache object>'
p245
sS'IS_IN_DB'
p246
S"<class 'gluon.validators.IS_IN_DB'>"
p247
sS'TAG'
p248
S'<gluon.html.__TAG__ object>'
p249
sS'_k'
p250
S'4'
sS'SQLField'
p251
S"<class 'gluon.sql.Field'>"
p252
sS'mail'
p253
S'<gluon.tools.Mail object>'
p254
sS'BODY'
p255
S"<class 'gluon.html.BODY'>"
p256
sS'IS_DATE_IN_RANGE'
p257
S"<class 'gluon.validators.IS_DATE_IN_RANGE'>"
p258
sS'TH'
p259
S"<class 'gluon.html.TH'>"
p260
sS'URL'
p261
S'<function _URL>'
p262
sS'db'
p263
S"<SQLDB {'auth_event': <Table {'origin': <gluon.s... 'id': <gluon.sql.Field object at 0x7f82d40c>}>}>"
p264
sS'auth'
p265
S'<gluon.tools.Auth object>'
p266
sS'P'
S"<class 'gluon.html.P'>"
p267
sS'TFOOT'
p268
S"<class 'gluon.html.TFOOT'>"
p269
sS'XHTML'
p270
S"<class 'gluon.html.XHTML'>"
p271
sg90
S'datetime.datetime(2010, 10, 25, 11, 54, 43, 111750)'
p272
sS'ON'
p273
S'True'
p274
sS'OL'
p275
S"<class 'gluon.html.OL'>"
p276
sS'TEXTAREA'
p277
S"<class 'gluon.html.TEXTAREA'>"
p278
sS'MENU'
p279
S"<class 'gluon.html.MENU'>"
p280
sS'LOAD'
p281
S'<gluon.compileapp.LoadFactory instance>'
p282
sS'CODE'
p283
S"<class 'gluon.html.CODE'>"
p284
sS'HTTP'
p285
S"<class 'gluon.http.HTTP'>"
p286
sS'HR'
p287
S"<class 'gluon.html.HR'>"
p288
sS'IS_DATETIME'
p289
S"<class 'gluon.validators.IS_DATETIME'>"
p290
sS'HEAD'
p291
S"<class 'gluon.html.HEAD'>"
p292
sS'LABEL'
p293
S"<class 'gluon.html.LABEL'>"
p294
sS'CLEANUP'
p295
S"<class 'gluon.validators.CLEANUP'>"
p296
sS'plugins'
p297
S'<gluon.tools.PluginManager object>'
p298
sS'SELECT'
p299
S"<class 'gluon.html.SELECT'>"
p300
sS'CENTER'
p301
S"<class 'gluon.html.CENTER'>"
p302
sS'prettydate'
p303
S'<function prettydate>'
p304
sS'Crud'
p305
S"<class 'gluon.tools.Crud'>"
p306
sS'Auth'
p307
S"<class 'gluon.tools.Auth'>"
p308
sS'__builtins__'
p309
S"{'ArithmeticError': <type 'exceptions.ArithmeticError'>, 'AssertionError': <type 'exceptions.AssertionError'>, 'AttributeError': <type 'exceptions.AttributeError'>, 'BaseException': <type 'exceptions.BaseException'>, 'BufferError': <type 'exceptions.BufferError'>, 'BytesWarning': <type 'exceptions.BytesWarning'>, 'DeprecationWarning': <type 'exceptions.DeprecationWarning'>, 'EOFError': <type 'exceptions.EOFError'>, 'Ellipsis': Ellipsis, 'EnvironmentError': <type 'exceptions.EnvironmentError'>, ...}"
p310
sS'IS_LIST_OF'
p311
S"<class 'gluon.validators.IS_LIST_OF'>"
p312
sS'SQLFORM'
p313
S"<class 'gluon.sqlhtml.SQLFORM'>"
p314
sS'_item'
p315
S"'author'"
p316
sS'EM'
p317
S"<class 'gluon.html.EM'>"
p318
sS'redirect'
p319
S'<function redirect>'
p320
sS'FIELDSET'
p321
S"<class 'gluon.html.FIELDSET'>"
p322
sS'IS_EQUAL_TO'
p323
S"<class 'gluon.validators.IS_EQUAL_TO'>"
p324
sS'embed64'
p325
S'<function embed64>'
p326
sS'INPUT'
p327
S"<class 'gluon.html.INPUT'>"
p328
sS'EMBED'
p329
S"<class 'gluon.html.EMBED'>"
p330
sS'FORM'
p331
S"<class 'gluon.html.FORM'>"
p332
sS'H2'
p333
S"<class 'gluon.html.H2'>"
p334
sS'H3'
p335
S"<class 'gluon.html.H3'>"
p336
sS'H1'
p337
S"<class 'gluon.html.H1'>"
p338
sS'H6'
p339
S"<class 'gluon.html.H6'>"
p340
sS'H4'
p341
S"<class 'gluon.html.H4'>"
p342
sS'H5'
p343
S"<class 'gluon.html.H5'>"
p344
sS'UL'
p345
S"<class 'gluon.html.UL'>"
p346
sS'IS_UPPER'
p347
S"<class 'gluon.validators.IS_UPPER'>"
p348
sS'xmlescape'
p349
S'<function xmlescape>'
p350
sS'IS_TIME'
p351
S"<class 'gluon.validators.IS_TIME'>"
p352
sS'OPTION'
p353
S"<class 'gluon.html.OPTION'>"
p354
sS'TITLE'
p355
S"<class 'gluon.html.TITLE'>"
p356
sS'CRYPT'
p357
S"<class 'gluon.validators.CRYPT'>"
p358
sS'IS_EMPTY_OR'
p359
S"<class 'gluon.validators.IS_EMPTY_OR'>"
p360
sS'MARKMIN'
p361
S"<class 'gluon.html.MARKMIN'>"
p362
sS'table'
p363
S"[<Row {'articulos': <Row {'update_record': <funct...lete_record': <function <lambda> at 0xe29b8c>}>}>, <Row {'articulos': <Row {'update_record': <funct...lete_record': <function <lambda> at 0xe29064>}>}>, <Row {'articulos': <Row {'update_record': <funct...lete_record': <function <lambda> at 0xe291b4>}>}>, <Row {'articulos': <Row {'update_record': <funct...lete_record': <function <lambda> at 0xe2933c>}>}>]"
p364
sS'service'
p365
S'<gluon.tools.Service instance>'
p366
sS'SCRIPT'
p367
S"<class 'gluon.html.SCRIPT'>"
p368
sS'geocode'
p369
S'<function geocode>'
p370
sS'TABLE'
p371
S"<class 'gluon.html.TABLE'>"
p372
sS'IS_IPV4'
p373
S"<class 'gluon.validators.IS_IPV4'>"
p374
sS'IS_LENGTH'
p375
S"<class 'gluon.validators.IS_LENGTH'>"
p376
sS'XML'
p377
S"<class 'gluon.html.XML'>"
p378
sS'B'
S"<class 'gluon.html.B'>"
p379
sS'IMG'
p380
S"<class 'gluon.html.IMG'>"
p381
sS'SQLTABLE'
p382
S"<class 'gluon.sqlhtml.SQLTABLE'>"
p383
sS'IS_MATCH'
p384
S"<class 'gluon.validators.IS_MATCH'>"
p385
sS'IS_ALPHANUMERIC'
p386
S"<class 'gluon.validators.IS_ALPHANUMERIC'>"
p387
sS'SPAN'
p388
S"<class 'gluon.html.SPAN'>"
p389
sS'IS_SLUG'
p390
S"<class 'gluon.validators.IS_SLUG'>"
p391
sS'BEAUTIFY'
p392
S"<class 'gluon.html.BEAUTIFY'>"
p393
sS'META'
p394
S"<class 'gluon.html.META'>"
p395
sS'SQLDB'
p396
S"<class 'gluon.sql.SQLDB'>"
p397
sS'fetch'
p398
S'<function fetch>'
p399
sS'IS_DATE'
p400
S"<class 'gluon.validators.IS_DATE'>"
p401
sS'IS_EMAIL'
p402
S"<class 'gluon.validators.IS_EMAIL'>"
p403
sS'IS_NOT_EMPTY'
p404
S"<class 'gluon.validators.IS_NOT_EMPTY'>"
p405
sg55
S"<Storage {'function': 'deletepost', 'body': <cSt..., 11, 54, 43, 68750), 'post_vars': <Storage {}>}>"
p406
sS'TBODY'
p407
S"<class 'gluon.html.TBODY'>"
p408
sS'Field'
p409
S"<class 'gluon.sql.Field'>"
p410
sS'Mail'
p411
S"<class 'gluon.tools.Mail'>"
p412
sS'DIV'
p413
S"<class 'gluon.html.DIV'>"
p414
sS'LEGEND'
p415
S"<class 'gluon.html.LEGEND'>"
p416
sS'DAL'
p417
S'<function DAL>'
p418
sS'TT'
p419
S"<class 'gluon.html.TT'>"
p420
sS'TR'
p421
S"<class 'gluon.html.TR'>"
p422
sS'LI'
p423
S"<class 'gluon.html.LI'>"
p424
sS'IFRAME'
p425
S"<class 'gluon.html.IFRAME'>"
p426
sS'TD'
p427
S"<class 'gluon.html.TD'>"
p428
sS'PluginManager'
p429
S"<class 'gluon.tools.PluginManager'>"
p430
sS'IS_URL'
p431
S"<class 'gluon.validators.IS_URL'>"
p432
sS'A'
S"<class 'gluon.html.A'>"
p433
sS'STYLE'
p434
S"<class 'gluon.html.STYLE'>"
p435
sS'IS_DATETIME_IN_RANGE'
p436
S"<class 'gluon.validators.IS_DATETIME_IN_RANGE'>"
p437
sS'HTML'
p438
S"<class 'gluon.html.HTML'>"
p439
sS'IS_IMAGE'
p440
S"<class 'gluon.validators.IS_IMAGE'>"
p441
sS'I'
S"<class 'gluon.html.I'>"
p442
sS'crud'
p443
S'<gluon.tools.Crud object>'
p444
sS'IS_NOT_IN_DB'
p445
S"<class 'gluon.validators.IS_NOT_IN_DB'>"
p446
sg173
S"<Storage {'status': 200, 'body': <cStringIO.Stri...bject at 0x7f66a4ec>], '_custom_rollback': None}>"
p447
sS'THEAD'
p448
S"<class 'gluon.html.THEAD'>"
p449
sS'IS_NULL_OR'
p450
S"<class 'gluon.validators.IS_EMPTY_OR'>"
p451
sS'IS_FLOAT_IN_RANGE'
p452
S"<class 'gluon.validators.IS_FLOAT_IN_RANGE'>"
p453
sS'IS_EXPR'
p454
S"<class 'gluon.validators.IS_EXPR'>"
p455
sS'T'
S'<gluon.languages.translator object>'
p456
sS'IS_IN_SET'
p457
S"<class 'gluon.validators.IS_IN_SET'>"
p458
sS'IS_UPLOAD_FILENAME'
p459
S"<class 'gluon.validators.IS_UPLOAD_FILENAME'>"
p460
sS'IS_DECIMAL_IN_RANGE'
p461
S"<class 'gluon.validators.IS_DECIMAL_IN_RANGE'>"
p462
sssS'traceback'
p463
S'Traceback (most recent call last):\n  File "/cygdrive/e/Documents and Settings/jmaldo03/git/pyj3nnn1/pyj3nnn1/web2py/gluon/restricted.py", line 188, in restricted\n    exec ccode in environment\n  File "/cygdrive/e/Documents and Settings/jmaldo03/git/pyj3nnn1/pyj3nnn1/web2py/applications/blog/views/default/deletepost.html", line 64, in <module>\nNameError: name \'tableart\' is not defined\n'
p464
s.