(dp1
S'output'
p2
S''
sS'layer'
p3
S'/home/j3nnn1/git/pyj3nnn1/web2py/applications/blog/controllers/appadmin.py'
p4
sS'code'
p5
S'# -*- coding: utf-8 -*-\n\n# ##########################################################\n# ## make sure administrator is on localhost\n# ###########################################################\n\nimport os\nimport socket\nimport datetime\nimport copy\nimport gluon.contenttype\nimport gluon.fileutils\n\n# ## critical --- make a copy of the environment\n\nglobal_env = copy.copy(globals())\nglobal_env[\'datetime\'] = datetime\n\nhttp_host = request.env.http_host.split(\':\')[0]\nremote_addr = request.env.remote_addr\ntry:\n    hosts = (http_host, socket.gethostname(),\n             socket.gethostbyname(http_host),\n             \'::1\',\'127.0.0.1\',\'::ffff:127.0.0.1\')   \nexcept:\n    hosts = (http_host, )\n\nif request.env.http_x_forwarded_for or request.env.wsgi_url_scheme\\\n     in [\'https\', \'HTTPS\']:\n    session.secure()\nelif (remote_addr not in hosts) and (remote_addr != "127.0.0.1"):\n    raise HTTP(200, T(\'appadmin is disabled because insecure channel\'))\nif not gluon.fileutils.check_credentials(request):\n    redirect(URL(a=\'admin\', c=\'default\', f=\'index\'))\n\nignore_rw = True\nresponse.view = \'appadmin.html\'\nresponse.menu = [[T(\'design\'), False, URL(\'admin\', \'default\', \'design\',\n                 args=[request.application])], [T(\'db\'), False,\n                 URL(\'index\')], [T(\'state\'), False,\n                 URL(\'state\')], [T(\'cache\'), False,\n                 URL(\'ccache\')]]\n\n# ##########################################################\n# ## auxiliary functions\n# ###########################################################\n\n\ndef get_databases(request):\n    dbs = {}\n    for (key, value) in global_env.items():\n        cond = False\n        try:\n            cond = isinstance(value, GQLDB)\n        except:\n            cond = isinstance(value, SQLDB)\n        if cond:\n            dbs[key] = value\n    return dbs\n\n\ndatabases = get_databases(None)\n\n\ndef eval_in_global_env(text):\n    exec (\'_ret=%s\' % text, {}, global_env)\n    return global_env[\'_ret\']\n\n\ndef get_database(request):\n    if request.args and request.args[0] in databases:\n        return eval_in_global_env(request.args[0])\n    else:\n        session.flash = T(\'invalid request\')\n        redirect(URL(\'index\'))\n\n\ndef get_table(request):\n    db = get_database(request)\n    if len(request.args) > 1 and request.args[1] in db.tables:\n        return (db, request.args[1])\n    else:\n        session.flash = T(\'invalid request\')\n        redirect(URL(\'index\'))\n\n\ndef get_query(request):\n    try:\n        return eval_in_global_env(request.vars.query)\n    except Exception:\n        return None\n\n\ndef query_by_table_type(tablename,db,request=request):\n    keyed = hasattr(db[tablename],\'_primarykey\')\n    if keyed:\n        firstkey = db[tablename][db[tablename]._primarykey[0]]\n        cond = \'>0\'\n        if firstkey.type in [\'string\', \'text\']:\n            cond = \'!=""\'\n        qry = \'%s.%s.%s%s\' % (request.args[0], request.args[1], firstkey.name, cond)\n    else:\n        qry = \'%s.%s.id>0\' % tuple(request.args[:2])\n    return qry\n\n\n\n# ##########################################################\n# ## list all databases and tables\n# ###########################################################\n\n\ndef index():\n    return dict(databases=databases)\n\n\n# ##########################################################\n# ## insert a new record\n# ###########################################################\n\n\ndef insert():\n    (db, table) = get_table(request)\n    form = SQLFORM(db[table], ignore_rw=ignore_rw)\n    if form.accepts(request.vars, session):\n        response.flash = T(\'new record inserted\')\n    return dict(form=form,table=db[table])\n\n\n# ##########################################################\n# ## list all records in table and insert new record\n# ###########################################################\n\n\ndef download():\n    import os\n    db = get_database(request)\n    return response.download(request,db)\n\ndef csv():\n    import gluon.contenttype\n    response.headers[\'Content-Type\'] = \\\n        gluon.contenttype.contenttype(\'.csv\')\n    db = get_database(request)\n    query = get_query(request)\n    if not query:\n        return None\n    response.headers[\'Content-disposition\'] = \'attachment; filename=%s_%s.csv\'\\\n         % tuple(request.vars.query.split(\'.\')[:2])\n    return str(db(query).select())\n\n\ndef import_csv(table, file):\n    table.import_from_csv_file(file)\n\ndef select():\n    import re\n    db = get_database(request)\n    dbname = request.args[0]\n    regex = re.compile(\'(?P<table>\\w+)\\.(?P<field>\\w+)=(?P<value>\\d+)\')\n    if len(request.args)>1 and hasattr(db[request.args[1]],\'_primarykey\'):\n        regex = re.compile(\'(?P<table>\\w+)\\.(?P<field>\\w+)=(?P<value>.+)\')\n    if request.vars.query:\n        match = regex.match(request.vars.query)\n        if match:\n            request.vars.query = \'%s.%s.%s==%s\' % (request.args[0],\n                    match.group(\'table\'), match.group(\'field\'),\n                    match.group(\'value\'))\n    else:\n        request.vars.query = session.last_query\n    query = get_query(request)\n    if request.vars.start:\n        start = int(request.vars.start)\n    else:\n        start = 0\n    nrows = 0\n    stop = start + 100\n    table = None\n    rows = []\n    orderby = request.vars.orderby\n    if orderby:\n        orderby = dbname + \'.\' + orderby\n        if orderby == session.last_orderby:\n            if orderby[0] == \'~\':\n                orderby = orderby[1:]\n            else:\n                orderby = \'~\' + orderby\n    session.last_orderby = orderby\n    session.last_query = request.vars.query\n    form = FORM(TABLE(TR(T(\'Query:\'), \'\', INPUT(_style=\'width:400px\',\n                _name=\'query\', _value=request.vars.query or \'\',\n                requires=IS_NOT_EMPTY(error_message=T("Cannot be empty")))), TR(T(\'Update:\'),\n                INPUT(_name=\'update_check\', _type=\'checkbox\',\n                value=False), INPUT(_style=\'width:400px\',\n                _name=\'update_fields\', _value=request.vars.update_fields\n                 or \'\')), TR(T(\'Delete:\'), INPUT(_name=\'delete_check\',\n                _class=\'delete\', _type=\'checkbox\', value=False), \'\'),\n                TR(\'\', \'\', INPUT(_type=\'submit\', _value=\'submit\'))),\n                _action=URL(r=request,args=request.args))\n    if request.vars.csvfile != None:\n        try:\n            import_csv(db[request.vars.table],\n                       request.vars.csvfile.file)\n            response.flash = T(\'data uploaded\')\n        except Exception, e:\n            response.flash = DIV(T(\'unable to parse csv file\'),PRE(str(e)))\n    if form.accepts(request.vars, formname=None):\n#         regex = re.compile(request.args[0] + \'\\.(?P<table>\\w+)\\.id\\>0\')\n        regex = re.compile(request.args[0] + \'\\.(?P<table>\\w+)\\..+\')\n        \n        match = regex.match(form.vars.query.strip())\n        if match:\n            table = match.group(\'table\')\n        try:\n            nrows = db(query).count()\n            if form.vars.update_check and form.vars.update_fields:\n                db(query).update(**eval_in_global_env(\'dict(%s)\'\n                                  % form.vars.update_fields))\n                response.flash = T(\'%s rows updated\', nrows)\n            elif form.vars.delete_check:\n                db(query).delete()\n                response.flash = T(\'%s rows deleted\', nrows)\n            nrows = db(query).count()\n            if orderby:\n                rows = db(query).select(limitby=(start, stop),\n                        orderby=eval_in_global_env(orderby))\n            else:\n                rows = db(query).select(limitby=(start, stop))\n        except Exception, e:\n            (rows, nrows) = ([], 0)\n            response.flash = DIV(T(\'Invalid Query\'),PRE(str(e)))\n    return dict(\n        form=form,\n        table=table,\n        start=start,\n        stop=stop,\n        nrows=nrows,\n        rows=rows,\n        query=request.vars.query,\n        )\n\n\n# ##########################################################\n# ## edit delete one record\n# ###########################################################\n\n\ndef update():\n    (db, table) = get_table(request)\n    keyed = hasattr(db[table],\'_primarykey\')\n    record = None\n    if keyed:\n        key = [f for f in request.vars if f in db[table]._primarykey]\n        if key:\n            record = db(db[table][key[0]] == request.vars[key[0]]).select().first()\n    else:\n        record = db(db[table].id == request.args(2)).select().first()\n\n    if not record:\n        qry = query_by_table_type(table, db)\n        session.flash = T(\'record does not exist\')\n        redirect(URL(\'select\', args=request.args[:1],\n                     vars=dict(query=qry)))\n    \n    if keyed:\n        for k in db[table]._primarykey: \n            db[table][k].writable=False\n    \n    form = SQLFORM(db[table], record, deletable=True, delete_label=T(\'Check to delete\'), \n                   ignore_rw=ignore_rw and not keyed,\n                   linkto=URL(\'select\',\n                   args=request.args[:1]), upload=URL(r=request,\n                   f=\'download\', args=request.args[:1]))\n\n    if form.accepts(request.vars, session):\n        session.flash = T(\'done!\')\n        qry = query_by_table_type(table, db)\n        redirect(URL(\'select\', args=request.args[:1],\n                 vars=dict(query=qry)))\n    return dict(form=form,table=db[table])\n\n\n# ##########################################################\n# ## get global variables\n# ###########################################################\n\n\ndef state():\n    return dict()\n\ndef ccache():\n    form = FORM(\n        P(TAG.BUTTON("Clear CACHE?", _type="submit", _name="yes", _value="yes")),\n        P(TAG.BUTTON("Clear RAM", _type="submit", _name="ram", _value="ram")),\n        P(TAG.BUTTON("Clear DISK", _type="submit", _name="disk", _value="disk")),\n    )\n    \n    if form.accepts(request.vars, session):\n        clear_ram = False\n        clear_disk = False\n        session.flash = ""\n        if request.vars.yes:\n            clear_ram = clear_disk = True\n        if request.vars.ram:\n            clear_ram = True\n        if request.vars.disk:\n            clear_disk = True\n            \n        if clear_ram:\n            cache.ram.clear()\n            session.flash += "Ram Cleared "\n        if clear_disk:\n            cache.disk.clear()\n            session.flash += "Disk Cleared"\n            \n        redirect(URL(r=request))\n    \n    try:\n        from guppy import hpy; hp=hpy()\n    except ImportError:\n        hp = False\n        \n    import shelve, os, copy, time, math\n    from gluon import portalocker\n    \n    ram = {\n        \'bytes\': 0,\n        \'objects\': 0,\n        \'hits\': 0,\n        \'misses\': 0,\n        \'ratio\': 0,\n        \'oldest\': time.time()\n    }\n    disk = copy.copy(ram)\n    total = copy.copy(ram)\n    \n    for key, value in cache.ram.storage.items():\n        if isinstance(value, dict):\n            ram[\'hits\'] = value[\'hit_total\'] - value[\'misses\']\n            ram[\'misses\'] = value[\'misses\']\n            try:\n                ram[\'ratio\'] = ram[\'hits\'] * 100 / value[\'hit_total\']\n            except (KeyError, ZeroDivisionError):\n                ram[\'ratio\'] = 0\n        else:\n            if hp:\n                ram[\'bytes\'] += hp.iso(value[1]).size\n                ram[\'objects\'] += hp.iso(value[1]).count\n                \n                if value[0] < ram[\'oldest\']:\n                    ram[\'oldest\'] = value[0]\n    \n    locker = open(os.path.join(request.folder,\n                                        \'cache/cache.lock\'), \'a\')\n    portalocker.lock(locker, portalocker.LOCK_EX)\n    disk_storage = shelve.open(\n        os.path.join(request.folder,\n                \'cache/cache.shelve\'))\n    \n    for key, value in disk_storage.items():\n        if isinstance(value, dict):\n            disk[\'hits\'] = value[\'hit_total\'] - value[\'misses\']\n            disk[\'misses\'] = value[\'misses\']\n            try:\n                disk[\'ratio\'] = disk[\'hits\'] * 100 / value[\'hit_total\']\n            except (KeyError, ZeroDivisionError):\n                disk[\'ratio\'] = 0\n        else:\n            if hp:\n                disk[\'bytes\'] += hp.iso(value[1]).size\n                disk[\'objects\'] += hp.iso(value[1]).count\n                if value[0] < disk[\'oldest\']:\n                    disk[\'oldest\'] = value[0]\n        \n    portalocker.unlock(locker)\n    locker.close()\n    disk_storage.close()        \n    \n    total[\'bytes\'] = ram[\'bytes\'] + disk[\'bytes\']\n    total[\'objects\'] = ram[\'objects\'] + disk[\'objects\']\n    total[\'hits\'] = ram[\'hits\'] + disk[\'hits\']\n    total[\'misses\'] = ram[\'misses\'] + disk[\'misses\']\n    try:\n        total[\'ratio\'] = total[\'hits\'] * 100 / (total[\'hits\'] + total[\'misses\'])\n    except (KeyError, ZeroDivisionError):\n        total[\'ratio\'] = 0\n    \n    if disk[\'oldest\'] < ram[\'oldest\']:\n        total[\'oldest\'] = disk[\'oldest\']\n    else:\n        total[\'oldest\'] = ram[\'oldest\']\n    \n    def GetInHMS(seconds):\n        hours = math.floor(seconds / 3600)\n        seconds -= hours * 3600\n        minutes = math.floor(seconds / 60)\n        seconds -= minutes * 60\n        seconds = math.floor(seconds)\n        \n        return (hours, minutes, seconds)\n\n    ram[\'oldest\'] = GetInHMS(time.time() - ram[\'oldest\'])\n    disk[\'oldest\'] = GetInHMS(time.time() - disk[\'oldest\'])\n    total[\'oldest\'] = GetInHMS(time.time() - total[\'oldest\'])\n    \n    return dict(form=form, total=total,\n                ram=ram, disk=disk)\n\n\nresponse._vars=response._caller(insert)\n'
p6
sS'snapshot'
p7
(dp8
sS'traceback'
p9
S'Traceback (most recent call last):\n  File "/home/j3nnn1/git/pyj3nnn1/web2py/gluon/restricted.py", line 188, in restricted\n    exec ccode in environment\n  File "/home/j3nnn1/git/pyj3nnn1/web2py/applications/blog/controllers/appadmin.py", line 410, in <module>\n  File "/home/j3nnn1/git/pyj3nnn1/web2py/gluon/globals.py", line 96, in <lambda>\n    self._caller = lambda f: f()\n  File "/home/j3nnn1/git/pyj3nnn1/web2py/applications/blog/controllers/appadmin.py", line 125, in insert\n    if form.accepts(request.vars, session):\n  File "/home/j3nnn1/git/pyj3nnn1/web2py/gluon/sqlhtml.py", line 1094, in accepts\n    self.vars.update(pk)\n  File "/home/j3nnn1/git/pyj3nnn1/web2py/gluon/sql.py", line 1535, in __getitem__\n    self.__allocate()\n  File "/home/j3nnn1/git/pyj3nnn1/web2py/gluon/sql.py", line 1515, in __allocate\n    self._record = self._table[int(self)]\n  File "/home/j3nnn1/git/pyj3nnn1/web2py/gluon/sql.py", line 2329, in __getitem__\n    return dict.__getitem__(self, str(key))\nKeyError: \'1\'\n'
p10
s.