(dp1
S'output'
p2
S''
sS'layer'
p3
S'/home/j3nnn1/git/pyj3nnn1/web2py/applications/blog/models/db.py'
p4
sS'code'
p5
S'# -*- coding: utf-8 -*- \n\n#########################################################################\n## This scaffolding model makes your app work on Google App Engine too\n#########################################################################\n\nif request.env.web2py_runtime_gae:            # if running on Google App Engine\n    db = DAL(\'gae\')                           # connect to Google BigTable\n    session.connect(request, response, db = db) # and store sessions and tickets there\n    ### or use the following lines to store sessions in Memcache\n    # from gluon.contrib.memdb import MEMDB\n    # from google.appengine.api.memcache import Client\n    # session.connect(request, response, db = MEMDB(Client()))\nelse:                                         # else use a normal relational database\n    db = DAL(\'sqlite://storage.sqlite\')       # if not, use SQLite or other DB\n## if no need for session\n# session.forget()\n\n#########################################################################\n## Here is sample code if you need for \n## - email capabilities\n## - authentication (registration, login, logout, ... )\n## - authorization (role based authorization)\n## - services (xml, csv, json, xmlrpc, jsonrpc, amf, rss)\n## - crud actions\n## (more options discussed in gluon/tools.py)\n#########################################################################\n\nfrom gluon.tools import *\nmail = Mail()                                  # mailer\nauth = Auth(globals(),db)                      # authentication/authorization\ncrud = Crud(globals(),db)                      # for CRUD helpers using auth\nservice = Service(globals())                   # for json, xml, jsonrpc, xmlrpc, amfrpc\nplugins = PluginManager()\n\nmail.settings.server = \'logging\' or \'smtp.gmail.com:587\'  # your SMTP server\nmail.settings.sender = \'you@gmail.com\'         # your email\nmail.settings.login = \'username:password\'      # your credentials or None\n\nauth.settings.hmac_key = \'sha512:f3d5ade2-9740-497b-92a8-a0d5169de496\'   # before define_tables()\nauth.define_tables()                           # creates all needed tables\nauth.settings.mailer = mail                    # for user email verification\nauth.settings.registration_requires_verification = False\nauth.settings.registration_requires_approval = False\nauth.messages.verify_email = \'Click on the link http://\'+request.env.http_host+URL(r=request,c=\'default\',f=\'user\',args=[\'verify_email\'])+\'/%(key)s to verify your email\'\nauth.settings.reset_password_requires_verification = True\nauth.messages.reset_password = \'Click on the link http://\'+request.env.http_host+URL(r=request,c=\'default\',f=\'user\',args=[\'reset_password\'])+\'/%(key)s to reset your password\'\n\n#########################################################################\n## If you need to use OpenID, Facebook, MySpace, Twitter, Linkedin, etc.\n## register with janrain.com, uncomment and customize following\n# from gluon.contrib.login_methods.rpx_account import RPXAccount\n# auth.settings.actions_disabled=[\'register\',\'change_password\',\'request_reset_password\']\n# auth.settings.login_form = RPXAccount(request, api_key=\'...\',domain=\'...\',\n#    url = "http://localhost:8000/%s/default/user/login" % request.application)\n## other login methods are in gluon/contrib/login_methods\n#########################################################################\n\ncrud.settings.auth = None                      # =auth to enforce authorization on crud\n\n#########################################################################\n## Define your tables below (or better in another model file) for example\n##\n## >>> db.define_table(\'mytable\',Field(\'myfield\',\'string\'))\n##\n## Fields can be \'string\',\'text\',\'password\',\'integer\',\'double\',\'boolean\'\n##       \'date\',\'time\',\'datetime\',\'blob\',\'upload\', \'reference TABLENAME\'\n## There is an implicit \'id integer autoincrement\' field\n## Consult manual for more options, validators, etc.\n##\n## More API examples for controllers:\n##\n## >>> db.mytable.insert(myfield=\'value\')\n## >>> rows=db(db.mytable.myfield==\'value\').select(db.mytable.ALL)\n## >>> for row in rows: print row.id, row.myfield\n#########################################################################\n      \ndb.define_table(\'usuarios\',\n        Field(\'usuario\', readable=True, writable=True, requires = IS_NOT_IN_DB()), \n        Field(\'password\', readable=True, writable=True),\n        Field(\'correo\', readable=False, writable=False, requires = IS_EMAIL()),\n        primarykey=[\'usuario\',\'correo\'])\n\n\ndb.define_table(\'articulos\',\n        Field(\'titulo\',\'string\',length=255, requires = IS_NOT_IN_DB()),\n        Field(\'articulo\',\'text\'),\n        Field(\'fecha\',\'datetime\'),\n        Field(\'id_usuario\',db.usuarios, readable=False, writable=False))\n        \n\ndb.define_table(\'comentarios\',\n        Field(\'id_articulo\', db.articulos, readable=False, writable=False),\n        Field(\'titulo\'),\n        Field(\'comentario\', requires = IS_NOT_EMPTY()),\n        Field(\'nombre\', requires = IS_NOT_EMPTY()),\n        Field(\'correo\', requires = IS_EMAIL()),\n        Field(\'url\', required = False),\n        Field(\'fecha\',\'datetime\'),\n        Field(\'visible\', \'boolean\'),format=\'%(nombre)s\')\n\n\ndb.define_table(\'etiquetas\',\n        Field(\'nombre\'), requires = IS_NOT_EMPTY())\n\n\ndb.define_table(\'etiquetas_articulos\', \n        Field(\'id_etiqueta\',db.etiquetas, readable=False, writable=False),      \n        Field(\'id_articulo\',db.articulos, readable=False, writable=False))\n'
p6
sS'snapshot'
p7
(dp8
S'exception'
p9
(dp10
S'__hash__'
p11
S"<method-wrapper '__hash__' of exceptions.TypeError object>"
p12
sS'__setattr__'
p13
S"<method-wrapper '__setattr__' of exceptions.TypeError object>"
p14
sS'__reduce_ex__'
p15
S'<built-in method __reduce_ex__ of exceptions.TypeError object>'
p16
sS'__getslice__'
p17
S"<method-wrapper '__getslice__' of exceptions.TypeError object>"
p18
sS'__getitem__'
p19
S"<method-wrapper '__getitem__' of exceptions.TypeError object>"
p20
sS'__setstate__'
p21
S'<built-in method __setstate__ of exceptions.TypeError object>'
p22
sS'__reduce__'
p23
S'<built-in method __reduce__ of exceptions.TypeError object>'
p24
sS'__str__'
p25
S"<method-wrapper '__str__' of exceptions.TypeError object>"
p26
sS'__format__'
p27
S'<built-in method __format__ of exceptions.TypeError object>'
p28
sS'__getattribute__'
p29
S"<method-wrapper '__getattribute__' of exceptions.TypeError object>"
p30
sS'__class__'
p31
S"<type 'exceptions.TypeError'>"
p32
sS'__unicode__'
p33
S'<built-in method __unicode__ of exceptions.TypeError object>'
p34
sS'__delattr__'
p35
S"<method-wrapper '__delattr__' of exceptions.TypeError object>"
p36
sS'__subclasshook__'
p37
S'<built-in method __subclasshook__ of type object>'
p38
sS'__repr__'
p39
S"<method-wrapper '__repr__' of exceptions.TypeError object>"
p40
sS'args'
p41
S"('__init__() takes at least 3 arguments (1 given)',)"
p42
sS'__dict__'
p43
S'{}'
p44
sS'__sizeof__'
p45
S'<built-in method __sizeof__ of exceptions.TypeError object>'
p46
sS'__doc__'
p47
S"'Inappropriate argument type.'"
p48
sS'__init__'
p49
S"<method-wrapper '__init__' of exceptions.TypeError object>"
p50
sS'__new__'
p51
S'<built-in method __new__ of type object>'
p52
ssS'evalue'
p53
S'__init__() takes at least 3 arguments (1 given)'
p54
sS'request'
p55
(dp56
S'function'
p57
S"'index'"
p58
sS'body'
p59
S'<cStringIO.StringO object>'
p60
sS'wsgi'
p61
S"<Storage {'start_response': <function <lambda> a...>, 'HTTP_ACCEPT_ENCODING': 'gzip,deflate,sdch'}}>"
p62
sS'extension'
p63
S"'html'"
p64
sS'vars'
p65
S'<Storage {}>'
p66
sS'cid'
p67
S'None'
p68
sS'url'
p69
S'<gluon.html.XML object>'
p70
sg41
S'[]'
p71
sS'controller'
p72
S"'appadmin'"
p73
sS'cookies'
p74
S"<SimpleCookie: session_id_admin='127-0-0-1-30657...'127-0-0-1-f66a923b-35d4-4221-bb69-65adf56edca3'>"
p75
sS'application'
p76
S"'blog'"
p77
sS'ajax'
p78
S'False'
p79
sS'client'
p80
S"'127.0.0.1'"
p81
sS'env'
p82
S"<Storage {'http_user_agent': 'Mozilla/5.0 (X11; ...ce': False, 'path_info': '/blog/appadmin/index'}>"
p83
sS'raw_args'
p84
S'None'
p85
sS'get_vars'
p86
S'<Storage {}>'
p87
sS'folder'
p88
S"'/home/j3nnn1/git/pyj3nnn1/web2py/applications/blog/'"
p89
sS'now'
p90
S'datetime.datetime(2010, 10, 24, 1, 18, 5, 522499)'
p91
sS'post_vars'
p92
S'<Storage {}>'
p93
ssS'frames'
p94
(lp95
(dp96
S'file'
p97
S'/home/j3nnn1/git/pyj3nnn1/web2py/gluon/restricted.py'
p98
sS'dump'
p99
(dp100
S'environment'
p101
S"{'A': <class 'gluon.html.A'>, 'Auth': <class 'gluon.tools.Auth'>, 'B': <class 'gluon.html.B'>, 'BEAUTIFY': <class 'gluon.html.BEAUTIFY'>, 'BODY': <class 'gluon.html.BODY'>, 'BR': <class 'gluon.html.BR'>, 'CENTER': <class 'gluon.html.CENTER'>, 'CLEANUP': <class 'gluon.validators.CLEANUP'>, 'CODE': <class 'gluon.html.CODE'>, 'CRYPT': <class 'gluon.validators.CRYPT'>, ...}"
p102
sS'ccode'
p103
S'<code object <module> at 0xa65df50, file "/home/...1/web2py/applications/blog/models/db.py", line 7>'
p104
ssS'lnum'
p105
I188
sS'lines'
p106
(dp107
I192
S'        # XXX Show exception in Wing IDE if running in debugger'
p108
sI183
S'        if type(code) == types.CodeType:'
p109
sI184
S'            ccode = code'
p110
sI185
S'        else:'
p111
sI186
S'            ccode = compile2(code,layer)'
p112
sI187
S''
sI188
S'        exec ccode in environment'
p113
sI189
S'    except HTTP:'
p114
sI190
S'        raise'
p115
sI191
S'    except Exception:'
p116
ssS'call'
p117
S'(code="# -*- coding: utf-8 -*- \\n\\n######################...\',db.articulos, readable=False, writable=False))\\n", environment={\'A\': <class \'gluon.html.A\'>, \'Auth\': <class \'gluon.tools.Auth\'>, \'B\': <class \'gluon.html.B\'>, \'BEAUTIFY\': <class \'gluon.html.BEAUTIFY\'>, \'BODY\': <class \'gluon.html.BODY\'>, \'BR\': <class \'gluon.html.BR\'>, \'CENTER\': <class \'gluon.html.CENTER\'>, \'CLEANUP\': <class \'gluon.validators.CLEANUP\'>, \'CODE\': <class \'gluon.html.CODE\'>, \'CRYPT\': <class \'gluon.validators.CRYPT\'>, ...}, layer=\'/home/j3nnn1/git/pyj3nnn1/web2py/applications/blog/models/db.py\')'
p118
sS'func'
p119
S'restricted'
p120
sa(dp121
g97
S'/home/j3nnn1/git/pyj3nnn1/web2py/applications/blog/models/db.py'
p122
sg99
(dp123
S'IS_NOT_IN_DB'
p124
S"<class 'gluon.validators.IS_NOT_IN_DB'>"
p125
sS'builtinTrue'
p126
S'True'
p127
sS'readable'
p128
S'undefined'
p129
sS'writable'
p130
g129
sS'Field'
p131
S"<class 'gluon.sql.Field'>"
p132
sS'requires'
p133
g129
ssg105
I79
sg106
(dp134
I74
S"## >>> rows=db(db.mytable.myfield=='value').select(db.mytable.ALL)"
p135
sI75
S'## >>> for row in rows: print row.id, row.myfield'
p136
sI76
S'#########################################################################'
p137
sI77
S''
sI78
S"db.define_table('usuarios',"
p138
sI79
S"        Field('usuario', readable=True, writable=True, requires = IS_NOT_IN_DB()),"
p139
sI80
S"        Field('password', readable=True, writable=True),"
p140
sI81
S"        Field('correo', readable=False, writable=False, requires = IS_EMAIL()),"
p141
sI82
S"        primarykey=['usuario','correo'])"
p142
sI83
S''
ssg117
S'()'
p143
sg119
S'<module>'
p144
sasS'pyver'
p145
S'Python 2.6.6: /usr/bin/python'
p146
sS'session'
p147
(dp148
S'auth'
p149
S'None'
p150
ssS'etype'
p151
S"<type 'exceptions.TypeError'>"
p152
sS'date'
p153
S'Sun Oct 24 01:18:05 2010'
p154
sS'response'
p155
(dp156
S'status'
p157
S'200'
p158
sg59
S'<cStringIO.StringO object>'
p159
sg74
S"<SimpleCookie: session_id_blog='127-0-0-1-c9e49980-0272-480c-b712-192f1f1b4547'>"
p160
sS'_vars'
p161
S'None'
p162
sS'session_file'
p163
S"<open file '/home/j3nnn1/git/pyj3nnn1/web2py/app...9e49980-0272-480c-b712-192f1f1b4547', mode 'rb+'>"
p164
sS'flash'
p165
S"''"
p166
sS'_custom_rollback'
p167
S'None'
p168
sS'session_id'
p169
S"'127-0-0-1-c9e49980-0272-480c-b712-192f1f1b4547'"
p170
sS'headers'
p171
S"<Storage {'Expires': 'dom, 24 oct 2010 05:48:05 ...he, must-revalidate, post-check=0, pre-check=0'}>"
p172
sS'meta'
p173
S'<Storage {}>'
p174
sS'session_filename'
p175
S"'/home/j3nnn1/git/pyj3nnn1/web2py/applications/bl...ns/127-0-0-1-c9e49980-0272-480c-b712-192f1f1b4547'"
p176
sS'postprocessing'
p177
S'[]'
p178
sS'menu'
p179
S'[]'
p180
sS'_view_environment'
p181
S"{'A': <class 'gluon.html.A'>, 'B': <class 'gluon.html.B'>, 'BEAUTIFY': <class 'gluon.html.BEAUTIFY'>, 'BODY': <class 'gluon.html.BODY'>, 'BR': <class 'gluon.html.BR'>, 'CENTER': <class 'gluon.html.CENTER'>, 'CLEANUP': <class 'gluon.validators.CLEANUP'>, 'CODE': <class 'gluon.html.CODE'>, 'CRYPT': <class 'gluon.validators.CRYPT'>, 'DAL': <function DAL>, ...}"
p182
sS'session_id_name'
p183
S"'session_id_blog'"
p184
sS'_custom_commit'
p185
S'None'
p186
sS'_caller'
p187
S'<function <lambda>>'
p188
sS'files'
p189
S'[]'
p190
sS'view'
p191
S"'appadmin/index.html'"
p192
ssS'locals'
p193
(dp194
S'Service'
p195
S'<class gluon.tools.Service>'
p196
sS'OBJECT'
p197
S"<class 'gluon.html.OBJECT'>"
p198
sS'SQLDB'
p199
S"<class 'gluon.sql.SQLDB'>"
p200
sg147
S"<Storage {'auth': None}>"
p201
sS'LINK'
p202
S"<class 'gluon.html.LINK'>"
p203
sS'BR'
p204
S"<class 'gluon.html.BR'>"
p205
sS'local_import'
p206
S'<function <lambda>>'
p207
sS'OPTGROUP'
p208
S"<class 'gluon.html.OPTGROUP'>"
p209
sS'PRE'
p210
S"<class 'gluon.html.PRE'>"
p211
sS'IS_INT_IN_RANGE'
p212
S"<class 'gluon.validators.IS_INT_IN_RANGE'>"
p213
sS'IS_LOWER'
p214
S"<class 'gluon.validators.IS_LOWER'>"
p215
sS'IS_STRONG'
p216
S"<class 'gluon.validators.IS_STRONG'>"
p217
sS'Recaptcha'
p218
S"<class 'gluon.tools.Recaptcha'>"
p219
sS'cache'
p220
S'<gluon.cache.Cache object>'
p221
sS'IS_IN_DB'
p222
S"<class 'gluon.validators.IS_IN_DB'>"
p223
sS'TAG'
p224
S'<gluon.html.__TAG__ object>'
p225
sS'SQLField'
p226
S"<class 'gluon.sql.Field'>"
p227
sS'mail'
p228
S'<gluon.tools.Mail object>'
p229
sS'BODY'
p230
S"<class 'gluon.html.BODY'>"
p231
sS'IS_DATE_IN_RANGE'
p232
S"<class 'gluon.validators.IS_DATE_IN_RANGE'>"
p233
sS'IFRAME'
p234
S"<class 'gluon.html.IFRAME'>"
p235
sS'URL'
p236
S'<function _URL>'
p237
sS'db'
p238
S"<SQLDB {'_connection': <pysqlite2.dbapi2.Connect...0xa6e11ac>}>, '_migrate': True, '_pool_size': 0}>"
p239
sS'auth'
p240
S'<gluon.tools.Auth object>'
p241
sS'P'
S"<class 'gluon.html.P'>"
p242
sS'TFOOT'
p243
S"<class 'gluon.html.TFOOT'>"
p244
sS'XHTML'
p245
S"<class 'gluon.html.XHTML'>"
p246
sS'ON'
p247
g127
sS'OL'
p248
S"<class 'gluon.html.OL'>"
p249
sS'TEXTAREA'
p250
S"<class 'gluon.html.TEXTAREA'>"
p251
sS'MENU'
p252
S"<class 'gluon.html.MENU'>"
p253
sS'EM'
p254
S"<class 'gluon.html.EM'>"
p255
sS'CODE'
p256
S"<class 'gluon.html.CODE'>"
p257
sS'HTTP'
p258
S"<class 'gluon.http.HTTP'>"
p259
sS'HR'
p260
S"<class 'gluon.html.HR'>"
p261
sS'IS_DATETIME'
p262
S"<class 'gluon.validators.IS_DATETIME'>"
p263
sS'STYLE'
p264
S"<class 'gluon.html.STYLE'>"
p265
sS'LABEL'
p266
S"<class 'gluon.html.LABEL'>"
p267
sS'CLEANUP'
p268
S"<class 'gluon.validators.CLEANUP'>"
p269
sS'plugins'
p270
S'<gluon.tools.PluginManager object>'
p271
sS'SELECT'
p272
S"<class 'gluon.html.SELECT'>"
p273
sS'CENTER'
p274
S"<class 'gluon.html.CENTER'>"
p275
sS'prettydate'
p276
S'<function prettydate>'
p277
sS'Crud'
p278
S"<class 'gluon.tools.Crud'>"
p279
sS'Auth'
p280
S"<class 'gluon.tools.Auth'>"
p281
sS'__builtins__'
p282
S"{'ArithmeticError': <type 'exceptions.ArithmeticError'>, 'AssertionError': <type 'exceptions.AssertionError'>, 'AttributeError': <type 'exceptions.AttributeError'>, 'BaseException': <type 'exceptions.BaseException'>, 'BufferError': <type 'exceptions.BufferError'>, 'BytesWarning': <type 'exceptions.BytesWarning'>, 'DeprecationWarning': <type 'exceptions.DeprecationWarning'>, 'EOFError': <type 'exceptions.EOFError'>, 'Ellipsis': Ellipsis, 'EnvironmentError': <type 'exceptions.EnvironmentError'>, ...}"
p283
sS'IS_LIST_OF'
p284
S"<class 'gluon.validators.IS_LIST_OF'>"
p285
sS'SQLFORM'
p286
S"<class 'gluon.sqlhtml.SQLFORM'>"
p287
sS'LOAD'
p288
S'<gluon.compileapp.LoadFactory instance>'
p289
sS'redirect'
p290
S'<function redirect>'
p291
sS'FIELDSET'
p292
S"<class 'gluon.html.FIELDSET'>"
p293
sS'IS_EQUAL_TO'
p294
S"<class 'gluon.validators.IS_EQUAL_TO'>"
p295
sS'embed64'
p296
S'<function embed64>'
p297
sS'INPUT'
p298
S"<class 'gluon.html.INPUT'>"
p299
sS'EMBED'
p300
S"<class 'gluon.html.EMBED'>"
p301
sS'FORM'
p302
S"<class 'gluon.html.FORM'>"
p303
sS'H2'
p304
S"<class 'gluon.html.H2'>"
p305
sS'H3'
p306
S"<class 'gluon.html.H3'>"
p307
sS'H1'
p308
S"<class 'gluon.html.H1'>"
p309
sS'H6'
p310
S"<class 'gluon.html.H6'>"
p311
sS'H4'
p312
S"<class 'gluon.html.H4'>"
p313
sS'H5'
p314
S"<class 'gluon.html.H5'>"
p315
sS'UL'
p316
S"<class 'gluon.html.UL'>"
p317
sS'IS_UPPER'
p318
S"<class 'gluon.validators.IS_UPPER'>"
p319
sS'xmlescape'
p320
S'<function xmlescape>'
p321
sS'IS_TIME'
p322
S"<class 'gluon.validators.IS_TIME'>"
p323
sS'OPTION'
p324
S"<class 'gluon.html.OPTION'>"
p325
sS'TITLE'
p326
S"<class 'gluon.html.TITLE'>"
p327
sS'CRYPT'
p328
S"<class 'gluon.validators.CRYPT'>"
p329
sS'IS_EMPTY_OR'
p330
S"<class 'gluon.validators.IS_EMPTY_OR'>"
p331
sS'MARKMIN'
p332
S"<class 'gluon.html.MARKMIN'>"
p333
sS'service'
p334
S'<gluon.tools.Service instance>'
p335
sS'SCRIPT'
p336
S"<class 'gluon.html.SCRIPT'>"
p337
sS'geocode'
p338
S'<function geocode>'
p339
sS'TABLE'
p340
S"<class 'gluon.html.TABLE'>"
p341
sS'IS_IPV4'
p342
S"<class 'gluon.validators.IS_IPV4'>"
p343
sS'IS_LENGTH'
p344
S"<class 'gluon.validators.IS_LENGTH'>"
p345
sS'XML'
p346
S"<class 'gluon.html.XML'>"
p347
sS'B'
S"<class 'gluon.html.B'>"
p348
sS'IMG'
p349
S"<class 'gluon.html.IMG'>"
p350
sS'SQLTABLE'
p351
S"<class 'gluon.sqlhtml.SQLTABLE'>"
p352
sS'IS_MATCH'
p353
S"<class 'gluon.validators.IS_MATCH'>"
p354
sS'IS_ALPHANUMERIC'
p355
S"<class 'gluon.validators.IS_ALPHANUMERIC'>"
p356
sS'SPAN'
p357
S"<class 'gluon.html.SPAN'>"
p358
sS'IS_SLUG'
p359
S"<class 'gluon.validators.IS_SLUG'>"
p360
sS'META'
p361
S"<class 'gluon.html.META'>"
p362
sS'fetch'
p363
S'<function fetch>'
p364
sS'IS_DATE'
p365
S"<class 'gluon.validators.IS_DATE'>"
p366
sS'IS_EMAIL'
p367
S"<class 'gluon.validators.IS_EMAIL'>"
p368
sS'IS_NOT_EMPTY'
p369
S"<class 'gluon.validators.IS_NOT_EMPTY'>"
p370
sS'IS_FLOAT_IN_RANGE'
p371
S"<class 'gluon.validators.IS_FLOAT_IN_RANGE'>"
p372
sS'BEAUTIFY'
p373
S"<class 'gluon.html.BEAUTIFY'>"
p374
sS'TBODY'
p375
S"<class 'gluon.html.TBODY'>"
p376
sS'Field'
p377
S"<class 'gluon.sql.Field'>"
p378
sS'Mail'
p379
S"<class 'gluon.tools.Mail'>"
p380
sS'DIV'
p381
S"<class 'gluon.html.DIV'>"
p382
sS'LEGEND'
p383
S"<class 'gluon.html.LEGEND'>"
p384
sS'DAL'
p385
S'<function DAL>'
p386
sS'TT'
p387
S"<class 'gluon.html.TT'>"
p388
sS'TR'
p389
S"<class 'gluon.html.TR'>"
p390
sS'LI'
p391
S"<class 'gluon.html.LI'>"
p392
sS'TH'
p393
S"<class 'gluon.html.TH'>"
p394
sS'TD'
p395
S"<class 'gluon.html.TD'>"
p396
sS'PluginManager'
p397
S"<class 'gluon.tools.PluginManager'>"
p398
sS'IS_URL'
p399
S"<class 'gluon.validators.IS_URL'>"
p400
sS'A'
S"<class 'gluon.html.A'>"
p401
sS'HEAD'
p402
S"<class 'gluon.html.HEAD'>"
p403
sS'IS_DATETIME_IN_RANGE'
p404
S"<class 'gluon.validators.IS_DATETIME_IN_RANGE'>"
p405
sS'HTML'
p406
S"<class 'gluon.html.HTML'>"
p407
sS'IS_IMAGE'
p408
S"<class 'gluon.validators.IS_IMAGE'>"
p409
sS'I'
S"<class 'gluon.html.I'>"
p410
sS'crud'
p411
S'<gluon.tools.Crud object>'
p412
sS'IS_NOT_IN_DB'
p413
S"<class 'gluon.validators.IS_NOT_IN_DB'>"
p414
sg155
S"<Storage {'status': 200, 'body': <cStringIO.Stri...t': None, 'files': [], '_custom_rollback': None}>"
p415
sS'THEAD'
p416
S"<class 'gluon.html.THEAD'>"
p417
sS'IS_NULL_OR'
p418
S"<class 'gluon.validators.IS_EMPTY_OR'>"
p419
sg55
S"<Storage {'function': 'index', 'body': <cStringI...4, 1, 18, 5, 522499), 'post_vars': <Storage {}>}>"
p420
sS'IS_EXPR'
p421
S"<class 'gluon.validators.IS_EXPR'>"
p422
sS'IS_IN_SET'
p423
S"<class 'gluon.validators.IS_IN_SET'>"
p424
sS'IS_UPLOAD_FILENAME'
p425
S"<class 'gluon.validators.IS_UPLOAD_FILENAME'>"
p426
sS'IS_DECIMAL_IN_RANGE'
p427
S"<class 'gluon.validators.IS_DECIMAL_IN_RANGE'>"
p428
sS'T'
S'<gluon.languages.translator object>'
p429
sssS'traceback'
p430
S'Traceback (most recent call last):\n  File "/home/j3nnn1/git/pyj3nnn1/web2py/gluon/restricted.py", line 188, in restricted\n    exec ccode in environment\n  File "/home/j3nnn1/git/pyj3nnn1/web2py/applications/blog/models/db.py", line 79, in <module>\n    Field(\'usuario\', readable=True, writable=True, requires = IS_NOT_IN_DB()),\nTypeError: __init__() takes at least 3 arguments (1 given)\n'
p431
s.