(dp1
S'output'
p2
S''
sS'layer'
p3
S'/home/j3nnn1/git/pyj3nnn1/web2py/applications/blog/views/default/index.html'
p4
sS'code'
p5
S'response.write(\'<!DOCTYPE html PUBLIC "-//W3C//DTD XHTML 1.0 Transitional//EN" "http://www.w3.org/TR/xhtml1/DTD/xhtml1-transitional.dtd">\\n<html xmlns="http://www.w3.org/1999/xhtml" xml:lang="\', escape=False)\nresponse.write(T.accepted_language or \'en\')\nresponse.write(\'">\\n  <head>\\n    <title>\', escape=False)\nresponse.write(response.title or request.application)\nresponse.write(\'</title>\\n    <link rel="shortcut icon"\\n      href="\', escape=False)\nresponse.write(URL(request.application,\'static\',\'favicon.ico\'))\nresponse.write(\'" \\n      type="image/vnd.microsoft.icon">\\n    <meta http-equiv="Content-Type" content="text/html; charset=UTF-8" />\\n    \', escape=False)\n#------  require CSS and JS files for this page (read info in base.css) ------\nresponse.write(\'\\n    \', escape=False)\nresponse.files.append(URL(request.application,\'static\',\'base.css\'))\nresponse.write(\'\\n    \', escape=False)\nresponse.files.append(URL(request.application,\'static\',\'superfish.js\'))\nresponse.write(\'\\n    \', escape=False)\n#response.files.append(URL(request.application,\'static\',\'maquiclub.css\'))\nresponse.write(\'\\n    \', escape=False)\nresponse.files.append(URL(request.application,\'static\',\'Envision.css\'))\nresponse.write(\'\\n    \', escape=False)\n#------ include web2py specific js code (jquery, calendar, form stuff) ------\nresponse.write(\'\\n    \', escape=False)\nresponse.files.insert(0,URL(r=request,c=\'static\',f=\'jquery.js\'))\nresponse.files.insert(1,URL(r=request,c=\'static\',f=\'calendar.css\'))\nresponse.files.insert(2,URL(r=request,c=\'static\',f=\'calendar.js\'))\nfor _item in response.meta or []:\n    response.write(\'\\n     <meta name="\', escape=False)\n    response.write(_item)\n    response.write(\'" content="\', escape=False)\n    response.write(response.meta[_item])\n    response.write(\'" />\', escape=False)\n    pass\nfor _k,_file in enumerate(response.files or []):\n    if _file in response.files[:_k]:\n        continue\n    elif _file.lower().endswith(\'.css\'):\n        response.write(\'\\n     <link href="\', escape=False)\n        response.write(_file)\n        response.write(\'" rel="stylesheet" type="text/css" />\', escape=False)\n    elif _file.lower().endswith(\'.js\'):\n        response.write(\'\\n     <script src="\', escape=False)\n        response.write(_file)\n        response.write(\'" type="text/javascript"></script>\', escape=False)\n        pass\n    pass\nresponse.write(\'\\n<script type="text/javascript"><!--\\nfunction popup(url) {\\n  newwindow=window.open(url,\\\'name\\\',\\\'height=400,width=600\\\');\\n  if (window.focus) newwindow.focus();\\n  return false;\\n}\\nfunction collapse(id) { jQuery(\\\'#\\\'+id).slideToggle(); }\\nfunction fade(id,value) { if(value>0) jQuery(\\\'#\\\'+id).hide().fadeIn(\\\'slow\\\'); else jQuery(\\\'#\\\'+id).show().fadeOut(\\\'slow\\\'); }\\nfunction ajax(u,s,t) {\\n    query = \\\'\\\';\\n    if (typeof s == "string") {\\n        d = jQuery(s).serialize();\\n        if(d){ query = d; }\\n    } else {\\n        pcs = [];\\n        for(i=0; i<s.length; i++) {\\n            q = jQuery("[name="+s[i]+"]").serialize();\\n            if(q){pcs.push(q);}\\n        }\\n        if (pcs.length>0){query = pcs.join("&");}\\n    }\\n    jQuery.ajax({type: "POST", url: u, data: query, success: function(msg) { if(t) { if(t==\\\':eval\\\') eval(msg); else jQuery("#" + t).html(msg); } } }); \\n}\\nString.prototype.reverse = function () { return this.split(\\\'\\\').reverse().join(\\\'\\\');};\\nfunction web2py_ajax_init() {\\n  jQuery(\\\'.hidden\\\').hide();\\n  jQuery(\\\'.error\\\').hide().slideDown(\\\'slow\\\');\\n  jQuery(\\\'.flash\\\').click(function() { jQuery(this).fadeOut(\\\'slow\\\'); return false; });\\n  jQuery(\\\'input[type=submit]\\\').click(function(){var t=jQuery(this);t.hide();t.after(\\\'<input class="submit_disabled" disabled="disabled" type="submit" name="\\\'+t.attr("name")+\\\'_dummy" value="\\\'+t.val()+\\\'">\\\')});\\n  jQuery(\\\'input.integer\\\').keyup(function(){this.value=this.value.reverse().replace(/[^0-9\\\\-]|\\\\-(?=.)/g,\\\'\\\').reverse();});\\n  jQuery(\\\'input.double,input.decimal\\\').keyup(function(){this.value=this.value.reverse().replace(/[^0-9\\\\-\\\\.]|[\\\\-](?=.)|[\\\\.](?=[0-9]*[\\\\.])/g,\\\'\\\').reverse();});\\n  jQuery("input[type=\\\'checkbox\\\'].delete").each(function(){jQuery(this).click(function() { if(this.checked) if(!confirm("\', escape=False)\nresponse.write(T(\'Sure you want to delete this object?\'))\nresponse.write(\'")) this.checked=false; });});\\n  try {jQuery("input.date").focus( function() {Calendar.setup({\\n     inputField:this.id, ifFormat:"\', escape=False)\nresponse.write(T(\'%Y-%m-%d\'))\nresponse.write(\'", showsTime:false\\n  }); }); } catch(e) {};\\n  try { jQuery("input.datetime").focus( function() {Calendar.setup({\\n     inputField:this.id, ifFormat:"\', escape=False)\nresponse.write(T(\'%Y-%m-%d %H:%M:%S\'))\nresponse.write(\'", showsTime: true,timeFormat: "24"\\n  }); }); } catch(e) {};\\n  try { jQuery("input.time").clockpick({\\n      starthour:0, endhour:23, showminutes:true, military:true\\n  }); } catch(e) {};\\n};\\njQuery(document).ready(function(){\\n   jQuery(\\\'.flash\\\').hide();\\n   if(jQuery(\\\'.flash\\\').html()!=\\\'\\\') jQuery(\\\'.flash\\\').slideDown(\\\'slow\\\');\\n   web2py_ajax_init();});\\n\\nfunction web2py_trap_form(action,target) {\\n   jQuery(\\\'#\\\'+target+\\\' form\\\').each(function(i){\\n      var form=jQuery(this);\\n      if(!form.hasClass(\\\'no_trap\\\'))\\n        form.submit(function(obj){\\n         jQuery(\\\'.flash\\\').hide().html(\\\'\\\');\\n         web2py_ajax_page(\\\'post\\\',action,form.serialize(),target);\\n         return false;\\n      });\\n   });\\n}\\n\\nfunction web2py_ajax_page(method,action,data,target) {\\n  jQuery.ajax({\\\'type\\\':method,\\\'url\\\':action,\\\'data\\\':data,\\n    \\\'beforeSend\\\':function(xhr) {\\n      xhr.setRequestHeader(\\\'web2py-component-location\\\',document.location);\\n      xhr.setRequestHeader(\\\'web2py-component-element\\\',target);},\\n    \\\'complete\\\':function(xhr,text){\\n      var html=xhr.responseText;\\n      var content=xhr.getResponseHeader(\\\'web2py-component-content\\\'); \\n      var command=xhr.getResponseHeader(\\\'web2py-component-command\\\');\\n      var flash=xhr.getResponseHeader(\\\'web2py-component-flash\\\');\\n      var t = jQuery(\\\'#\\\'+target);\\n      if(content==\\\'prepend\\\') t.prepend(html); \\n      else if(content==\\\'append\\\') t.append(html);\\n      else if(content!=\\\'hide\\\') t.html(html);  \\n      web2py_trap_form(action,target);\\n      web2py_ajax_init();      \\n      if(command) eval(command);\\n      if(flash) jQuery(\\\'.flash\\\').html(flash).slideDown();\\n      }\\n    });\\n}\\nfunction web2py_component(action,target) {\\n    jQuery(document).ready(function(){ web2py_ajax_page(\\\'get\\\',action,null,target); });\\n}\\n//--></script>\\n\', escape=False)\nresponse.write(\'\\n  </head>\\n  <body>\\n    <div class="flash">\', escape=False)\nresponse.write(response.flash or \'\')\nresponse.write(\'</div>\\n    <div class="ez-mr wrapper" id="layout">\\n      \', escape=False)\n#------ Layout 3 from http://www.ez-css.org/layouts ------\nresponse.write(\'\\n      <div class="ez-wr">\\n    <div class="ez-box" id="header">\\n      \', escape=False)\ntry:\n    response.write(auth.navbar(action=URL(request.application,\'default\',\'user\')))\nexcept:pass\nresponse.write(\'\\n          <h1>\\n            <a href="">\', escape=False)\nresponse.write(response.title or \'response.title\')\nresponse.write(\'</a>\\n          </h1>            \\n          <h2>\\n        \', escape=False)\nresponse.write(response.subtitle or \'response.subtitle\')\nresponse.write(\'\\n      </h2>\\n    </div>\\n    <div class="ez-box" id="statusbar">\\n      \', escape=False)\n#------ superfish menu ------\nresponse.write(\'\\n      \', escape=False)\nresponse.write(MENU(response.menu,_class=\'sf-menu\'))\nresponse.write(\'\\n          <script>\\n        jQuery(document).ready(function(){\\n              jQuery(\\\'ul.sf-menu\\\').superfish({delay:400});});\\n      </script>\\n    </div>\\n    <div class="ez-wr">\\n      <div class="ez-fl ez-negmx">\\n            <div class="ez-box" id="left_sidebar">\', escape=False)\n#------ unused space\nresponse.write(\'</div>\\n      </div>\\n      <div class="ez-fl ez-negmr">\\n            <div class="ez-box" id="content">\', escape=False)\nresponse.write(\'\\n<h1>\', escape=False)\nresponse.write(T("it\'s me J3nnn1"))\nresponse.write(\'</h1>\\n<hr />\\n\', escape=False)\n#=post\nresponse.write(\'\\n\', escape=False)\nfor post in post:\n    response.write("\\n\\t<div>\\n\\t\\t<div class=\'titulo\'>\\n\\t\\t\\t<h3> ", escape=False)\n    response.write(T(A(post.articulos.titulo)))\n    response.write(" </h3>\\n\\t\\t</div>\\n\\t\\t<div class=\'subtitulo\'>\\n\\t\\t\\t", escape=False)\n    response.write(T("Escrito por: "))\n    response.write(\' \', escape=False)\n    response.write(post.usuarios.usuario)\n    response.write(\' \', escape=False)\n    response.write(T("el: "))\n    response.write(\' \', escape=False)\n    response.write(post.articulos.fecha)\n    response.write("\\n\\t\\t</div>\\n\\t</div>\\n\\t<div class=\'contenido\'> ", escape=False)\n    response.write(post.articulos.articulo)\n    response.write(\'</div>\\n\', escape=False)\n    pass\nresponse.write(\'\\n\', escape=False)\nresponse.write(\'</div>\\n      </div>\\n      <div class="ez-last ez-oh">\\n            <div class="ez-box" id="right_sidebar">\', escape=False)\n#------ unused space\nresponse.write(\'</div>\\n      </div>\\n    </div>\\n      </div>\\n    </div>\\n  </body>\\n</html>\\n\', escape=False)'
p6
sS'snapshot'
p7
(dp8
S'exception'
p9
(dp10
S'__hash__'
p11
S"<method-wrapper '__hash__' of exceptions.AttributeError object>"
p12
sS'__setattr__'
p13
S"<method-wrapper '__setattr__' of exceptions.AttributeError object>"
p14
sS'__reduce_ex__'
p15
S'<built-in method __reduce_ex__ of exceptions.AttributeError object>'
p16
sS'__getslice__'
p17
S"<method-wrapper '__getslice__' of exceptions.AttributeError object>"
p18
sS'__getitem__'
p19
S"<method-wrapper '__getitem__' of exceptions.AttributeError object>"
p20
sS'__setstate__'
p21
S'<built-in method __setstate__ of exceptions.AttributeError object>'
p22
sS'__reduce__'
p23
S'<built-in method __reduce__ of exceptions.AttributeError object>'
p24
sS'__str__'
p25
S"<method-wrapper '__str__' of exceptions.AttributeError object>"
p26
sS'__format__'
p27
S'<built-in method __format__ of exceptions.AttributeError object>'
p28
sS'__getattribute__'
p29
S"<method-wrapper '__getattribute__' of exceptions.AttributeError object>"
p30
sS'__class__'
p31
S"<type 'exceptions.AttributeError'>"
p32
sS'__unicode__'
p33
S'<built-in method __unicode__ of exceptions.AttributeError object>'
p34
sS'__delattr__'
p35
S"<method-wrapper '__delattr__' of exceptions.AttributeError object>"
p36
sS'__subclasshook__'
p37
S'<built-in method __subclasshook__ of type object>'
p38
sS'__repr__'
p39
S"<method-wrapper '__repr__' of exceptions.AttributeError object>"
p40
sS'args'
p41
S'("\'A\' object has no attribute \'rsplit\'",)'
p42
sS'__dict__'
p43
S'{}'
p44
sS'__sizeof__'
p45
S'<built-in method __sizeof__ of exceptions.AttributeError object>'
p46
sS'__doc__'
p47
S"'Attribute not found.'"
p48
sS'__init__'
p49
S"<method-wrapper '__init__' of exceptions.AttributeError object>"
p50
sS'__new__'
p51
S'<built-in method __new__ of type object>'
p52
ssS'evalue'
p53
S"'A' object has no attribute 'rsplit'"
p54
sS'request'
p55
(dp56
S'function'
p57
S"'index'"
p58
sS'body'
p59
S'<cStringIO.StringO object>'
p60
sS'wsgi'
p61
S"<Storage {'start_response': <function <lambda> a...>, 'HTTP_ACCEPT_ENCODING': 'gzip,deflate,sdch'}}>"
p62
sS'extension'
p63
S"'html'"
p64
sS'vars'
p65
S'<Storage {}>'
p66
sS'cid'
p67
S'None'
p68
sS'url'
p69
S'<gluon.html.XML object>'
p70
sg41
S'[]'
p71
sS'controller'
p72
S"'default'"
p73
sS'cookies'
p74
S"<SimpleCookie: session_id_admin='127-0-0-1-30657...'127-0-0-1-f66a923b-35d4-4221-bb69-65adf56edca3'>"
p75
sS'application'
p76
S"'blog'"
p77
sS'ajax'
p78
S'False'
p79
sS'client'
p80
S"'127.0.0.1'"
p81
sS'env'
p82
S"<Storage {'http_user_agent': 'Mozilla/5.0 (X11; ...ch', 'query_string': '', 'wsgi_run_once': False}>"
p83
sS'raw_args'
p84
S'None'
p85
sS'get_vars'
p86
S'<Storage {}>'
p87
sS'folder'
p88
S"'/home/j3nnn1/git/pyj3nnn1/web2py/applications/blog/'"
p89
sS'now'
p90
S'datetime.datetime(2010, 10, 24, 16, 39, 32, 417499)'
p91
sS'post_vars'
p92
S'<Storage {}>'
p93
ssS'frames'
p94
(lp95
(dp96
S'file'
p97
S'/home/j3nnn1/git/pyj3nnn1/web2py/gluon/restricted.py'
p98
sS'dump'
p99
(dp100
S'environment'
p101
S"{'A': <class 'gluon.html.A'>, 'Auth': <class 'gluon.tools.Auth'>, 'B': <class 'gluon.html.B'>, 'BEAUTIFY': <class 'gluon.html.BEAUTIFY'>, 'BODY': <class 'gluon.html.BODY'>, 'BR': <class 'gluon.html.BR'>, 'CENTER': <class 'gluon.html.CENTER'>, 'CLEANUP': <class 'gluon.validators.CLEANUP'>, 'CODE': <class 'gluon.html.CODE'>, 'CRYPT': <class 'gluon.validators.CRYPT'>, ...}"
p102
sS'ccode'
p103
S'<code object <module> at 0x9964ad0, file "/home/...lications/blog/views/default/index.html", line 1>'
p104
ssS'lnum'
p105
I188
sS'lines'
p106
(dp107
I192
S'        # XXX Show exception in Wing IDE if running in debugger'
p108
sI183
S'        if type(code) == types.CodeType:'
p109
sI184
S'            ccode = code'
p110
sI185
S'        else:'
p111
sI186
S'            ccode = compile2(code,layer)'
p112
sI187
S''
sI188
S'        exec ccode in environment'
p113
sI189
S'    except HTTP:'
p114
sI190
S'        raise'
p115
sI191
S'    except Exception:'
p116
ssS'call'
p117
S'(code=\'response.write(\\\'<!DOCTYPE html PUBLIC "-//W3C//D...n    </div>\\\\n  </body>\\\\n</html>\\\\n\\\', escape=False)\', environment={\'A\': <class \'gluon.html.A\'>, \'Auth\': <class \'gluon.tools.Auth\'>, \'B\': <class \'gluon.html.B\'>, \'BEAUTIFY\': <class \'gluon.html.BEAUTIFY\'>, \'BODY\': <class \'gluon.html.BODY\'>, \'BR\': <class \'gluon.html.BR\'>, \'CENTER\': <class \'gluon.html.CENTER\'>, \'CLEANUP\': <class \'gluon.validators.CLEANUP\'>, \'CODE\': <class \'gluon.html.CODE\'>, \'CRYPT\': <class \'gluon.validators.CRYPT\'>, ...}, layer=\'/home/j3nnn1/git/pyj3nnn1/web2py/applications/blog/views/default/index.html\')'
p118
sS'func'
p119
S'restricted'
p120
sa(dp121
g97
S'/home/j3nnn1/git/pyj3nnn1/web2py/applications/blog/views/default/index.html'
p122
sg99
(dp123
sg105
I76
sg106
(dp124
I67
S'#------ unused space'
p125
sI68
S'response.write(\'</div>\\n      </div>\\n      <div class="ez-fl ez-negmr">\\n            <div class="ez-box" id="content">\', escape=False)'
p126
sI69
S"response.write('\\n<h1>', escape=False)"
p127
sI70
S'response.write(T("it\'s me J3nnn1"))'
p128
sI71
S"response.write('</h1>\\n<hr />\\n', escape=False)"
p129
sI72
S'#=post'
p130
sI73
S"response.write('\\n', escape=False)"
p131
sI74
S'for post in post:'
p132
sI75
S'    response.write("\\n\\t<div>\\n\\t\\t<div class=\'titulo\'>\\n\\t\\t\\t<h3> ", escape=False)'
p133
sI76
S'    response.write(T(A(post.articulos.titulo)))'
p134
sI77
S'    response.write(" </h3>\\n\\t\\t</div>\\n\\t\\t<div class=\'subtitulo\'>\\n\\t\\t\\t", escape=False)'
p135
sI78
S'    response.write(T("Escrito por: "))'
p136
sI79
S"    response.write(' ', escape=False)"
p137
sI80
S'    response.write(post.usuarios.usuario)'
p138
sI81
S"    response.write(' ', escape=False)"
p139
sI82
S'    response.write(T("el: "))'
p140
sI83
S"    response.write(' ', escape=False)"
p141
sI84
S'    response.write(post.articulos.fecha)'
p142
sI85
S'    response.write("\\n\\t\\t</div>\\n\\t</div>\\n\\t<div class=\'contenido\'> ", escape=False)'
p143
sI86
S'    response.write(post.articulos.articulo)'
p144
ssg117
S'()'
p145
sg119
S'<module>'
p146
sa(dp147
g97
S'/home/j3nnn1/git/pyj3nnn1/web2py/gluon/globals.py'
p148
sg99
(dp149
S'self.body.write'
p150
S'<built-in method write of cStringIO.StringO object>'
p151
sS'self.body'
p152
S'<cStringIO.StringO object>'
p153
sS'self'
p154
S"<Storage {'status': 200, 'body': <cStringIO.Stri...object at 0x9957bac>], '_custom_rollback': None}>"
p155
sS'global xmlescape'
p156
S'<function xmlescape>'
p157
sS'data'
p158
S"<lazyT '<a>Mundo accesible</a>'>"
p159
ssg105
I105
sg106
(dp160
I100
S''
sI101
S'    def write(self, data, escape=True):'
p161
sI102
S'        if not escape:'
p162
sI103
S'            self.body.write(str(data))'
p163
sI104
S'        else:'
p164
sI105
S'            self.body.write(xmlescape(data))'
p165
sI106
S''
sI107
S'    def render(self, *a, **b):'
p166
sI108
S'        if len(a) > 2:'
p167
sI109
S"            raise SyntaxError, 'Response.render can be called with two arguments, at most'"
p168
ssg117
S"(self=<Storage {'status': 200, 'body': <cStringIO.Stri...object at 0x9957bac>], '_custom_rollback': None}>, data=<lazyT '<a>Mundo accesible</a>'>, escape=True)"
p169
sg119
S'write'
p170
sa(dp171
g97
S'/home/j3nnn1/git/pyj3nnn1/web2py/gluon/html.py'
p172
sg99
(dp173
S'builtinstr'
p174
S"<type 'str'>"
p175
sS'data'
p176
S"<lazyT '<a>Mundo accesible</a>'>"
p177
ssg105
I116
sg106
(dp178
I111
S'    except TypeError:'
p179
sI112
S'        pass'
p180
sI113
S''
sI114
S'    # otherwise, make it a string'
p181
sI115
S'    if not isinstance(data, (str, unicode)):'
p182
sI116
S'        data = str(data)'
p183
sI117
S'    elif isinstance(data, unicode):'
p184
sI118
S"        data = data.encode('utf8', 'xmlcharrefreplace')"
p185
sI119
S''
sI120
S'    # ... and do the escaping'
p186
ssg117
S"(data=<lazyT '<a>Mundo accesible</a>'>, quote=True)"
p187
sg119
S'xmlescape'
p188
sa(dp189
g97
S'/home/j3nnn1/git/pyj3nnn1/web2py/gluon/languages.py'
p190
sg99
(dp191
S'self.T.translate'
p192
S'<bound method translator.translate of <gluon.languages.translator object>>'
p193
sS'self.s'
p194
g44
sS'self'
p195
S"<lazyT '<a>Mundo accesible</a>'>"
p196
sS'self.T'
p197
S'<gluon.languages.translator object>'
p198
sS'self.m'
p199
S'<gluon.html.A object>'
p200
ssg105
I131
sg106
(dp201
I128
S'        return "<lazyT %s>" % (repr(str(self.m)), )'
p202
sI129
S''
sI130
S'    def __str__(self):'
p203
sI131
S'        return self.T.translate(self.m, self.s)'
p204
sI132
S''
sI133
S'    def __eq__(self, other):'
p205
sI134
S'        return self.T.translate(self.m, self.s) == other'
p206
sI135
S''
sI126
S''
sI127
S'    def __repr__(self):'
p207
ssg117
S"(self=<lazyT '<a>Mundo accesible</a>'>)"
p208
sg119
g25
sa(dp209
g97
S'/home/j3nnn1/git/pyj3nnn1/web2py/gluon/languages.py'
p210
sg99
(dp211
S'tokens'
p212
S'undefined'
p213
sS'message'
p214
S'<gluon.html.A object>'
p215
sS'message.rsplit'
p216
g213
ssg105
I259
sg106
(dp217
I256
S"        T(' hello world ## token') -> 'hello world'"
p218
sI257
S"        T('hello ## world ## token') -> 'hello ## world'"
p219
sI258
S'        """'
p220
sI259
S"        tokens = message.rsplit('##', 1)"
p221
sI260
S'        if len(tokens) == 2:'
p222
sI261
S'            tokens[0] = tokens[0].strip()'
p223
sI262
S"            message = tokens[0] + '##' + tokens[1].strip()"
p224
sI263
S'        mt = self.t.get(message, None)'
p225
sI254
S''
sI255
S"        T(' hello world ') -> ' hello world '"
p226
ssg117
S'(self=<gluon.languages.translator object>, message=<gluon.html.A object>, symbols={})'
p227
sg119
S'translate'
p228
sasS'pyver'
p229
S'Python 2.6.6: /usr/bin/python'
p230
sS'session'
p231
(dp232
S'_formkey[articulos_create]'
p233
S"'0d82bc72-f674-45c1-8ba5-25f7fc51e6d9'"
p234
sS'auth'
p235
S'None'
p236
sS'last_orderby'
p237
S'None'
p238
sS'last_query'
p239
S"'db.articulos.id>0'"
p240
sS'_formkey[comentarios_create]'
p241
S"'76d6c20a-dac7-40ed-a905-102d82b363d6'"
p242
sS'_formkey[usuarios_create]'
p243
S"'1d1883ea-e00c-4bf8-8a71-efed38a78c06'"
p244
sS'_formkey[default]'
p245
S"'a1de23bf-1680-4a4f-b9de-957af6cc5cdf'"
p246
sS'_formkey[auth_user_create]'
p247
S"'8b18cc00-afac-4196-b603-cbe190e85c44'"
p248
ssS'etype'
p249
S"<type 'exceptions.AttributeError'>"
p250
sS'date'
p251
S'Sun Oct 24 16:39:35 2010'
p252
sS'response'
p253
(dp254
S'status'
p255
S'200'
p256
sg59
S'<cStringIO.StringO object>'
p257
sg74
S"<SimpleCookie: session_id_blog='127-0-0-1-c9e49980-0272-480c-b712-192f1f1b4547'>"
p258
sS'_vars'
p259
S"{'post': <gluon.sql.Rows object>}"
p260
sS'title'
p261
S"'blog'"
p262
sS'session_file'
p263
S"<open file '/home/j3nnn1/git/pyj3nnn1/web2py/app...9e49980-0272-480c-b712-192f1f1b4547', mode 'rb+'>"
p264
sS'flash'
p265
S"''"
p266
sS'_custom_rollback'
p267
S'None'
p268
sS'session_id'
p269
S"'127-0-0-1-c9e49980-0272-480c-b712-192f1f1b4547'"
p270
sS'headers'
p271
S"<Storage {'Expires': 'dom, 24 oct 2010 21:09:32 ...he, must-revalidate, post-check=0, pre-check=0'}>"
p272
sS'meta'
p273
S"<Storage {'keywords': 'bla bla bla', 'description': 'describe your app', 'author': 'you'}>"
p274
sS'session_filename'
p275
S"'/home/j3nnn1/git/pyj3nnn1/web2py/applications/bl...ns/127-0-0-1-c9e49980-0272-480c-b712-192f1f1b4547'"
p276
sS'postprocessing'
p277
S'[]'
p278
sS'menu'
p279
S"[(<lazyT 'Index'>, False, <gluon.html.XML object>, []), (<lazyT 'Edit'>, False, <gluon.html.XML object>, [(<lazyT 'Controller'>, False, <gluon.html.XML object>), (<lazyT 'View'>, False, <gluon.html.XML object>), (<lazyT 'Layout'>, False, <gluon.html.XML object>), (<lazyT 'Stylesheet'>, False, <gluon.html.XML object>), (<lazyT 'DB Model'>, False, <gluon.html.XML object>), (<lazyT 'Menu Model'>, False, <gluon.html.XML object>), (<lazyT 'Database'>, False, <gluon.html.XML object>)])]"
p280
sS'_view_environment'
p281
S"{'A': <class 'gluon.html.A'>, 'Auth': <class 'gluon.tools.Auth'>, 'B': <class 'gluon.html.B'>, 'BEAUTIFY': <class 'gluon.html.BEAUTIFY'>, 'BODY': <class 'gluon.html.BODY'>, 'BR': <class 'gluon.html.BR'>, 'CENTER': <class 'gluon.html.CENTER'>, 'CLEANUP': <class 'gluon.validators.CLEANUP'>, 'CODE': <class 'gluon.html.CODE'>, 'CRYPT': <class 'gluon.validators.CRYPT'>, ...}"
p282
sS'subtitle'
p283
S"<lazyT 'customize me!'>"
p284
sS'session_id_name'
p285
S"'session_id_blog'"
p286
sS'_custom_commit'
p287
S'None'
p288
sS'_caller'
p289
S'<function <lambda>>'
p290
sS'files'
p291
S'[<gluon.html.XML object>, <gluon.html.XML object>, <gluon.html.XML object>, <gluon.html.XML object>, <gluon.html.XML object>, <gluon.html.XML object>]'
p292
sS'view'
p293
S"'default/index.html'"
p294
ssS'locals'
p295
(dp296
S'symbols'
p297
g44
sS'message'
p298
S'<gluon.html.A object>'
p299
sS'self'
p300
S'<gluon.languages.translator object>'
p301
sssS'traceback'
p302
S'Traceback (most recent call last):\n  File "/home/j3nnn1/git/pyj3nnn1/web2py/gluon/restricted.py", line 188, in restricted\n    exec ccode in environment\n  File "/home/j3nnn1/git/pyj3nnn1/web2py/applications/blog/views/default/index.html", line 76, in <module>\n  File "/home/j3nnn1/git/pyj3nnn1/web2py/gluon/globals.py", line 105, in write\n    self.body.write(xmlescape(data))\n  File "/home/j3nnn1/git/pyj3nnn1/web2py/gluon/html.py", line 116, in xmlescape\n    data = str(data)\n  File "/home/j3nnn1/git/pyj3nnn1/web2py/gluon/languages.py", line 131, in __str__\n    return self.T.translate(self.m, self.s)\n  File "/home/j3nnn1/git/pyj3nnn1/web2py/gluon/languages.py", line 259, in translate\n    tokens = message.rsplit(\'##\', 1)\nAttributeError: \'A\' object has no attribute \'rsplit\'\n'
p303
s.