(dp1
S'output'
p2
S''
sS'layer'
p3
S'/home/j3nnn1/git/pyj3nnn1/web2py/applications/blog/models/db.py'
p4
sS'code'
p5
S'# -*- coding: utf-8 -*- \n\n#########################################################################\n## This scaffolding model makes your app work on Google App Engine too\n#########################################################################\n\nif request.env.web2py_runtime_gae:            # if running on Google App Engine\n    db = DAL(\'gae\')                           # connect to Google BigTable\n    session.connect(request, response, db = db) # and store sessions and tickets there\n    ### or use the following lines to store sessions in Memcache\n    # from gluon.contrib.memdb import MEMDB\n    # from google.appengine.api.memcache import Client\n    # session.connect(request, response, db = MEMDB(Client()))\nelse:                                         # else use a normal relational database\n    db = DAL(\'sqlite://storage.sqlite\')       # if not, use SQLite or other DB\n## if no need for session\n# session.forget()\n\n#########################################################################\n## Here is sample code if you need for \n## - email capabilities\n## - authentication (registration, login, logout, ... )\n## - authorization (role based authorization)\n## - services (xml, csv, json, xmlrpc, jsonrpc, amf, rss)\n## - crud actions\n## (more options discussed in gluon/tools.py)\n#########################################################################\n\nfrom gluon.tools import *\nmail = Mail()                                  # mailer\nauth = Auth(globals(),db)                      # authentication/authorization\ncrud = Crud(globals(),db)                      # for CRUD helpers using auth\nservice = Service(globals())                   # for json, xml, jsonrpc, xmlrpc, amfrpc\nplugins = PluginManager()\n\nmail.settings.server = \'logging\' or \'smtp.gmail.com:587\'  # your SMTP server\nmail.settings.sender = \'you@gmail.com\'         # your email\nmail.settings.login = \'username:password\'      # your credentials or None\n\nauth.settings.hmac_key = \'sha512:f3d5ade2-9740-497b-92a8-a0d5169de496\'   # before define_tables()\nauth.define_tables()                           # creates all needed tables\nauth.settings.mailer = mail                    # for user email verification\nauth.settings.registration_requires_verification = False\nauth.settings.registration_requires_approval = False\nauth.messages.verify_email = \'Click on the link http://\'+request.env.http_host+URL(r=request,c=\'default\',f=\'user\',args=[\'verify_email\'])+\'/%(key)s to verify your email\'\nauth.settings.reset_password_requires_verification = True\nauth.messages.reset_password = \'Click on the link http://\'+request.env.http_host+URL(r=request,c=\'default\',f=\'user\',args=[\'reset_password\'])+\'/%(key)s to reset your password\'\n\n#########################################################################\n## If you need to use OpenID, Facebook, MySpace, Twitter, Linkedin, etc.\n## register with janrain.com, uncomment and customize following\n# from gluon.contrib.login_methods.rpx_account import RPXAccount\n# auth.settings.actions_disabled=[\'register\',\'change_password\',\'request_reset_password\']\n# auth.settings.login_form = RPXAccount(request, api_key=\'...\',domain=\'...\',\n#    url = "http://localhost:8000/%s/default/user/login" % request.application)\n## other login methods are in gluon/contrib/login_methods\n#########################################################################\n\ncrud.settings.auth = None                      # =auth to enforce authorization on crud\n\n#########################################################################\n## Define your tables below (or better in another model file) for example\n##\n## >>> db.define_table(\'mytable\',Field(\'myfield\',\'string\'))\n##\n## Fields can be \'string\',\'text\',\'password\',\'integer\',\'double\',\'boolean\'\n##       \'date\',\'time\',\'datetime\',\'blob\',\'upload\', \'reference TABLENAME\'\n## There is an implicit \'id integer autoincrement\' field\n## Consult manual for more options, validators, etc.\n##\n## More API examples for controllers:\n##\n## >>> db.mytable.insert(myfield=\'value\')\n## >>> rows=db(db.mytable.myfield==\'value\').select(db.mytable.ALL)\n## >>> for row in rows: print row.id, row.myfield\n#########################################################################\n   \ndb.define_table(\'usuarios\',\n        Field(\'usuario\'),\n        Field(\'password\'),\n        Field(\'correo\'),\n        uniquekey=[\'usuario\',\'correo\'])\n        \ndb.usuarios.usuario.requires = IS_NOT_IN_DB(db, db.usuarios.usuario)\ndb.usuarios.correo.requires = IS_EMAIL()\ndb.usuarios.correo.requires = IS_NOT_IN_DB(db, db.usuarios.usuario, db.usuarios.correo)\n\ndb.define_table(\'articulos\',\n        Field(\'titulo\',\'string\',length=255),\n        Field(\'articulo\',\'text\'),\n        Field(\'fecha\',\'datetime\'),\n        Field(\'id_usuario\',db.usuarios))\ndb.articulos.titulo.requires = IS_NOT_IN_DB(db, db.articulos.titulo)\n\ndb.define_table(\'comentarios\',\n        Field(\'id_articulo\', db.articulos),\n        Field(\'titulo\'),\n        Field(\'comentario\'),\n        Field(\'nombre\', format=\'%(name)s\'),\n        Field(\'correo\'),\n        Field(\'url\'),\n        Field(\'fecha\',\'datetime\'),\n        Field(\'visible\', \'boolean\'))\n\ndb.comentarios.url.required = False\ndb.comentarios.comentario.requires = IS_NOT_EMPTY()\ndb.comentarios.nombre.requires = IS_NOT_EMPTY()\ndb.comentarios.correo.requires = IS_EMAIL()\n\ndb.define_table(\'etiquetas\',\n        Field(\'nombre\'), format=\'%(name)s\')\ndb.etiquetas.nombre.requires = IS_NOT_EMPTY()\n\ndb.define_table(\'etiquetas_articulos\', \n        Field(\'id_etiqueta\',db.etiquetas),      \n        Field(\'id_articulo\',db.articulos))\n'
p6
sS'snapshot'
p7
(dp8
S'exception'
p9
(dp10
S'__getslice__'
p11
S"<method-wrapper '__getslice__' of exceptions.SyntaxError object>"
p12
sS'text'
p13
S'None'
p14
sS'__str__'
p15
S"<method-wrapper '__str__' of exceptions.SyntaxError object>"
p16
sS'__reduce__'
p17
S'<built-in method __reduce__ of exceptions.SyntaxError object>'
p18
sS'__dict__'
p19
S'{}'
p20
sS'__sizeof__'
p21
S'<built-in method __sizeof__ of exceptions.SyntaxError object>'
p22
sS'__init__'
p23
S"<method-wrapper '__init__' of exceptions.SyntaxError object>"
p24
sS'__setattr__'
p25
S"<method-wrapper '__setattr__' of exceptions.SyntaxError object>"
p26
sS'__reduce_ex__'
p27
S'<built-in method __reduce_ex__ of exceptions.SyntaxError object>'
p28
sS'__new__'
p29
S'<built-in method __new__ of type object>'
p30
sS'__format__'
p31
S'<built-in method __format__ of exceptions.SyntaxError object>'
p32
sS'__class__'
p33
S"<type 'exceptions.SyntaxError'>"
p34
sS'filename'
p35
S'None'
p36
sS'lineno'
p37
S'None'
p38
sS'msg'
p39
S'\'invalid table "usuarios" attribute: uniquekey\''
p40
sS'__doc__'
p41
S"'Invalid syntax.'"
p42
sS'__getitem__'
p43
S"<method-wrapper '__getitem__' of exceptions.SyntaxError object>"
p44
sS'__setstate__'
p45
S'<built-in method __setstate__ of exceptions.SyntaxError object>'
p46
sS'__getattribute__'
p47
S"<method-wrapper '__getattribute__' of exceptions.SyntaxError object>"
p48
sS'print_file_and_line'
p49
S'None'
p50
sS'args'
p51
S'(\'invalid table "usuarios" attribute: uniquekey\',)'
p52
sS'__subclasshook__'
p53
S'<built-in method __subclasshook__ of type object>'
p54
sS'offset'
p55
S'None'
p56
sS'__unicode__'
p57
S'<built-in method __unicode__ of exceptions.SyntaxError object>'
p58
sS'__delattr__'
p59
S"<method-wrapper '__delattr__' of exceptions.SyntaxError object>"
p60
sS'__repr__'
p61
S"<method-wrapper '__repr__' of exceptions.SyntaxError object>"
p62
sS'__hash__'
p63
S"<method-wrapper '__hash__' of exceptions.SyntaxError object>"
p64
ssS'evalue'
p65
S'invalid table "usuarios" attribute: uniquekey'
p66
sS'request'
p67
(dp68
S'function'
p69
S"'index'"
p70
sS'body'
p71
S'<cStringIO.StringO object>'
p72
sS'wsgi'
p73
S"<Storage {'start_response': <function <lambda> a...>, 'HTTP_ACCEPT_ENCODING': 'gzip,deflate,sdch'}}>"
p74
sS'extension'
p75
S"'html'"
p76
sS'vars'
p77
S'<Storage {}>'
p78
sS'cid'
p79
S'None'
p80
sS'url'
p81
S'<gluon.html.XML object>'
p82
sg51
S'[]'
p83
sS'controller'
p84
S"'appadmin'"
p85
sS'cookies'
p86
S"<SimpleCookie: session_id_admin='127-0-0-1-30657...'127-0-0-1-f66a923b-35d4-4221-bb69-65adf56edca3'>"
p87
sS'application'
p88
S"'blog'"
p89
sS'ajax'
p90
S'False'
p91
sS'client'
p92
S"'127.0.0.1'"
p93
sS'env'
p94
S"<Storage {'http_user_agent': 'Mozilla/5.0 (X11; ...ce': False, 'path_info': '/blog/appadmin/index'}>"
p95
sS'raw_args'
p96
S'None'
p97
sS'get_vars'
p98
S'<Storage {}>'
p99
sS'folder'
p100
S"'/home/j3nnn1/git/pyj3nnn1/web2py/applications/blog/'"
p101
sS'now'
p102
S'datetime.datetime(2010, 10, 24, 0, 43, 37, 626647)'
p103
sS'post_vars'
p104
S'<Storage {}>'
p105
ssS'frames'
p106
(lp107
(dp108
S'file'
p109
S'/home/j3nnn1/git/pyj3nnn1/web2py/gluon/restricted.py'
p110
sS'dump'
p111
(dp112
S'environment'
p113
S"{'A': <class 'gluon.html.A'>, 'Auth': <class 'gluon.tools.Auth'>, 'B': <class 'gluon.html.B'>, 'BEAUTIFY': <class 'gluon.html.BEAUTIFY'>, 'BODY': <class 'gluon.html.BODY'>, 'BR': <class 'gluon.html.BR'>, 'CENTER': <class 'gluon.html.CENTER'>, 'CLEANUP': <class 'gluon.validators.CLEANUP'>, 'CODE': <class 'gluon.html.CODE'>, 'CRYPT': <class 'gluon.validators.CRYPT'>, ...}"
p114
sS'ccode'
p115
S'<code object <module> at 0xa1a8f98, file "/home/...1/web2py/applications/blog/models/db.py", line 7>'
p116
ssS'lnum'
p117
I188
sS'lines'
p118
(dp119
I192
S'        # XXX Show exception in Wing IDE if running in debugger'
p120
sI183
S'        if type(code) == types.CodeType:'
p121
sI184
S'            ccode = code'
p122
sI185
S'        else:'
p123
sI186
S'            ccode = compile2(code,layer)'
p124
sI187
S''
sI188
S'        exec ccode in environment'
p125
sI189
S'    except HTTP:'
p126
sI190
S'        raise'
p127
sI191
S'    except Exception:'
p128
ssS'call'
p129
S'(code="# -*- coding: utf-8 -*- \\n\\n######################...     \\n        Field(\'id_articulo\',db.articulos))\\n", environment={\'A\': <class \'gluon.html.A\'>, \'Auth\': <class \'gluon.tools.Auth\'>, \'B\': <class \'gluon.html.B\'>, \'BEAUTIFY\': <class \'gluon.html.BEAUTIFY\'>, \'BODY\': <class \'gluon.html.BODY\'>, \'BR\': <class \'gluon.html.BR\'>, \'CENTER\': <class \'gluon.html.CENTER\'>, \'CLEANUP\': <class \'gluon.validators.CLEANUP\'>, \'CODE\': <class \'gluon.html.CODE\'>, \'CRYPT\': <class \'gluon.validators.CRYPT\'>, ...}, layer=\'/home/j3nnn1/git/pyj3nnn1/web2py/applications/blog/models/db.py\')'
p130
sS'func'
p131
S'restricted'
p132
sa(dp133
g109
S'/home/j3nnn1/git/pyj3nnn1/web2py/applications/blog/models/db.py'
p134
sg111
(dp135
S'uniquekey'
p136
S'undefined'
p137
ssg117
I82
sg118
(dp138
I77
S''
sI78
S"db.define_table('usuarios',"
p139
sI79
S"        Field('usuario'),"
p140
sI80
S"        Field('password'),"
p141
sI81
S"        Field('correo'),"
p142
sI82
S"        uniquekey=['usuario','correo'])"
p143
sI83
S''
sI84
S'db.usuarios.usuario.requires = IS_NOT_IN_DB(db, db.usuarios.usuario)'
p144
sI85
S'db.usuarios.correo.requires = IS_EMAIL()'
p145
sI86
S'db.usuarios.correo.requires = IS_NOT_IN_DB(db, db.usuarios.usuario, db.usuarios.correo)'
p146
ssg129
S'()'
p147
sg131
S'<module>'
p148
sa(dp149
g109
S'/home/j3nnn1/git/pyj3nnn1/web2py/gluon/sql.py'
p150
sg111
(dp151
S'tablename'
p152
S"'usuarios'"
p153
sS'builtinSyntaxError'
p154
S"<type 'exceptions.SyntaxError'>"
p155
sS'key'
p156
S"'uniquekey'"
p157
ssg117
I1310
sg118
(dp158
I1312
S"        fake_migrate = args.get('fake_migrate', self._fake_migrate)"
p159
sI1313
S"        format = args.get('format', None)"
p160
sI1314
S"        trigger_name = args.get('trigger_name', None)"
p161
sI1305
S"                    'primarykey',"
p162
sI1306
S"                    'fake_migrate',"
p163
sI1307
S"                    'format',"
p164
sI1308
S"                    'trigger_name',"
p165
sI1309
S"                    'sequence_name']:"
p166
sI1310
S'                raise SyntaxError, \'invalid table "%s" attribute: %s\' % (tablename, key)'
p167
sI1311
S"        migrate = args.get('migrate', self._migrate)"
p168
ssg129
S"(self=<SQLDB {'_connection': <pysqlite2.dbapi2.Connect...0xa322c8c>}>, '_migrate': True, '_pool_size': 0}>, tablename='usuarios', *fields=(<gluon.sql.Field object>, <gluon.sql.Field object>, <gluon.sql.Field object>), **args={'uniquekey': ['usuario', 'correo']})"
p169
sg131
S'define_table'
p170
sasS'pyver'
p171
S'Python 2.6.6: /usr/bin/python'
p172
sS'session'
p173
(dp174
S'auth'
p175
S'None'
p176
ssS'etype'
p177
S"<type 'exceptions.SyntaxError'>"
p178
sS'date'
p179
S'Sun Oct 24 00:43:37 2010'
p180
sS'response'
p181
(dp182
S'status'
p183
S'200'
p184
sg71
S'<cStringIO.StringO object>'
p185
sg86
S"<SimpleCookie: session_id_blog='127-0-0-1-c9e49980-0272-480c-b712-192f1f1b4547'>"
p186
sS'_vars'
p187
S'None'
p188
sS'session_file'
p189
S"<open file '/home/j3nnn1/git/pyj3nnn1/web2py/app...9e49980-0272-480c-b712-192f1f1b4547', mode 'rb+'>"
p190
sS'flash'
p191
S"''"
p192
sS'_custom_rollback'
p193
S'None'
p194
sS'session_id'
p195
S"'127-0-0-1-c9e49980-0272-480c-b712-192f1f1b4547'"
p196
sS'headers'
p197
S"<Storage {'Expires': 'dom, 24 oct 2010 05:13:37 ...he, must-revalidate, post-check=0, pre-check=0'}>"
p198
sS'meta'
p199
S'<Storage {}>'
p200
sS'session_filename'
p201
S"'/home/j3nnn1/git/pyj3nnn1/web2py/applications/bl...ns/127-0-0-1-c9e49980-0272-480c-b712-192f1f1b4547'"
p202
sS'postprocessing'
p203
S'[]'
p204
sS'menu'
p205
S'[]'
p206
sS'_view_environment'
p207
S"{'A': <class 'gluon.html.A'>, 'B': <class 'gluon.html.B'>, 'BEAUTIFY': <class 'gluon.html.BEAUTIFY'>, 'BODY': <class 'gluon.html.BODY'>, 'BR': <class 'gluon.html.BR'>, 'CENTER': <class 'gluon.html.CENTER'>, 'CLEANUP': <class 'gluon.validators.CLEANUP'>, 'CODE': <class 'gluon.html.CODE'>, 'CRYPT': <class 'gluon.validators.CRYPT'>, 'DAL': <function DAL>, ...}"
p208
sS'session_id_name'
p209
S"'session_id_blog'"
p210
sS'_custom_commit'
p211
S'None'
p212
sS'_caller'
p213
S'<function <lambda>>'
p214
sS'files'
p215
S'[]'
p216
sS'view'
p217
S"'appadmin/index.html'"
p218
ssS'locals'
p219
(dp220
S'fields'
p221
S'(<gluon.sql.Field object>, <gluon.sql.Field object>, <gluon.sql.Field object>)'
p222
sS'self'
p223
S"<SQLDB {'_connection': <pysqlite2.dbapi2.Connect...0xa322c8c>}>, '_migrate': True, '_pool_size': 0}>"
p224
sg51
S"{'uniquekey': ['usuario', 'correo']}"
p225
sS'tablename'
p226
S"'usuarios'"
p227
sS'key'
p228
S"'uniquekey'"
p229
sssS'traceback'
p230
S'Traceback (most recent call last):\n  File "/home/j3nnn1/git/pyj3nnn1/web2py/gluon/restricted.py", line 188, in restricted\n    exec ccode in environment\n  File "/home/j3nnn1/git/pyj3nnn1/web2py/applications/blog/models/db.py", line 82, in <module>\n    uniquekey=[\'usuario\',\'correo\'])\n  File "/home/j3nnn1/git/pyj3nnn1/web2py/gluon/sql.py", line 1310, in define_table\n    raise SyntaxError, \'invalid table "%s" attribute: %s\' % (tablename, key)\nSyntaxError: invalid table "usuarios" attribute: uniquekey\n'
p231
s.