(dp1
S'output'
p2
S''
sS'layer'
p3
S'/home/j3nnn1/git/pyj3nnn1/web2py/applications/blog/views/default/viewpost.html'
p4
sS'code'
p5
S'response.write(\'<!DOCTYPE html PUBLIC "-//W3C//DTD XHTML 1.0 Strict//EN" "http://www.w3.org/TR/xhtml1/DTD/xhtml1-strict.dtd">\\n<!--\\nDesign by Free CSS Templates\\nhttp://www.freecsstemplates.org\\nReleased for free under a Creative Commons Attribution 2.5 License\\n\\nName       : chasmogamous\\nDescription: A two-column, fixed-width template suitable for business sites and blogs.\\nVersion    : 1.0\\nReleased   : 20080116\\n\\n-->\\n<html xmlns="http://www.w3.org/1999/xhtml">\\n <head>\\n  <title>\\n   \', escape=False)\nresponse.write(response.title or request.application)\nresponse.write(\'\\n  </title>\\n  \', escape=False)\nresponse.files.append(URL(request.application,\'static\',\'plugin_layouts/layouts/Chasmogamous/style.css\'))\nresponse.write(\'\\n\', escape=False)\nresponse.files.append(URL(\'static\',\'superfish.js\'))\nresponse.write(\'\\n  \', escape=False)\nresponse.files.insert(0,URL(r=request,c=\'static\',f=\'jquery.js\'))\nresponse.files.insert(1,URL(r=request,c=\'static\',f=\'calendar.css\'))\nresponse.files.insert(2,URL(r=request,c=\'static\',f=\'calendar.js\'))\nfor _item in response.meta or []:\n    response.write(\'\\n     <meta name="\', escape=False)\n    response.write(_item)\n    response.write(\'" content="\', escape=False)\n    response.write(response.meta[_item])\n    response.write(\'" />\', escape=False)\n    pass\nfor _k,_file in enumerate(response.files or []):\n    if _file in response.files[:_k]:\n        continue\n    elif _file.lower().endswith(\'.css\'):\n        response.write(\'\\n     <link href="\', escape=False)\n        response.write(_file)\n        response.write(\'" rel="stylesheet" type="text/css" />\', escape=False)\n    elif _file.lower().endswith(\'.js\'):\n        response.write(\'\\n     <script src="\', escape=False)\n        response.write(_file)\n        response.write(\'" type="text/javascript"></script>\', escape=False)\n        pass\n    pass\nresponse.write(\'\\n<script type="text/javascript"><!--\\nfunction popup(url) {\\n  newwindow=window.open(url,\\\'name\\\',\\\'height=400,width=600\\\');\\n  if (window.focus) newwindow.focus();\\n  return false;\\n}\\nfunction collapse(id) { jQuery(\\\'#\\\'+id).slideToggle(); }\\nfunction fade(id,value) { if(value>0) jQuery(\\\'#\\\'+id).hide().fadeIn(\\\'slow\\\'); else jQuery(\\\'#\\\'+id).show().fadeOut(\\\'slow\\\'); }\\nfunction ajax(u,s,t) {\\n    query = \\\'\\\';\\n    if (typeof s == "string") {\\n        d = jQuery(s).serialize();\\n        if(d){ query = d; }\\n    } else {\\n        pcs = [];\\n        for(i=0; i<s.length; i++) {\\n            q = jQuery("[name="+s[i]+"]").serialize();\\n            if(q){pcs.push(q);}\\n        }\\n        if (pcs.length>0){query = pcs.join("&");}\\n    }\\n    jQuery.ajax({type: "POST", url: u, data: query, success: function(msg) { if(t) { if(t==\\\':eval\\\') eval(msg); else jQuery("#" + t).html(msg); } } }); \\n}\\nString.prototype.reverse = function () { return this.split(\\\'\\\').reverse().join(\\\'\\\');};\\nfunction web2py_ajax_init() {\\n  jQuery(\\\'.hidden\\\').hide();\\n  jQuery(\\\'.error\\\').hide().slideDown(\\\'slow\\\');\\n  jQuery(\\\'.flash\\\').click(function() { jQuery(this).fadeOut(\\\'slow\\\'); return false; });\\n  jQuery(\\\'input[type=submit]\\\').click(function(){var t=jQuery(this);t.hide();t.after(\\\'<input class="submit_disabled" disabled="disabled" type="submit" name="\\\'+t.attr("name")+\\\'_dummy" value="\\\'+t.val()+\\\'">\\\')});\\n  jQuery(\\\'input.integer\\\').keyup(function(){this.value=this.value.reverse().replace(/[^0-9\\\\-]|\\\\-(?=.)/g,\\\'\\\').reverse();});\\n  jQuery(\\\'input.double,input.decimal\\\').keyup(function(){this.value=this.value.reverse().replace(/[^0-9\\\\-\\\\.]|[\\\\-](?=.)|[\\\\.](?=[0-9]*[\\\\.])/g,\\\'\\\').reverse();});\\n  jQuery("input[type=\\\'checkbox\\\'].delete").each(function(){jQuery(this).click(function() { if(this.checked) if(!confirm("\', escape=False)\nresponse.write(T(\'Sure you want to delete this object?\'))\nresponse.write(\'")) this.checked=false; });});\\n  try {jQuery("input.date").focus( function() {Calendar.setup({\\n     inputField:this.id, ifFormat:"\', escape=False)\nresponse.write(T(\'%Y-%m-%d\'))\nresponse.write(\'", showsTime:false\\n  }); }); } catch(e) {};\\n  try { jQuery("input.datetime").focus( function() {Calendar.setup({\\n     inputField:this.id, ifFormat:"\', escape=False)\nresponse.write(T(\'%Y-%m-%d %H:%M:%S\'))\nresponse.write(\'", showsTime: true,timeFormat: "24"\\n  }); }); } catch(e) {};\\n  try { jQuery("input.time").clockpick({\\n      starthour:0, endhour:23, showminutes:true, military:true\\n  }); } catch(e) {};\\n};\\njQuery(document).ready(function(){\\n   jQuery(\\\'.flash\\\').hide();\\n   if(jQuery(\\\'.flash\\\').html()!=\\\'\\\') jQuery(\\\'.flash\\\').slideDown(\\\'slow\\\');\\n   web2py_ajax_init();});\\n\\nfunction web2py_trap_form(action,target) {\\n   jQuery(\\\'#\\\'+target+\\\' form\\\').each(function(i){\\n      var form=jQuery(this);\\n      if(!form.hasClass(\\\'no_trap\\\'))\\n        form.submit(function(obj){\\n         jQuery(\\\'.flash\\\').hide().html(\\\'\\\');\\n         web2py_ajax_page(\\\'post\\\',action,form.serialize(),target);\\n         return false;\\n      });\\n   });\\n}\\n\\nfunction web2py_ajax_page(method,action,data,target) {\\n  jQuery.ajax({\\\'type\\\':method,\\\'url\\\':action,\\\'data\\\':data,\\n    \\\'beforeSend\\\':function(xhr) {\\n      xhr.setRequestHeader(\\\'web2py-component-location\\\',document.location);\\n      xhr.setRequestHeader(\\\'web2py-component-element\\\',target);},\\n    \\\'complete\\\':function(xhr,text){\\n      var html=xhr.responseText;\\n      var content=xhr.getResponseHeader(\\\'web2py-component-content\\\'); \\n      var command=xhr.getResponseHeader(\\\'web2py-component-command\\\');\\n      var flash=xhr.getResponseHeader(\\\'web2py-component-flash\\\');\\n      var t = jQuery(\\\'#\\\'+target);\\n      if(content==\\\'prepend\\\') t.prepend(html); \\n      else if(content==\\\'append\\\') t.append(html);\\n      else if(content!=\\\'hide\\\') t.html(html);  \\n      web2py_trap_form(action,target);\\n      web2py_ajax_init();      \\n      if(command) eval(command);\\n      if(flash) jQuery(\\\'.flash\\\').html(flash).slideDown();\\n      }\\n    });\\n}\\nfunction web2py_component(action,target) {\\n    jQuery(document).ready(function(){ web2py_ajax_page(\\\'get\\\',action,null,target); });\\n}\\n//--></script>\\n\', escape=False)\nresponse.write(\'\\n  <style>\\nul.web2py-menu-vertical { width: 150px; position: relative; top:1em; left:1em;  z-index:30; border:0; margin:0; padding: 0; list-style: none; text-decoration: none;}\\nul.web2py-menu-vertical li { margin:0; padding:0; border:0; width: 150px; background: black; text-align:left;}\\nul.web2py-menu-vertical li a { margin:0; padding: 1px 3px 1px 3px; border:0; width: 144px; color: white; font-size:12px;}\\ndiv.flash { position: fixed; float: right; padding: 10px; top: 10px; right: 30px; opacity: 0.75; margin: 10px 10px 10px 10px; text-align: center; clear: both; color: #fff; font-size: 11pt; text-align: center; vertical-align: middle; cursor: pointer; background: black; border: 2px solid #fff; -moz-border-radius: 5px; -webkit-border-radius: 5px; z-index: 2; }\\ndiv.error { background-color: red; color: white; padding: 3px; }\\n.auth_navbar { text-align:right; z-index:20; position: absolute; top: 2px; right:30px; border:0; padding:0 }\\n  </style>\\n </head>\\n <body>\\n  <!-- start header -->\\n  \', escape=False)\ntry:\n    response.write(auth.navbar(action=URL(\'default\',\'user\')))\nexcept:pass\nresponse.write(\'\\n\\n  <div id="header">\\n   <div id="logo">\\n    <h1>\\n     \', escape=False)\nresponse.write(response.title or request.application)\nresponse.write(\'\\n    </h1>\\n    <h2>\\n     \', escape=False)\nresponse.write(response.subtitle or \'=response.subtitle\')\nresponse.write(\'\\n    </h2>\\n   </div>\\n   <div id="menu">\\n    \', escape=False)\nresponse.write(MENU(response.menu,_class=\'web2py-menu\'))\nresponse.write(\'\\n    <script>\\n      jQuery(document).ready(function(){jQuery(\\\'ul.web2py-menu\\\').superfish({delay:400});});\\n    </script>\\n   </div>\\n  </div>\\n  <hr />\\n  <!-- start page -->\\n  <div id="page">\\n   <!-- start content -->\\n   <div id="content">\\n    <div class="flash">\', escape=False)\nresponse.write(response.flash or \'\')\nresponse.write(\'</div>\\n    \', escape=False)\nresponse.write(\'\\n\\n\', escape=False)\n#=BEAUTIFY(request.vars)\nresponse.write(\'\\n\', escape=False)\n#=BEAUTIFY(post)\nresponse.write(\'\\n\', escape=False)\n#=BEAUTIFY(comments)\nresponse.write(\'\\n<br/>\\n\', escape=False)\nresponse.write(H3(post.articulos.titulo))\nresponse.write(\'\\n\', escape=False)\nresponse.write(post.articulos.articulo)\nresponse.write(\'\\n\\n<br/>\\n<br/>\\n\', escape=False)\nresponse.write(T("Escrito por: "))\nresponse.write(\' \', escape=False)\nresponse.write(post.usuarios.usuario)\nresponse.write(\' \', escape=False)\nresponse.write(T("el "))\nresponse.write(\' \', escape=False)\nresponse.write(post.articulos.fecha)\nresponse.write(\'\\n<br/>\\n<br/>\\n\', escape=False)\nresponse.write(comments.comentarios.titulo)\nresponse.write(\'\\n<br/>\\n\', escape=False)\n#=comments.comentarios.nombre\nresponse.write(\' / \', escape=False)\n#=comments.comentarios.correo\nresponse.write(\'\\n\', escape=False)\n#=(comments.comentarios.url or "No tiene Url")\nresponse.write(\'\\n\', escape=False)\n#=comments.comentarios.comentario\nresponse.write(\'\\nEscrito el: \', escape=False)\n#=comments.comentarios.fecha\nresponse.write(\'\\n<br/>\\n<br/>\\n\', escape=False)\nresponse.write(form)\nresponse.write(\'\\n\', escape=False)\nresponse.write(\'\\n   </div>\\n   <!-- end content -->\\n   <!-- start sidebar -->\\n   <div id="sidebar">\\n    <ul>\\n     <li>\\n      <h2>\\n       Etiam dolore\\n      </h2>\\n      <p>\\n       Nulla pellentesque dolor non tellus. Duis vel elit sit\\n       <a href="#">\\n        amet ipsum vehicula\\n       </a>\\n       varius. Vestibulum ante ipsum primis in faucibus orci luctus.\\n      </p>\\n     </li>\\n     <li>\\n      <h2>\\n       Consequat lorem\\n      </h2>\\n      <ul>\\n       <li>\\n        <a href="#">\\n         Proin nec magna nec massa\\n        </a>\\n       </li>\\n       <li>\\n        <a href="#">\\n         Sit amet purus congue\\n        </a>\\n       </li>\\n       <li>\\n        <a href="#">\\n         Molestie aliquam erat volutpat\\n        </a>\\n       </li>\\n       <li>\\n        <a href="#">\\n         Amet ipsum vehicula varius\\n        </a>\\n       </li>\\n       <li>\\n        <a href="#">\\n         Primis in faucibus orci luctus\\n        </a>\\n       </li>\\n       <li>\\n        <a href="#">\\n         Vestibulum ante ipsum\\n        </a>\\n       </li>\\n      </ul>\\n     </li>\\n    </ul>\\n   </div>\\n   <!-- end sidebar -->\\n   <div style="clear: both;">\\n    &nbsp;\\n   </div>\\n  </div>\\n  <!-- end page -->\\n  <div id="footer">\\n   <p class="legal">\\n    Copyright (c) 2007 Website Name. All rights reserved.\\n   </p>\\n   <p class="credit">\\n    Designed by\\n    <a href="http://www.freecsstemplates.org/">\\n     Free CSS Templates\\n    </a>\\n    .\\n   </p>\\n  </div>\\n </body>\\n</html>\\n\', escape=False)'
p6
sS'snapshot'
p7
(dp8
S'exception'
p9
(dp10
S'__hash__'
p11
S"<method-wrapper '__hash__' of exceptions.AttributeError object>"
p12
sS'__setattr__'
p13
S"<method-wrapper '__setattr__' of exceptions.AttributeError object>"
p14
sS'__reduce_ex__'
p15
S'<built-in method __reduce_ex__ of exceptions.AttributeError object>'
p16
sS'__getslice__'
p17
S"<method-wrapper '__getslice__' of exceptions.AttributeError object>"
p18
sS'__getitem__'
p19
S"<method-wrapper '__getitem__' of exceptions.AttributeError object>"
p20
sS'__setstate__'
p21
S'<built-in method __setstate__ of exceptions.AttributeError object>'
p22
sS'__reduce__'
p23
S'<built-in method __reduce__ of exceptions.AttributeError object>'
p24
sS'__str__'
p25
S"<method-wrapper '__str__' of exceptions.AttributeError object>"
p26
sS'__format__'
p27
S'<built-in method __format__ of exceptions.AttributeError object>'
p28
sS'__getattribute__'
p29
S"<method-wrapper '__getattribute__' of exceptions.AttributeError object>"
p30
sS'__class__'
p31
S"<type 'exceptions.AttributeError'>"
p32
sS'__unicode__'
p33
S'<built-in method __unicode__ of exceptions.AttributeError object>'
p34
sS'__delattr__'
p35
S"<method-wrapper '__delattr__' of exceptions.AttributeError object>"
p36
sS'__subclasshook__'
p37
S'<built-in method __subclasshook__ of type object>'
p38
sS'__repr__'
p39
S"<method-wrapper '__repr__' of exceptions.AttributeError object>"
p40
sS'args'
p41
S'("\'Rows\' object has no attribute \'comentarios\'",)'
p42
sS'__dict__'
p43
S'{}'
p44
sS'__sizeof__'
p45
S'<built-in method __sizeof__ of exceptions.AttributeError object>'
p46
sS'__doc__'
p47
S"'Attribute not found.'"
p48
sS'__init__'
p49
S"<method-wrapper '__init__' of exceptions.AttributeError object>"
p50
sS'__new__'
p51
S'<built-in method __new__ of type object>'
p52
ssS'evalue'
p53
S"'Rows' object has no attribute 'comentarios'"
p54
sS'request'
p55
(dp56
S'function'
p57
S"'viewpost'"
p58
sS'body'
p59
S'<cStringIO.StringO object>'
p60
sS'wsgi'
p61
S"<Storage {'start_response': <function <lambda> a...ING': 'gzip,deflate', 'HTTP_KEEP_ALIVE': '300'}}>"
p62
sS'extension'
p63
S"'html'"
p64
sS'vars'
p65
S'<Storage {}>'
p66
sS'cid'
p67
S'None'
p68
sS'url'
p69
S'<gluon.html.XML object>'
p70
sg41
S"['5']"
p71
sS'controller'
p72
S"'default'"
p73
sS'cookies'
p74
S"<SimpleCookie: session_id_admin='127-0-0-1-f2e5b...'127-0-0-1-5dc66841-ff4e-4166-a5cb-65f23e1becc2'>"
p75
sS'application'
p76
S"'blog'"
p77
sS'ajax'
p78
S'False'
p79
sS'client'
p80
S"'127.0.0.1'"
p81
sS'env'
p82
S"<Storage {'http_user_agent': 'Mozilla/5.0 (X11; ...te', 'query_string': '', 'wsgi_run_once': False}>"
p83
sS'raw_args'
p84
S"'5'"
p85
sS'get_vars'
p86
S'<Storage {}>'
p87
sS'folder'
p88
S"'/home/j3nnn1/git/pyj3nnn1/web2py/applications/blog/'"
p89
sS'now'
p90
S'datetime.datetime(2010, 10, 24, 20, 59, 30, 272114)'
p91
sS'post_vars'
p92
S'<Storage {}>'
p93
ssS'frames'
p94
(lp95
(dp96
S'file'
p97
S'/home/j3nnn1/git/pyj3nnn1/web2py/gluon/restricted.py'
p98
sS'dump'
p99
(dp100
S'environment'
p101
S"{'A': <class 'gluon.html.A'>, 'Auth': <class 'gluon.tools.Auth'>, 'B': <class 'gluon.html.B'>, 'BEAUTIFY': <class 'gluon.html.BEAUTIFY'>, 'BODY': <class 'gluon.html.BODY'>, 'BR': <class 'gluon.html.BR'>, 'CENTER': <class 'gluon.html.CENTER'>, 'CLEANUP': <class 'gluon.validators.CLEANUP'>, 'CODE': <class 'gluon.html.CODE'>, 'CRYPT': <class 'gluon.validators.CRYPT'>, ...}"
p102
sS'ccode'
p103
S'<code object <module> at 0x995c338, file "/home/...ations/blog/views/default/viewpost.html", line 1>'
p104
ssS'lnum'
p105
I188
sS'lines'
p106
(dp107
I192
S'        # XXX Show exception in Wing IDE if running in debugger'
p108
sI183
S'        if type(code) == types.CodeType:'
p109
sI184
S'            ccode = code'
p110
sI185
S'        else:'
p111
sI186
S'            ccode = compile2(code,layer)'
p112
sI187
S''
sI188
S'        exec ccode in environment'
p113
sI189
S'    except HTTP:'
p114
sI190
S'        raise'
p115
sI191
S'    except Exception:'
p116
ssS'call'
p117
S'(code=\'response.write(\\\'<!DOCTYPE html PUBLIC "-//W3C//D...p>\\\\n  </div>\\\\n </body>\\\\n</html>\\\\n\\\', escape=False)\', environment={\'A\': <class \'gluon.html.A\'>, \'Auth\': <class \'gluon.tools.Auth\'>, \'B\': <class \'gluon.html.B\'>, \'BEAUTIFY\': <class \'gluon.html.BEAUTIFY\'>, \'BODY\': <class \'gluon.html.BODY\'>, \'BR\': <class \'gluon.html.BR\'>, \'CENTER\': <class \'gluon.html.CENTER\'>, \'CLEANUP\': <class \'gluon.validators.CLEANUP\'>, \'CODE\': <class \'gluon.html.CODE\'>, \'CRYPT\': <class \'gluon.validators.CRYPT\'>, ...}, layer=\'/home/j3nnn1/git/pyj3nnn1/web2py/applications/blog/views/default/viewpost.html\')'
p118
sS'func'
p119
S'restricted'
p120
sa(dp121
g97
S'/home/j3nnn1/git/pyj3nnn1/web2py/applications/blog/views/default/viewpost.html'
p122
sg99
(dp123
sg105
I70
sg106
(dp124
I64
S'response.write(post.usuarios.usuario)'
p125
sI65
S"response.write(' ', escape=False)"
p126
sI66
S'response.write(T("el "))'
p127
sI67
S"response.write(' ', escape=False)"
p128
sI68
S'response.write(post.articulos.fecha)'
p129
sI69
S"response.write('\\n<br/>\\n<br/>\\n', escape=False)"
p130
sI70
S'response.write(comments.comentarios.titulo)'
p131
sI71
S"response.write('\\n<br/>\\n', escape=False)"
p132
sI72
S'#=comments.comentarios.nombre'
p133
sI73
S"response.write(' / ', escape=False)"
p134
sI74
S'#=comments.comentarios.correo'
p135
sI75
S"response.write('\\n', escape=False)"
p136
sI76
S'#=(comments.comentarios.url or "No tiene Url")'
p137
sI77
S"response.write('\\n', escape=False)"
p138
sI78
S'#=comments.comentarios.comentario'
p139
sI79
S"response.write('\\nEscrito el: ', escape=False)"
p140
sI80
S'#=comments.comentarios.fecha'
p141
sI61
S"response.write('\\n\\n<br/>\\n<br/>\\n', escape=False)"
p142
sI62
S'response.write(T("Escrito por: "))'
p143
sI63
S"response.write(' ', escape=False)"
p144
ssg117
S'()'
p145
sg119
S'<module>'
p146
sasS'pyver'
p147
S'Python 2.6.6: /usr/bin/python'
p148
sS'session'
p149
(dp150
S'_formkey[comentarios_create]'
p151
S"'e9dd6b14-f696-4dfa-820b-dbadc5aa5e2c'"
p152
sS'auth'
p153
S'None'
p154
ssS'etype'
p155
S"<type 'exceptions.AttributeError'>"
p156
sS'date'
p157
S'Sun Oct 24 20:59:32 2010'
p158
sS'response'
p159
(dp160
S'status'
p161
S'200'
p162
sg59
S'<cStringIO.StringO object>'
p163
sg74
S"<SimpleCookie: session_id_blog='127-0-0-1-5dc66841-ff4e-4166-a5cb-65f23e1becc2'>"
p164
sS'_vars'
p165
S"{'comments': <gluon.sql.Rows object>, 'form': <gluon.sqlhtml.SQLFORM object>, 'post': <Row {'articulos': <Row {'update_record': <funct...bfc>}>, 'usuarios': <Row {'usuario': 'j3nnn1'}>}>}"
p166
sS'title'
p167
S"'blog'"
p168
sS'session_file'
p169
S"<open file '/home/j3nnn1/git/pyj3nnn1/web2py/app...dc66841-ff4e-4166-a5cb-65f23e1becc2', mode 'rb+'>"
p170
sS'flash'
p171
S"''"
p172
sS'_custom_rollback'
p173
S'None'
p174
sS'session_id'
p175
S"'127-0-0-1-5dc66841-ff4e-4166-a5cb-65f23e1becc2'"
p176
sS'headers'
p177
S"<Storage {'Expires': 'lun, 25 oct 2010 01:29:30 ...he, must-revalidate, post-check=0, pre-check=0'}>"
p178
sS'meta'
p179
S"<Storage {'keywords': 'j3nnn1 web2py python', 'd...con web2py... ', 'author': 'Jennifer Maldonado'}>"
p180
sS'session_filename'
p181
S"'/home/j3nnn1/git/pyj3nnn1/web2py/applications/bl...ns/127-0-0-1-5dc66841-ff4e-4166-a5cb-65f23e1becc2'"
p182
sS'postprocessing'
p183
S'[]'
p184
sS'menu'
p185
S"[(<lazyT 'Index'>, False, <gluon.html.XML object>, []), (<lazyT 'About'>, False, <gluon.html.XML object>, []), (<lazyT 'Edit'>, False, <gluon.html.XML object>, [(<lazyT 'Controller'>, False, <gluon.html.XML object>), (<lazyT 'View'>, False, <gluon.html.XML object>), (<lazyT 'Layout'>, False, <gluon.html.XML object>), (<lazyT 'Stylesheet'>, False, <gluon.html.XML object>), (<lazyT 'DB Model'>, False, <gluon.html.XML object>), (<lazyT 'Menu Model'>, False, <gluon.html.XML object>), (<lazyT 'Database'>, False, <gluon.html.XML object>)])]"
p186
sS'_view_environment'
p187
S"{'A': <class 'gluon.html.A'>, 'Auth': <class 'gluon.tools.Auth'>, 'B': <class 'gluon.html.B'>, 'BEAUTIFY': <class 'gluon.html.BEAUTIFY'>, 'BODY': <class 'gluon.html.BODY'>, 'BR': <class 'gluon.html.BR'>, 'CENTER': <class 'gluon.html.CENTER'>, 'CLEANUP': <class 'gluon.validators.CLEANUP'>, 'CODE': <class 'gluon.html.CODE'>, 'CRYPT': <class 'gluon.validators.CRYPT'>, ...}"
p188
sS'subtitle'
p189
S'<lazyT "it\'s me j3nnn1">'
p190
sS'session_id_name'
p191
S"'session_id_blog'"
p192
sS'_custom_commit'
p193
S'None'
p194
sS'_caller'
p195
S'<function <lambda>>'
p196
sS'files'
p197
S'[<gluon.html.XML object>, <gluon.html.XML object>, <gluon.html.XML object>, <gluon.html.XML object>, <gluon.html.XML object>]'
p198
sS'view'
p199
S"'default/viewpost.html'"
p200
ssS'locals'
p201
(dp202
S'Service'
p203
S'<class gluon.tools.Service>'
p204
sS'OBJECT'
p205
S"<class 'gluon.html.OBJECT'>"
p206
sS'_file'
p207
S'<gluon.html.XML object>'
p208
sS'SQLDB'
p209
S"<class 'gluon.sql.SQLDB'>"
p210
sg149
S"<Storage {'_formkey[comentarios_create]': 'e9dd6b14-f696-4dfa-820b-dbadc5aa5e2c', 'auth': None}>"
p211
sS'LINK'
p212
S"<class 'gluon.html.LINK'>"
p213
sS'Auth'
p214
S"<class 'gluon.tools.Auth'>"
p215
sS'BR'
p216
S"<class 'gluon.html.BR'>"
p217
sS'local_import'
p218
S'<function <lambda>>'
p219
sS'OPTGROUP'
p220
S"<class 'gluon.html.OPTGROUP'>"
p221
sS'PRE'
p222
S"<class 'gluon.html.PRE'>"
p223
sS'IS_INT_IN_RANGE'
p224
S"<class 'gluon.validators.IS_INT_IN_RANGE'>"
p225
sS'IS_LOWER'
p226
S"<class 'gluon.validators.IS_LOWER'>"
p227
sS'IS_STRONG'
p228
S"<class 'gluon.validators.IS_STRONG'>"
p229
sS'datetime'
p230
S"<module 'datetime' from '/usr/lib/python2.6/lib-dynload/datetime.so'>"
p231
sS'Recaptcha'
p232
S"<class 'gluon.tools.Recaptcha'>"
p233
sS'cache'
p234
S'<gluon.cache.Cache object>'
p235
sS'IS_IN_DB'
p236
S"<class 'gluon.validators.IS_IN_DB'>"
p237
sS'TAG'
p238
S'<gluon.html.__TAG__ object>'
p239
sS'_k'
p240
S'4'
sS'SQLField'
p241
S"<class 'gluon.sql.Field'>"
p242
sS'mail'
p243
S'<gluon.tools.Mail object>'
p244
sS'BODY'
p245
S"<class 'gluon.html.BODY'>"
p246
sS'IS_DATE_IN_RANGE'
p247
S"<class 'gluon.validators.IS_DATE_IN_RANGE'>"
p248
sS'TH'
p249
S"<class 'gluon.html.TH'>"
p250
sS'URL'
p251
S'<function _URL>'
p252
sS'db'
p253
S"<SQLDB {'auth_event': <Table {'origin': <gluon.s..., 'id': <gluon.sql.Field object at 0x9befd6c>}>}>"
p254
sS'auth'
p255
S'<gluon.tools.Auth object>'
p256
sS'P'
S"<class 'gluon.html.P'>"
p257
sS'TFOOT'
p258
S"<class 'gluon.html.TFOOT'>"
p259
sS'XHTML'
p260
S"<class 'gluon.html.XHTML'>"
p261
sg90
S'datetime.datetime(2010, 10, 24, 20, 59, 31, 637876)'
p262
sS'ON'
p263
S'True'
p264
sS'OL'
p265
S"<class 'gluon.html.OL'>"
p266
sS'TEXTAREA'
p267
S"<class 'gluon.html.TEXTAREA'>"
p268
sS'MENU'
p269
S"<class 'gluon.html.MENU'>"
p270
sS'LOAD'
p271
S'<gluon.compileapp.LoadFactory instance>'
p272
sS'CODE'
p273
S"<class 'gluon.html.CODE'>"
p274
sS'HTTP'
p275
S"<class 'gluon.http.HTTP'>"
p276
sS'HR'
p277
S"<class 'gluon.html.HR'>"
p278
sS'IS_DATETIME'
p279
S"<class 'gluon.validators.IS_DATETIME'>"
p280
sS'HEAD'
p281
S"<class 'gluon.html.HEAD'>"
p282
sS'LABEL'
p283
S"<class 'gluon.html.LABEL'>"
p284
sS'CLEANUP'
p285
S"<class 'gluon.validators.CLEANUP'>"
p286
sS'plugins'
p287
S'<gluon.tools.PluginManager object>'
p288
sS'SELECT'
p289
S"<class 'gluon.html.SELECT'>"
p290
sS'CENTER'
p291
S"<class 'gluon.html.CENTER'>"
p292
sS'prettydate'
p293
S'<function prettydate>'
p294
sS'Crud'
p295
S"<class 'gluon.tools.Crud'>"
p296
sS'comments'
p297
S'<gluon.sql.Rows object>'
p298
sS'__builtins__'
p299
S"{'ArithmeticError': <type 'exceptions.ArithmeticError'>, 'AssertionError': <type 'exceptions.AssertionError'>, 'AttributeError': <type 'exceptions.AttributeError'>, 'BaseException': <type 'exceptions.BaseException'>, 'BufferError': <type 'exceptions.BufferError'>, 'BytesWarning': <type 'exceptions.BytesWarning'>, 'DeprecationWarning': <type 'exceptions.DeprecationWarning'>, 'EOFError': <type 'exceptions.EOFError'>, 'Ellipsis': Ellipsis, 'EnvironmentError': <type 'exceptions.EnvironmentError'>, ...}"
p300
sS'IS_LIST_OF'
p301
S"<class 'gluon.validators.IS_LIST_OF'>"
p302
sS'SQLFORM'
p303
S"<class 'gluon.sqlhtml.SQLFORM'>"
p304
sS'_item'
p305
S"'author'"
p306
sS'EM'
p307
S"<class 'gluon.html.EM'>"
p308
sS'redirect'
p309
S'<function redirect>'
p310
sS'FIELDSET'
p311
S"<class 'gluon.html.FIELDSET'>"
p312
sS'IS_EQUAL_TO'
p313
S"<class 'gluon.validators.IS_EQUAL_TO'>"
p314
sS'embed64'
p315
S'<function embed64>'
p316
sS'INPUT'
p317
S"<class 'gluon.html.INPUT'>"
p318
sS'post'
p319
S"<Row {'articulos': <Row {'update_record': <funct...bfc>}>, 'usuarios': <Row {'usuario': 'j3nnn1'}>}>"
p320
sS'FORM'
p321
S"<class 'gluon.html.FORM'>"
p322
sS'H2'
p323
S"<class 'gluon.html.H2'>"
p324
sS'H3'
p325
S"<class 'gluon.html.H3'>"
p326
sS'H1'
p327
S"<class 'gluon.html.H1'>"
p328
sS'H6'
p329
S"<class 'gluon.html.H6'>"
p330
sS'H4'
p331
S"<class 'gluon.html.H4'>"
p332
sS'H5'
p333
S"<class 'gluon.html.H5'>"
p334
sS'UL'
p335
S"<class 'gluon.html.UL'>"
p336
sS'IS_UPPER'
p337
S"<class 'gluon.validators.IS_UPPER'>"
p338
sS'xmlescape'
p339
S'<function xmlescape>'
p340
sS'IS_TIME'
p341
S"<class 'gluon.validators.IS_TIME'>"
p342
sS'OPTION'
p343
S"<class 'gluon.html.OPTION'>"
p344
sS'TITLE'
p345
S"<class 'gluon.html.TITLE'>"
p346
sS'CRYPT'
p347
S"<class 'gluon.validators.CRYPT'>"
p348
sS'IS_EMPTY_OR'
p349
S"<class 'gluon.validators.IS_EMPTY_OR'>"
p350
sS'MARKMIN'
p351
S"<class 'gluon.html.MARKMIN'>"
p352
sS'EMBED'
p353
S"<class 'gluon.html.EMBED'>"
p354
sS'service'
p355
S'<gluon.tools.Service instance>'
p356
sS'SCRIPT'
p357
S"<class 'gluon.html.SCRIPT'>"
p358
sS'geocode'
p359
S'<function geocode>'
p360
sS'TABLE'
p361
S"<class 'gluon.html.TABLE'>"
p362
sS'IS_IPV4'
p363
S"<class 'gluon.validators.IS_IPV4'>"
p364
sS'IS_LENGTH'
p365
S"<class 'gluon.validators.IS_LENGTH'>"
p366
sS'XML'
p367
S"<class 'gluon.html.XML'>"
p368
sS'B'
S"<class 'gluon.html.B'>"
p369
sS'form'
p370
S'<gluon.sqlhtml.SQLFORM object>'
p371
sS'SQLTABLE'
p372
S"<class 'gluon.sqlhtml.SQLTABLE'>"
p373
sS'IS_MATCH'
p374
S"<class 'gluon.validators.IS_MATCH'>"
p375
sS'IS_ALPHANUMERIC'
p376
S"<class 'gluon.validators.IS_ALPHANUMERIC'>"
p377
sS'SPAN'
p378
S"<class 'gluon.html.SPAN'>"
p379
sS'IS_SLUG'
p380
S"<class 'gluon.validators.IS_SLUG'>"
p381
sS'BEAUTIFY'
p382
S"<class 'gluon.html.BEAUTIFY'>"
p383
sS'META'
p384
S"<class 'gluon.html.META'>"
p385
sS'fetch'
p386
S'<function fetch>'
p387
sS'IS_DATE'
p388
S"<class 'gluon.validators.IS_DATE'>"
p389
sS'IS_EMAIL'
p390
S"<class 'gluon.validators.IS_EMAIL'>"
p391
sS'IS_NOT_EMPTY'
p392
S"<class 'gluon.validators.IS_NOT_EMPTY'>"
p393
sg55
S"<Storage {'function': 'viewpost', 'body': <cStri... 20, 59, 30, 272114), 'post_vars': <Storage {}>}>"
p394
sS'TBODY'
p395
S"<class 'gluon.html.TBODY'>"
p396
sS'Field'
p397
S"<class 'gluon.sql.Field'>"
p398
sS'Mail'
p399
S"<class 'gluon.tools.Mail'>"
p400
sS'DIV'
p401
S"<class 'gluon.html.DIV'>"
p402
sS'LEGEND'
p403
S"<class 'gluon.html.LEGEND'>"
p404
sS'IMG'
p405
S"<class 'gluon.html.IMG'>"
p406
sS'DAL'
p407
S'<function DAL>'
p408
sS'TT'
p409
S"<class 'gluon.html.TT'>"
p410
sS'TR'
p411
S"<class 'gluon.html.TR'>"
p412
sS'LI'
p413
S"<class 'gluon.html.LI'>"
p414
sS'IFRAME'
p415
S"<class 'gluon.html.IFRAME'>"
p416
sS'TD'
p417
S"<class 'gluon.html.TD'>"
p418
sS'PluginManager'
p419
S"<class 'gluon.tools.PluginManager'>"
p420
sS'IS_URL'
p421
S"<class 'gluon.validators.IS_URL'>"
p422
sS'A'
S"<class 'gluon.html.A'>"
p423
sS'STYLE'
p424
S"<class 'gluon.html.STYLE'>"
p425
sS'IS_DATETIME_IN_RANGE'
p426
S"<class 'gluon.validators.IS_DATETIME_IN_RANGE'>"
p427
sS'HTML'
p428
S"<class 'gluon.html.HTML'>"
p429
sS'IS_IMAGE'
p430
S"<class 'gluon.validators.IS_IMAGE'>"
p431
sS'I'
S"<class 'gluon.html.I'>"
p432
sS'crud'
p433
S'<gluon.tools.Crud object>'
p434
sS'IS_NOT_IN_DB'
p435
S"<class 'gluon.validators.IS_NOT_IN_DB'>"
p436
sg159
S"<Storage {'status': 200, 'body': <cStringIO.Stri...object at 0x99593ec>], '_custom_rollback': None}>"
p437
sS'THEAD'
p438
S"<class 'gluon.html.THEAD'>"
p439
sS'IS_NULL_OR'
p440
S"<class 'gluon.validators.IS_EMPTY_OR'>"
p441
sS'IS_FLOAT_IN_RANGE'
p442
S"<class 'gluon.validators.IS_FLOAT_IN_RANGE'>"
p443
sS'IS_EXPR'
p444
S"<class 'gluon.validators.IS_EXPR'>"
p445
sS'T'
S'<gluon.languages.translator object>'
p446
sS'IS_IN_SET'
p447
S"<class 'gluon.validators.IS_IN_SET'>"
p448
sS'IS_UPLOAD_FILENAME'
p449
S"<class 'gluon.validators.IS_UPLOAD_FILENAME'>"
p450
sS'IS_DECIMAL_IN_RANGE'
p451
S"<class 'gluon.validators.IS_DECIMAL_IN_RANGE'>"
p452
sssS'traceback'
p453
S'Traceback (most recent call last):\n  File "/home/j3nnn1/git/pyj3nnn1/web2py/gluon/restricted.py", line 188, in restricted\n    exec ccode in environment\n  File "/home/j3nnn1/git/pyj3nnn1/web2py/applications/blog/views/default/viewpost.html", line 70, in <module>\nAttributeError: \'Rows\' object has no attribute \'comentarios\'\n'
p454
s.