(dp1
S'output'
p2
S''
sS'layer'
p3
S'/home/j3nnn1/git/pyj3nnn1/web2py/applications/blog/controllers/default.py'
p4
sS'code'
p5
S'# -*- coding: utf-8 -*- \n\n#########################################################################\n## This is a samples controller\n## - index is the default action of any application\n## - user is required for authentication and authorization\n## - download is for downloading files uploaded in the db (does streaming)\n## - call exposes all registered services (none by default)\n#########################################################################  \n\ndef index():\n    """\n    Esta vista va a obtener 3 post\n    """\n    # filter to join.\n    filtro = (db.articulos.id_usuario==db.usuarios.id)\n    post = db(filtro).select(db.articulos.titulo, titulo, db.articulos.fecha, fecha, db.articulos.articulo, articulo, db.usuarios.usuario, usuario, orderby=db.articulos.fecha)\n\n    return dict(post=post)\n\ndef about():\n    """ Informaci\xc3\xb3n sobre mi persona"""\n    return dict()\n\ndef user():\n    """\n    exposes:\n    http://..../[app]/default/user/login \n    http://..../[app]/default/user/logout\n    http://..../[app]/default/user/register\n    http://..../[app]/default/user/profile\n    http://..../[app]/default/user/retrieve_password\n    http://..../[app]/default/user/change_password\n    use @auth.requires_login()\n        @auth.requires_membership(\'group name\')\n        @auth.requires_permission(\'read\',\'table name\',record_id)\n    to decorate functions that need access control\n    """\n    return dict(form=auth())\n\n\ndef download():\n    """\n    allows downloading of uploaded files\n    http://..../[app]/default/download/[filename]\n    """\n    return response.download(request,db)\n\n\ndef call():\n    """\n    exposes services. for example:\n    http://..../[app]/default/call/jsonrpc\n    decorate with @services.jsonrpc the functions to expose\n    supports xml, json, xmlrpc, jsonrpc, amfrpc, rss, csv\n    """\n    session.forget()\n    return service()\n\nresponse._vars=response._caller(index)\n'
p6
sS'snapshot'
p7
(dp8
S'exception'
p9
(dp10
S'__hash__'
p11
S"<method-wrapper '__hash__' of exceptions.NameError object>"
p12
sS'__setattr__'
p13
S"<method-wrapper '__setattr__' of exceptions.NameError object>"
p14
sS'__reduce_ex__'
p15
S'<built-in method __reduce_ex__ of exceptions.NameError object>'
p16
sS'__getslice__'
p17
S"<method-wrapper '__getslice__' of exceptions.NameError object>"
p18
sS'__getitem__'
p19
S"<method-wrapper '__getitem__' of exceptions.NameError object>"
p20
sS'__setstate__'
p21
S'<built-in method __setstate__ of exceptions.NameError object>'
p22
sS'__reduce__'
p23
S'<built-in method __reduce__ of exceptions.NameError object>'
p24
sS'__str__'
p25
S"<method-wrapper '__str__' of exceptions.NameError object>"
p26
sS'__format__'
p27
S'<built-in method __format__ of exceptions.NameError object>'
p28
sS'__getattribute__'
p29
S"<method-wrapper '__getattribute__' of exceptions.NameError object>"
p30
sS'__class__'
p31
S"<type 'exceptions.NameError'>"
p32
sS'__unicode__'
p33
S'<built-in method __unicode__ of exceptions.NameError object>'
p34
sS'__delattr__'
p35
S"<method-wrapper '__delattr__' of exceptions.NameError object>"
p36
sS'__subclasshook__'
p37
S'<built-in method __subclasshook__ of type object>'
p38
sS'__repr__'
p39
S"<method-wrapper '__repr__' of exceptions.NameError object>"
p40
sS'args'
p41
S'("global name \'titulo\' is not defined",)'
p42
sS'__dict__'
p43
S'{}'
p44
sS'__sizeof__'
p45
S'<built-in method __sizeof__ of exceptions.NameError object>'
p46
sS'__doc__'
p47
S"'Name not found globally.'"
p48
sS'__init__'
p49
S"<method-wrapper '__init__' of exceptions.NameError object>"
p50
sS'__new__'
p51
S'<built-in method __new__ of type object>'
p52
ssS'evalue'
p53
S"global name 'titulo' is not defined"
p54
sS'request'
p55
(dp56
S'function'
p57
S"'index'"
p58
sS'body'
p59
S'<cStringIO.StringO object>'
p60
sS'wsgi'
p61
S"<Storage {'start_response': <function <lambda> a...>, 'HTTP_ACCEPT_ENCODING': 'gzip,deflate,sdch'}}>"
p62
sS'extension'
p63
S"'html'"
p64
sS'vars'
p65
S'<Storage {}>'
p66
sS'cid'
p67
S'None'
p68
sS'url'
p69
S'<gluon.html.XML object>'
p70
sg41
S'[]'
p71
sS'controller'
p72
S"'default'"
p73
sS'cookies'
p74
S"<SimpleCookie: session_id_admin='127-0-0-1-30657...'127-0-0-1-f66a923b-35d4-4221-bb69-65adf56edca3'>"
p75
sS'application'
p76
S"'blog'"
p77
sS'ajax'
p78
S'False'
p79
sS'client'
p80
S"'127.0.0.1'"
p81
sS'env'
p82
S"<Storage {'http_user_agent': 'Mozilla/5.0 (X11; ...ch', 'query_string': '', 'wsgi_run_once': False}>"
p83
sS'raw_args'
p84
S'None'
p85
sS'get_vars'
p86
S'<Storage {}>'
p87
sS'folder'
p88
S"'/home/j3nnn1/git/pyj3nnn1/web2py/applications/blog/'"
p89
sS'now'
p90
S'datetime.datetime(2010, 10, 24, 15, 53, 53, 154812)'
p91
sS'post_vars'
p92
S'<Storage {}>'
p93
ssS'frames'
p94
(lp95
(dp96
S'file'
p97
S'/home/j3nnn1/git/pyj3nnn1/web2py/gluon/restricted.py'
p98
sS'dump'
p99
(dp100
S'environment'
p101
S"{'A': <class 'gluon.html.A'>, 'Auth': <class 'gluon.tools.Auth'>, 'B': <class 'gluon.html.B'>, 'BEAUTIFY': <class 'gluon.html.BEAUTIFY'>, 'BODY': <class 'gluon.html.BODY'>, 'BR': <class 'gluon.html.BR'>, 'CENTER': <class 'gluon.html.CENTER'>, 'CLEANUP': <class 'gluon.validators.CLEANUP'>, 'CODE': <class 'gluon.html.CODE'>, 'CRYPT': <class 'gluon.validators.CRYPT'>, ...}"
p102
sS'ccode'
p103
S'<code object <module> at 0x9b09de8, file "/home/...plications/blog/controllers/default.py", line 11>'
p104
ssS'lnum'
p105
I188
sS'lines'
p106
(dp107
I192
S'        # XXX Show exception in Wing IDE if running in debugger'
p108
sI183
S'        if type(code) == types.CodeType:'
p109
sI184
S'            ccode = code'
p110
sI185
S'        else:'
p111
sI186
S'            ccode = compile2(code,layer)'
p112
sI187
S''
sI188
S'        exec ccode in environment'
p113
sI189
S'    except HTTP:'
p114
sI190
S'        raise'
p115
sI191
S'    except Exception:'
p116
ssS'call'
p117
S"(code='# -*- coding: utf-8 -*- \\n\\n######################...ervice()\\n\\nresponse._vars=response._caller(index)\\n', environment={'A': <class 'gluon.html.A'>, 'Auth': <class 'gluon.tools.Auth'>, 'B': <class 'gluon.html.B'>, 'BEAUTIFY': <class 'gluon.html.BEAUTIFY'>, 'BODY': <class 'gluon.html.BODY'>, 'BR': <class 'gluon.html.BR'>, 'CENTER': <class 'gluon.html.CENTER'>, 'CLEANUP': <class 'gluon.validators.CLEANUP'>, 'CODE': <class 'gluon.html.CODE'>, 'CRYPT': <class 'gluon.validators.CRYPT'>, ...}, layer='/home/j3nnn1/git/pyj3nnn1/web2py/applications/blog/controllers/default.py')"
p118
sS'func'
p119
S'restricted'
p120
sa(dp121
g97
S'/home/j3nnn1/git/pyj3nnn1/web2py/applications/blog/controllers/default.py'
p122
sg99
(dp123
sg105
I60
sg106
(dp124
I49
S''
sI50
S'def call():'
p125
sI51
S'    """'
p126
sI52
S'    exposes services. for example:'
p127
sI53
S'    http://..../[app]/default/call/jsonrpc'
p128
sI54
S'    decorate with @services.jsonrpc the functions to expose'
p129
sI55
S'    supports xml, json, xmlrpc, jsonrpc, amfrpc, rss, csv'
p130
sI56
S'    """'
p131
sI57
S'    session.forget()'
p132
sI58
S'    return service()'
p133
ssg117
S'()'
p134
sg119
S'<module>'
p135
sa(dp136
g97
S'/home/j3nnn1/git/pyj3nnn1/web2py/gluon/globals.py'
p137
sg99
(dp138
S'self'
p139
S'undefined'
p140
sS'f'
S'<function index>'
p141
ssg105
I96
sg106
(dp142
I96
S'        self._caller = lambda f: f()'
p143
sI97
S'        self._view_environment = None'
p144
sI98
S'        self._custom_commit = None'
p145
sI99
S'        self._custom_rollback = None'
p146
sI100
S''
sI91
S"        self.flash = ''           # used by the default view layout"
p147
sI92
S'        self.meta = Storage()     # used by web2py_ajax.html'
p148
sI93
S'        self.menu = []            # used by the default view layout'
p149
sI94
S'        self.files = []           # used by web2py_ajax.html'
p150
sI95
S'        self._vars = None'
p151
ssg117
S'(f=<function index>)'
p152
sg119
S'<lambda>'
p153
sa(dp154
g97
S'/home/j3nnn1/git/pyj3nnn1/web2py/applications/blog/controllers/default.py'
p155
sg99
(dp156
S'orderby'
p157
g140
sS'db.usuarios.usuario'
p158
S'<gluon.sql.Field object>'
p159
sS'db.articulos.titulo'
p160
S'<gluon.sql.Field object>'
p161
sS'fecha'
p162
g140
sS'usuario'
p163
g140
sS').select'
p164
g140
sS'filtro'
p165
S'<gluon.sql.Query object>'
p166
sS'db.articulos'
p167
S"<Table {'ALL': <gluon.sql.SQLALL object at 0x989...c>, 'id': <gluon.sql.Field object at 0x989fb6c>}>"
p168
sS'articulo'
p169
g140
sS'db.usuarios'
p170
S"<Table {'correo': <gluon.sql.Field object at 0x9...c>, 'id': <gluon.sql.Field object at 0x98baf8c>}>"
p171
sS'db.articulos.fecha'
p172
S'<gluon.sql.Field object>'
p173
sS'global db'
p174
S"<SQLDB {'auth_event': <Table {'origin': <gluon.s..., 'id': <gluon.sql.Field object at 0x9b329cc>}>}>"
p175
sS'titulo'
p176
g140
sS'post'
p177
g140
sS'db.articulos.articulo'
p178
S'<gluon.sql.Field object>'
p179
ssg105
I17
sg106
(dp180
I12
S'    """'
p181
sI13
S'    Esta vista va a obtener 3 post'
p182
sI14
S'    """'
p183
sI15
S'    # filter to join.'
p184
sI16
S'    filtro = (db.articulos.id_usuario==db.usuarios.id)'
p185
sI17
S'    post = db(filtro).select(db.articulos.titulo, titulo, db.articulos.fecha, fecha, db.articulos.articulo, articulo, db.usuarios.usuario, usuario, orderby=db.articulos.fecha)'
p186
sI18
S''
sI19
S'    return dict(post=post)'
p187
sI20
S''
sI21
S'def about():'
p188
ssg117
S'()'
p189
sg119
S'index'
p190
sasS'pyver'
p191
S'Python 2.6.6: /usr/bin/python'
p192
sS'session'
p193
(dp194
S'_formkey[articulos_create]'
p195
S"'0d82bc72-f674-45c1-8ba5-25f7fc51e6d9'"
p196
sS'auth'
p197
S'None'
p198
sS'last_orderby'
p199
S'None'
p200
sS'last_query'
p201
S"'db.articulos.id>0'"
p202
sS'_formkey[comentarios_create]'
p203
S"'76d6c20a-dac7-40ed-a905-102d82b363d6'"
p204
sS'_formkey[usuarios_create]'
p205
S"'1d1883ea-e00c-4bf8-8a71-efed38a78c06'"
p206
sS'_formkey[default]'
p207
S"'a1de23bf-1680-4a4f-b9de-957af6cc5cdf'"
p208
sS'_formkey[auth_user_create]'
p209
S"'8b18cc00-afac-4196-b603-cbe190e85c44'"
p210
ssS'etype'
p211
S"<type 'exceptions.NameError'>"
p212
sS'date'
p213
S'Sun Oct 24 15:53:54 2010'
p214
sS'response'
p215
(dp216
S'status'
p217
S'200'
p218
sg59
S'<cStringIO.StringO object>'
p219
sg74
S"<SimpleCookie: session_id_blog='127-0-0-1-c9e49980-0272-480c-b712-192f1f1b4547'>"
p220
sS'_vars'
p221
S'None'
p222
sS'title'
p223
S"'blog'"
p224
sS'session_file'
p225
S"<open file '/home/j3nnn1/git/pyj3nnn1/web2py/app...9e49980-0272-480c-b712-192f1f1b4547', mode 'rb+'>"
p226
sS'flash'
p227
S"''"
p228
sS'_custom_rollback'
p229
S'None'
p230
sS'session_id'
p231
S"'127-0-0-1-c9e49980-0272-480c-b712-192f1f1b4547'"
p232
sS'headers'
p233
S"<Storage {'Expires': 'dom, 24 oct 2010 20:23:53 ...he, must-revalidate, post-check=0, pre-check=0'}>"
p234
sS'meta'
p235
S"<Storage {'keywords': 'bla bla bla', 'description': 'describe your app', 'author': 'you'}>"
p236
sS'session_filename'
p237
S"'/home/j3nnn1/git/pyj3nnn1/web2py/applications/bl...ns/127-0-0-1-c9e49980-0272-480c-b712-192f1f1b4547'"
p238
sS'postprocessing'
p239
S'[]'
p240
sS'menu'
p241
S"[(<lazyT 'Index'>, False, <gluon.html.XML object>, []), (<lazyT 'Edit'>, False, <gluon.html.XML object>, [(<lazyT 'Controller'>, False, <gluon.html.XML object>), (<lazyT 'View'>, False, <gluon.html.XML object>), (<lazyT 'Layout'>, False, <gluon.html.XML object>), (<lazyT 'Stylesheet'>, False, <gluon.html.XML object>), (<lazyT 'DB Model'>, False, <gluon.html.XML object>), (<lazyT 'Menu Model'>, False, <gluon.html.XML object>), (<lazyT 'Database'>, False, <gluon.html.XML object>)])]"
p242
sS'_view_environment'
p243
S"{'A': <class 'gluon.html.A'>, 'Auth': <class 'gluon.tools.Auth'>, 'B': <class 'gluon.html.B'>, 'BEAUTIFY': <class 'gluon.html.BEAUTIFY'>, 'BODY': <class 'gluon.html.BODY'>, 'BR': <class 'gluon.html.BR'>, 'CENTER': <class 'gluon.html.CENTER'>, 'CLEANUP': <class 'gluon.validators.CLEANUP'>, 'CODE': <class 'gluon.html.CODE'>, 'CRYPT': <class 'gluon.validators.CRYPT'>, ...}"
p244
sS'subtitle'
p245
S"<lazyT 'customize me!'>"
p246
sS'session_id_name'
p247
S"'session_id_blog'"
p248
sS'_custom_commit'
p249
S'None'
p250
sS'_caller'
p251
S'<function <lambda>>'
p252
sS'files'
p253
S'[]'
p254
sS'view'
p255
S"'default/index.html'"
p256
ssS'locals'
p257
(dp258
S'filtro'
p259
S'<gluon.sql.Query object>'
p260
sssS'traceback'
p261
S'Traceback (most recent call last):\n  File "/home/j3nnn1/git/pyj3nnn1/web2py/gluon/restricted.py", line 188, in restricted\n    exec ccode in environment\n  File "/home/j3nnn1/git/pyj3nnn1/web2py/applications/blog/controllers/default.py", line 60, in <module>\n  File "/home/j3nnn1/git/pyj3nnn1/web2py/gluon/globals.py", line 96, in <lambda>\n    self._caller = lambda f: f()\n  File "/home/j3nnn1/git/pyj3nnn1/web2py/applications/blog/controllers/default.py", line 17, in index\n    post = db(filtro).select(db.articulos.titulo, titulo, db.articulos.fecha, fecha, db.articulos.articulo, articulo, db.usuarios.usuario, usuario, orderby=db.articulos.fecha)\nNameError: global name \'titulo\' is not defined\n'
p262
s.