(dp1
S'output'
p2
S''
sS'layer'
p3
S'/home/j3nnn1/git/pyj3nnn1/web2py/applications/blog/models/db.py'
p4
sS'code'
p5
S'# -*- coding: utf-8 -*- \n\n#########################################################################\n## This scaffolding model makes your app work on Google App Engine too\n#########################################################################\n\nif request.env.web2py_runtime_gae:            # if running on Google App Engine\n    db = DAL(\'gae\')                           # connect to Google BigTable\n    session.connect(request, response, db = db) # and store sessions and tickets there\n    ### or use the following lines to store sessions in Memcache\n    # from gluon.contrib.memdb import MEMDB\n    # from google.appengine.api.memcache import Client\n    # session.connect(request, response, db = MEMDB(Client()))\nelse:                                         # else use a normal relational database\n    db = DAL(\'sqlite://storage.sqlite\')       # if not, use SQLite or other DB\n## if no need for session\n# session.forget()\n\n#########################################################################\n## Here is sample code if you need for \n## - email capabilities\n## - authentication (registration, login, logout, ... )\n## - authorization (role based authorization)\n## - services (xml, csv, json, xmlrpc, jsonrpc, amf, rss)\n## - crud actions\n## (more options discussed in gluon/tools.py)\n#########################################################################\n\nfrom gluon.tools import *\nmail = Mail()                                  # mailer\nauth = Auth(globals(),db)                      # authentication/authorization\ncrud = Crud(globals(),db)                      # for CRUD helpers using auth\nservice = Service(globals())                   # for json, xml, jsonrpc, xmlrpc, amfrpc\nplugins = PluginManager()\n\nmail.settings.server = \'logging\' or \'smtp.gmail.com:587\'  # your SMTP server\nmail.settings.sender = \'you@gmail.com\'         # your email\nmail.settings.login = \'username:password\'      # your credentials or None\n\nauth.settings.hmac_key = \'sha512:f3d5ade2-9740-497b-92a8-a0d5169de496\'   # before define_tables()\nauth.define_tables()                           # creates all needed tables\nauth.settings.mailer = mail                    # for user email verification\nauth.settings.registration_requires_verification = False\nauth.settings.registration_requires_approval = False\nauth.messages.verify_email = \'Click on the link http://\'+request.env.http_host+URL(r=request,c=\'default\',f=\'user\',args=[\'verify_email\'])+\'/%(key)s to verify your email\'\nauth.settings.reset_password_requires_verification = True\nauth.messages.reset_password = \'Click on the link http://\'+request.env.http_host+URL(r=request,c=\'default\',f=\'user\',args=[\'reset_password\'])+\'/%(key)s to reset your password\'\n\n#########################################################################\n## If you need to use OpenID, Facebook, MySpace, Twitter, Linkedin, etc.\n## register with janrain.com, uncomment and customize following\n# from gluon.contrib.login_methods.rpx_account import RPXAccount\n# auth.settings.actions_disabled=[\'register\',\'change_password\',\'request_reset_password\']\n# auth.settings.login_form = RPXAccount(request, api_key=\'...\',domain=\'...\',\n#    url = "http://localhost:8000/%s/default/user/login" % request.application)\n## other login methods are in gluon/contrib/login_methods\n#########################################################################\n\ncrud.settings.auth = None                      # =auth to enforce authorization on crud\n\n#########################################################################\n## Define your tables below (or better in another model file) for example\n##\n## >>> db.define_table(\'mytable\',Field(\'myfield\',\'string\'))\n##\n## Fields can be \'string\',\'text\',\'password\',\'integer\',\'double\',\'boolean\'\n##       \'date\',\'time\',\'datetime\',\'blob\',\'upload\', \'reference TABLENAME\'\n## There is an implicit \'id integer autoincrement\' field\n## Consult manual for more options, validators, etc.\n##\n## More API examples for controllers:\n##\n## >>> db.mytable.insert(myfield=\'value\')\n## >>> rows=db(db.mytable.myfield==\'value\').select(db.mytable.ALL)\n## >>> for row in rows: print row.id, row.myfield\n#########################################################################\ndb.define_table(\'usuarios\',\n        Field(\'usuario\', readable=True, writable=True), \n        Field(\'password\', readable=True, writable=True),\n        Field(\'correo\', readable=False, writable=False, requires=IS_EMAIL()),\n        primarykey=[\'usuario\',\'correo\'])\n        \ndb.usuarios.usuario.requires = IS_NOT_IN_DB(db,\'usuarios.usuario\')\n\ndb.define_table(\'articulos\',\n        Field(\'titulo\',\'string\',length=255),\n        Field(\'articulo\',\'text\'),\n        Field(\'fecha\',\'datetime\', default=now),\n        Field(\'id_usuario\',db.usuarios, readable=False, writable=False))\n        \ndb.articulos.titulo.requires=IS_NOT_IN_DB(db, \'articulos.titulo\')\n\ndb.define_table(\'comentarios\',\n        Field(\'id_articulo\', db.articulos, readable=False, writable=False),\n        Field(\'titulo\'),\n        Field(\'comentario\', requires = IS_NOT_EMPTY()),\n        Field(\'nombre\', requires = IS_NOT_EMPTY()),\n        Field(\'correo\', requires = IS_EMAIL()),\n        Field(\'url\', required = False, requires=IS_URL()),\n        Field(\'fecha\',\'datetime\', default=now),\n        Field(\'visible\', \'boolean\'),format=\'%(nombre)s\')\n\n\ndb.define_table(\'etiquetas\',\n        Field(\'nombre\', requires=IS_NOT_EMPTY()))\n\n\ndb.define_table(\'etiquetas_articulos\', \n        Field(\'id_etiqueta\',db.etiquetas, readable=False, writable=False),      \n        Field(\'id_articulo\',db.articulos, readable=False, writable=False))\n'
p6
sS'snapshot'
p7
(dp8
S'exception'
p9
(dp10
S'__hash__'
p11
S"<method-wrapper '__hash__' of exceptions.NameError object>"
p12
sS'__setattr__'
p13
S"<method-wrapper '__setattr__' of exceptions.NameError object>"
p14
sS'__reduce_ex__'
p15
S'<built-in method __reduce_ex__ of exceptions.NameError object>'
p16
sS'__getslice__'
p17
S"<method-wrapper '__getslice__' of exceptions.NameError object>"
p18
sS'__getitem__'
p19
S"<method-wrapper '__getitem__' of exceptions.NameError object>"
p20
sS'__setstate__'
p21
S'<built-in method __setstate__ of exceptions.NameError object>'
p22
sS'__reduce__'
p23
S'<built-in method __reduce__ of exceptions.NameError object>'
p24
sS'__str__'
p25
S"<method-wrapper '__str__' of exceptions.NameError object>"
p26
sS'__format__'
p27
S'<built-in method __format__ of exceptions.NameError object>'
p28
sS'__getattribute__'
p29
S"<method-wrapper '__getattribute__' of exceptions.NameError object>"
p30
sS'__class__'
p31
S"<type 'exceptions.NameError'>"
p32
sS'__unicode__'
p33
S'<built-in method __unicode__ of exceptions.NameError object>'
p34
sS'__delattr__'
p35
S"<method-wrapper '__delattr__' of exceptions.NameError object>"
p36
sS'__subclasshook__'
p37
S'<built-in method __subclasshook__ of type object>'
p38
sS'__repr__'
p39
S"<method-wrapper '__repr__' of exceptions.NameError object>"
p40
sS'args'
p41
S'("name \'now\' is not defined",)'
p42
sS'__dict__'
p43
S'{}'
p44
sS'__sizeof__'
p45
S'<built-in method __sizeof__ of exceptions.NameError object>'
p46
sS'__doc__'
p47
S"'Name not found globally.'"
p48
sS'__init__'
p49
S"<method-wrapper '__init__' of exceptions.NameError object>"
p50
sS'__new__'
p51
S'<built-in method __new__ of type object>'
p52
ssS'evalue'
p53
S"name 'now' is not defined"
p54
sS'request'
p55
(dp56
S'function'
p57
S"'index'"
p58
sS'body'
p59
S'<cStringIO.StringO object>'
p60
sS'wsgi'
p61
S"<Storage {'start_response': <function <lambda> a...>, 'HTTP_ACCEPT_ENCODING': 'gzip,deflate,sdch'}}>"
p62
sS'extension'
p63
S"'html'"
p64
sS'vars'
p65
S'<Storage {}>'
p66
sS'cid'
p67
S'None'
p68
sS'url'
p69
S'<gluon.html.XML object>'
p70
sg41
S'[]'
p71
sS'controller'
p72
S"'appadmin'"
p73
sS'cookies'
p74
S"<SimpleCookie: session_id_admin='127-0-0-1-30657...'127-0-0-1-f66a923b-35d4-4221-bb69-65adf56edca3'>"
p75
sS'application'
p76
S"'blog'"
p77
sS'ajax'
p78
S'False'
p79
sS'client'
p80
S"'127.0.0.1'"
p81
sS'env'
p82
S"<Storage {'http_user_agent': 'Mozilla/5.0 (X11; ...ce': False, 'path_info': '/blog/appadmin/index'}>"
p83
sS'raw_args'
p84
S'None'
p85
sS'get_vars'
p86
S'<Storage {}>'
p87
sS'folder'
p88
S"'/home/j3nnn1/git/pyj3nnn1/web2py/applications/blog/'"
p89
sS'now'
p90
S'datetime.datetime(2010, 10, 24, 10, 42, 52, 667039)'
p91
sS'post_vars'
p92
S'<Storage {}>'
p93
ssS'frames'
p94
(lp95
(dp96
S'file'
p97
S'/home/j3nnn1/git/pyj3nnn1/web2py/gluon/restricted.py'
p98
sS'dump'
p99
(dp100
S'environment'
p101
S"{'A': <class 'gluon.html.A'>, 'Auth': <class 'gluon.tools.Auth'>, 'B': <class 'gluon.html.B'>, 'BEAUTIFY': <class 'gluon.html.BEAUTIFY'>, 'BODY': <class 'gluon.html.BODY'>, 'BR': <class 'gluon.html.BR'>, 'CENTER': <class 'gluon.html.CENTER'>, 'CLEANUP': <class 'gluon.validators.CLEANUP'>, 'CODE': <class 'gluon.html.CODE'>, 'CRYPT': <class 'gluon.validators.CRYPT'>, ...}"
p102
sS'ccode'
p103
S'<code object <module> at 0xaee58ad0, file "/home...1/web2py/applications/blog/models/db.py", line 7>'
p104
ssS'lnum'
p105
I188
sS'lines'
p106
(dp107
I192
S'        # XXX Show exception in Wing IDE if running in debugger'
p108
sI183
S'        if type(code) == types.CodeType:'
p109
sI184
S'            ccode = code'
p110
sI185
S'        else:'
p111
sI186
S'            ccode = compile2(code,layer)'
p112
sI187
S''
sI188
S'        exec ccode in environment'
p113
sI189
S'    except HTTP:'
p114
sI190
S'        raise'
p115
sI191
S'    except Exception:'
p116
ssS'call'
p117
S'(code="# -*- coding: utf-8 -*- \\n\\n######################...\',db.articulos, readable=False, writable=False))\\n", environment={\'A\': <class \'gluon.html.A\'>, \'Auth\': <class \'gluon.tools.Auth\'>, \'B\': <class \'gluon.html.B\'>, \'BEAUTIFY\': <class \'gluon.html.BEAUTIFY\'>, \'BODY\': <class \'gluon.html.BODY\'>, \'BR\': <class \'gluon.html.BR\'>, \'CENTER\': <class \'gluon.html.CENTER\'>, \'CLEANUP\': <class \'gluon.validators.CLEANUP\'>, \'CODE\': <class \'gluon.html.CODE\'>, \'CRYPT\': <class \'gluon.validators.CRYPT\'>, ...}, layer=\'/home/j3nnn1/git/pyj3nnn1/web2py/applications/blog/models/db.py\')'
p118
sS'func'
p119
S'restricted'
p120
sa(dp121
g97
S'/home/j3nnn1/git/pyj3nnn1/web2py/applications/blog/models/db.py'
p122
sg99
(dp123
S'default'
p124
S'undefined'
p125
sS'Field'
p126
S"<class 'gluon.sql.Field'>"
p127
sS'now'
p128
g125
ssg105
I88
sg106
(dp129
I83
S"db.usuarios.usuario.requires = IS_NOT_IN_DB(db,'usuarios.usuario')"
p130
sI84
S''
sI85
S"db.define_table('articulos',"
p131
sI86
S"        Field('titulo','string',length=255),"
p132
sI87
S"        Field('articulo','text'),"
p133
sI88
S"        Field('fecha','datetime', default=now),"
p134
sI89
S"        Field('id_usuario',db.usuarios, readable=False, writable=False))"
p135
sI90
S''
sI91
S"db.articulos.titulo.requires=IS_NOT_IN_DB(db, 'articulos.titulo')"
p136
sI92
S''
ssg117
S'()'
p137
sg119
S'<module>'
p138
sasS'pyver'
p139
S'Python 2.6.6: /usr/bin/python'
p140
sS'session'
p141
(dp142
S'auth'
p143
S'None'
p144
ssS'etype'
p145
S"<type 'exceptions.NameError'>"
p146
sS'date'
p147
S'Sun Oct 24 10:42:52 2010'
p148
sS'response'
p149
(dp150
S'status'
p151
S'200'
p152
sg59
S'<cStringIO.StringO object>'
p153
sg74
S"<SimpleCookie: session_id_blog='127-0-0-1-c9e49980-0272-480c-b712-192f1f1b4547'>"
p154
sS'_vars'
p155
S'None'
p156
sS'session_file'
p157
S"<open file '/home/j3nnn1/git/pyj3nnn1/web2py/app...9e49980-0272-480c-b712-192f1f1b4547', mode 'rb+'>"
p158
sS'flash'
p159
S"''"
p160
sS'_custom_rollback'
p161
S'None'
p162
sS'session_id'
p163
S"'127-0-0-1-c9e49980-0272-480c-b712-192f1f1b4547'"
p164
sS'headers'
p165
S"<Storage {'Expires': 'Sun, 24 Oct 2010 15:12:52 ...he, must-revalidate, post-check=0, pre-check=0'}>"
p166
sS'meta'
p167
S'<Storage {}>'
p168
sS'session_filename'
p169
S"'/home/j3nnn1/git/pyj3nnn1/web2py/applications/bl...ns/127-0-0-1-c9e49980-0272-480c-b712-192f1f1b4547'"
p170
sS'postprocessing'
p171
S'[]'
p172
sS'menu'
p173
S'[]'
p174
sS'_view_environment'
p175
S"{'A': <class 'gluon.html.A'>, 'B': <class 'gluon.html.B'>, 'BEAUTIFY': <class 'gluon.html.BEAUTIFY'>, 'BODY': <class 'gluon.html.BODY'>, 'BR': <class 'gluon.html.BR'>, 'CENTER': <class 'gluon.html.CENTER'>, 'CLEANUP': <class 'gluon.validators.CLEANUP'>, 'CODE': <class 'gluon.html.CODE'>, 'CRYPT': <class 'gluon.validators.CRYPT'>, 'DAL': <function DAL>, ...}"
p176
sS'session_id_name'
p177
S"'session_id_blog'"
p178
sS'_custom_commit'
p179
S'None'
p180
sS'_caller'
p181
S'<function <lambda>>'
p182
sS'files'
p183
S'[]'
p184
sS'view'
p185
S"'appadmin/index.html'"
p186
ssS'locals'
p187
(dp188
S'Service'
p189
S'<class gluon.tools.Service>'
p190
sS'OBJECT'
p191
S"<class 'gluon.html.OBJECT'>"
p192
sS'SQLDB'
p193
S"<class 'gluon.sql.SQLDB'>"
p194
sg141
S"<Storage {'auth': None}>"
p195
sS'LINK'
p196
S"<class 'gluon.html.LINK'>"
p197
sS'BR'
p198
S"<class 'gluon.html.BR'>"
p199
sS'local_import'
p200
S'<function <lambda>>'
p201
sS'OPTGROUP'
p202
S"<class 'gluon.html.OPTGROUP'>"
p203
sS'PRE'
p204
S"<class 'gluon.html.PRE'>"
p205
sS'IS_INT_IN_RANGE'
p206
S"<class 'gluon.validators.IS_INT_IN_RANGE'>"
p207
sS'IS_LOWER'
p208
S"<class 'gluon.validators.IS_LOWER'>"
p209
sS'IS_STRONG'
p210
S"<class 'gluon.validators.IS_STRONG'>"
p211
sS'Recaptcha'
p212
S"<class 'gluon.tools.Recaptcha'>"
p213
sS'cache'
p214
S'<gluon.cache.Cache object>'
p215
sS'IS_IN_DB'
p216
S"<class 'gluon.validators.IS_IN_DB'>"
p217
sS'TAG'
p218
S'<gluon.html.__TAG__ object>'
p219
sS'SQLField'
p220
S"<class 'gluon.sql.Field'>"
p221
sS'mail'
p222
S'<gluon.tools.Mail object>'
p223
sS'BODY'
p224
S"<class 'gluon.html.BODY'>"
p225
sS'IS_DATE_IN_RANGE'
p226
S"<class 'gluon.validators.IS_DATE_IN_RANGE'>"
p227
sS'IFRAME'
p228
S"<class 'gluon.html.IFRAME'>"
p229
sS'URL'
p230
S'<function _URL>'
p231
sS'db'
p232
S"<SQLDB {'_connection': <pysqlite2.dbapi2.Connect...ql.log', 'virtualfields': []}>, '_pool_size': 0}>"
p233
sS'auth'
p234
S'<gluon.tools.Auth object>'
p235
sS'P'
S"<class 'gluon.html.P'>"
p236
sS'TFOOT'
p237
S"<class 'gluon.html.TFOOT'>"
p238
sS'XHTML'
p239
S"<class 'gluon.html.XHTML'>"
p240
sS'ON'
p241
S'True'
p242
sS'OL'
p243
S"<class 'gluon.html.OL'>"
p244
sS'TEXTAREA'
p245
S"<class 'gluon.html.TEXTAREA'>"
p246
sS'MENU'
p247
S"<class 'gluon.html.MENU'>"
p248
sS'EM'
p249
S"<class 'gluon.html.EM'>"
p250
sS'CODE'
p251
S"<class 'gluon.html.CODE'>"
p252
sS'HTTP'
p253
S"<class 'gluon.http.HTTP'>"
p254
sS'HR'
p255
S"<class 'gluon.html.HR'>"
p256
sS'IS_DATETIME'
p257
S"<class 'gluon.validators.IS_DATETIME'>"
p258
sS'STYLE'
p259
S"<class 'gluon.html.STYLE'>"
p260
sS'LABEL'
p261
S"<class 'gluon.html.LABEL'>"
p262
sS'CLEANUP'
p263
S"<class 'gluon.validators.CLEANUP'>"
p264
sS'plugins'
p265
S'<gluon.tools.PluginManager object>'
p266
sS'SELECT'
p267
S"<class 'gluon.html.SELECT'>"
p268
sS'CENTER'
p269
S"<class 'gluon.html.CENTER'>"
p270
sS'prettydate'
p271
S'<function prettydate>'
p272
sS'Crud'
p273
S"<class 'gluon.tools.Crud'>"
p274
sS'Auth'
p275
S"<class 'gluon.tools.Auth'>"
p276
sS'__builtins__'
p277
S"{'ArithmeticError': <type 'exceptions.ArithmeticError'>, 'AssertionError': <type 'exceptions.AssertionError'>, 'AttributeError': <type 'exceptions.AttributeError'>, 'BaseException': <type 'exceptions.BaseException'>, 'BufferError': <type 'exceptions.BufferError'>, 'BytesWarning': <type 'exceptions.BytesWarning'>, 'DeprecationWarning': <type 'exceptions.DeprecationWarning'>, 'EOFError': <type 'exceptions.EOFError'>, 'Ellipsis': Ellipsis, 'EnvironmentError': <type 'exceptions.EnvironmentError'>, ...}"
p278
sS'IS_LIST_OF'
p279
S"<class 'gluon.validators.IS_LIST_OF'>"
p280
sS'SQLFORM'
p281
S"<class 'gluon.sqlhtml.SQLFORM'>"
p282
sS'LOAD'
p283
S'<gluon.compileapp.LoadFactory instance>'
p284
sS'redirect'
p285
S'<function redirect>'
p286
sS'FIELDSET'
p287
S"<class 'gluon.html.FIELDSET'>"
p288
sS'IS_EQUAL_TO'
p289
S"<class 'gluon.validators.IS_EQUAL_TO'>"
p290
sS'embed64'
p291
S'<function embed64>'
p292
sS'INPUT'
p293
S"<class 'gluon.html.INPUT'>"
p294
sS'EMBED'
p295
S"<class 'gluon.html.EMBED'>"
p296
sS'FORM'
p297
S"<class 'gluon.html.FORM'>"
p298
sS'H2'
p299
S"<class 'gluon.html.H2'>"
p300
sS'H3'
p301
S"<class 'gluon.html.H3'>"
p302
sS'H1'
p303
S"<class 'gluon.html.H1'>"
p304
sS'H6'
p305
S"<class 'gluon.html.H6'>"
p306
sS'H4'
p307
S"<class 'gluon.html.H4'>"
p308
sS'H5'
p309
S"<class 'gluon.html.H5'>"
p310
sS'UL'
p311
S"<class 'gluon.html.UL'>"
p312
sS'IS_UPPER'
p313
S"<class 'gluon.validators.IS_UPPER'>"
p314
sS'xmlescape'
p315
S'<function xmlescape>'
p316
sS'IS_TIME'
p317
S"<class 'gluon.validators.IS_TIME'>"
p318
sS'OPTION'
p319
S"<class 'gluon.html.OPTION'>"
p320
sS'TITLE'
p321
S"<class 'gluon.html.TITLE'>"
p322
sS'CRYPT'
p323
S"<class 'gluon.validators.CRYPT'>"
p324
sS'IS_EMPTY_OR'
p325
S"<class 'gluon.validators.IS_EMPTY_OR'>"
p326
sS'MARKMIN'
p327
S"<class 'gluon.html.MARKMIN'>"
p328
sS'service'
p329
S'<gluon.tools.Service instance>'
p330
sS'SCRIPT'
p331
S"<class 'gluon.html.SCRIPT'>"
p332
sS'geocode'
p333
S'<function geocode>'
p334
sS'TABLE'
p335
S"<class 'gluon.html.TABLE'>"
p336
sS'IS_IPV4'
p337
S"<class 'gluon.validators.IS_IPV4'>"
p338
sS'IS_LENGTH'
p339
S"<class 'gluon.validators.IS_LENGTH'>"
p340
sS'XML'
p341
S"<class 'gluon.html.XML'>"
p342
sS'B'
S"<class 'gluon.html.B'>"
p343
sS'IMG'
p344
S"<class 'gluon.html.IMG'>"
p345
sS'SQLTABLE'
p346
S"<class 'gluon.sqlhtml.SQLTABLE'>"
p347
sS'IS_MATCH'
p348
S"<class 'gluon.validators.IS_MATCH'>"
p349
sS'IS_ALPHANUMERIC'
p350
S"<class 'gluon.validators.IS_ALPHANUMERIC'>"
p351
sS'SPAN'
p352
S"<class 'gluon.html.SPAN'>"
p353
sS'IS_SLUG'
p354
S"<class 'gluon.validators.IS_SLUG'>"
p355
sS'META'
p356
S"<class 'gluon.html.META'>"
p357
sS'fetch'
p358
S'<function fetch>'
p359
sS'IS_DATE'
p360
S"<class 'gluon.validators.IS_DATE'>"
p361
sS'IS_EMAIL'
p362
S"<class 'gluon.validators.IS_EMAIL'>"
p363
sS'IS_NOT_EMPTY'
p364
S"<class 'gluon.validators.IS_NOT_EMPTY'>"
p365
sS'IS_FLOAT_IN_RANGE'
p366
S"<class 'gluon.validators.IS_FLOAT_IN_RANGE'>"
p367
sS'BEAUTIFY'
p368
S"<class 'gluon.html.BEAUTIFY'>"
p369
sS'TBODY'
p370
S"<class 'gluon.html.TBODY'>"
p371
sS'Field'
p372
S"<class 'gluon.sql.Field'>"
p373
sS'Mail'
p374
S"<class 'gluon.tools.Mail'>"
p375
sS'DIV'
p376
S"<class 'gluon.html.DIV'>"
p377
sS'LEGEND'
p378
S"<class 'gluon.html.LEGEND'>"
p379
sS'DAL'
p380
S'<function DAL>'
p381
sS'TT'
p382
S"<class 'gluon.html.TT'>"
p383
sS'TR'
p384
S"<class 'gluon.html.TR'>"
p385
sS'LI'
p386
S"<class 'gluon.html.LI'>"
p387
sS'TH'
p388
S"<class 'gluon.html.TH'>"
p389
sS'TD'
p390
S"<class 'gluon.html.TD'>"
p391
sS'PluginManager'
p392
S"<class 'gluon.tools.PluginManager'>"
p393
sS'IS_URL'
p394
S"<class 'gluon.validators.IS_URL'>"
p395
sS'A'
S"<class 'gluon.html.A'>"
p396
sS'HEAD'
p397
S"<class 'gluon.html.HEAD'>"
p398
sS'IS_DATETIME_IN_RANGE'
p399
S"<class 'gluon.validators.IS_DATETIME_IN_RANGE'>"
p400
sS'HTML'
p401
S"<class 'gluon.html.HTML'>"
p402
sS'IS_IMAGE'
p403
S"<class 'gluon.validators.IS_IMAGE'>"
p404
sS'I'
S"<class 'gluon.html.I'>"
p405
sS'crud'
p406
S'<gluon.tools.Crud object>'
p407
sS'IS_NOT_IN_DB'
p408
S"<class 'gluon.validators.IS_NOT_IN_DB'>"
p409
sg149
S"<Storage {'status': 200, 'body': <cStringIO.Stri...t': None, 'files': [], '_custom_rollback': None}>"
p410
sS'THEAD'
p411
S"<class 'gluon.html.THEAD'>"
p412
sS'IS_NULL_OR'
p413
S"<class 'gluon.validators.IS_EMPTY_OR'>"
p414
sg55
S"<Storage {'function': 'index', 'body': <cStringI... 10, 42, 52, 667039), 'post_vars': <Storage {}>}>"
p415
sS'IS_EXPR'
p416
S"<class 'gluon.validators.IS_EXPR'>"
p417
sS'IS_IN_SET'
p418
S"<class 'gluon.validators.IS_IN_SET'>"
p419
sS'IS_UPLOAD_FILENAME'
p420
S"<class 'gluon.validators.IS_UPLOAD_FILENAME'>"
p421
sS'IS_DECIMAL_IN_RANGE'
p422
S"<class 'gluon.validators.IS_DECIMAL_IN_RANGE'>"
p423
sS'T'
S'<gluon.languages.translator object>'
p424
sssS'traceback'
p425
S'Traceback (most recent call last):\n  File "/home/j3nnn1/git/pyj3nnn1/web2py/gluon/restricted.py", line 188, in restricted\n    exec ccode in environment\n  File "/home/j3nnn1/git/pyj3nnn1/web2py/applications/blog/models/db.py", line 88, in <module>\n    Field(\'fecha\',\'datetime\', default=now),\nNameError: name \'now\' is not defined\n'
p426
s.