(dp1
S'output'
p2
S''
sS'layer'
p3
S'/cygdrive/e/Documents and Settings/jmaldo03/git/pyj3nnn1/pyj3nnn1/web2py/applications/blog/views/default/admin.html'
p4
sS'code'
p5
S'response.write(\'<!DOCTYPE html PUBLIC "-//W3C//DTD XHTML 1.0 Strict//EN" "http://www.w3.org/TR/xhtml1/DTD/xhtml1-strict.dtd">\\n<!--\\nDesign by Free CSS Templates\\nhttp://www.freecsstemplates.org\\nReleased for free under a Creative Commons Attribution 2.5 License\\n\\nName       : Blogging\\nDescription: A two-column, fixed-width design for 1024x768 screen resolutions.\\nVersion    : 1.0\\nReleased   : 20090208\\n\\n-->\\n<html xmlns="http://www.w3.org/1999/xhtml">\\n <head>\\n  <title>\\n   \', escape=False)\nresponse.write(response.title or request.application)\nresponse.write(\'\\n  </title>\\n  \', escape=False)\nresponse.files.append(URL(request.application,\'static\',\'plugin_layouts/layouts/Blogging/style.css\'))\nresponse.write(\'\\n\', escape=False)\nresponse.files.append(URL(\'static\',\'superfish.js\'))\nresponse.write(\'\\n  \', escape=False)\nresponse.files.insert(0,URL(r=request,c=\'static\',f=\'jquery.js\'))\nresponse.files.insert(1,URL(r=request,c=\'static\',f=\'calendar.css\'))\nresponse.files.insert(2,URL(r=request,c=\'static\',f=\'calendar.js\'))\nfor _item in response.meta or []:\n    response.write(\'\\n     <meta name="\', escape=False)\n    response.write(_item)\n    response.write(\'" content="\', escape=False)\n    response.write(response.meta[_item])\n    response.write(\'" />\', escape=False)\n    pass\nfor _k,_file in enumerate(response.files or []):\n    if _file in response.files[:_k]:\n        continue\n    elif _file.lower().endswith(\'.css\'):\n        response.write(\'\\n     <link href="\', escape=False)\n        response.write(_file)\n        response.write(\'" rel="stylesheet" type="text/css" />\', escape=False)\n    elif _file.lower().endswith(\'.js\'):\n        response.write(\'\\n     <script src="\', escape=False)\n        response.write(_file)\n        response.write(\'" type="text/javascript"></script>\', escape=False)\n        pass\n    pass\nresponse.write(\'\\n<script type="text/javascript"><!--\\nfunction popup(url) {\\n  newwindow=window.open(url,\\\'name\\\',\\\'height=400,width=600\\\');\\n  if (window.focus) newwindow.focus();\\n  return false;\\n}\\nfunction collapse(id) { jQuery(\\\'#\\\'+id).slideToggle(); }\\nfunction fade(id,value) { if(value>0) jQuery(\\\'#\\\'+id).hide().fadeIn(\\\'slow\\\'); else jQuery(\\\'#\\\'+id).show().fadeOut(\\\'slow\\\'); }\\nfunction ajax(u,s,t) {\\n    query = \\\'\\\';\\n    if (typeof s == "string") {\\n        d = jQuery(s).serialize();\\n        if(d){ query = d; }\\n    } else {\\n        pcs = [];\\n        for(i=0; i<s.length; i++) {\\n            q = jQuery("[name="+s[i]+"]").serialize();\\n            if(q){pcs.push(q);}\\n        }\\n        if (pcs.length>0){query = pcs.join("&");}\\n    }\\n    jQuery.ajax({type: "POST", url: u, data: query, success: function(msg) { if(t) { if(t==\\\':eval\\\') eval(msg); else jQuery("#" + t).html(msg); } } }); \\n}\\nString.prototype.reverse = function () { return this.split(\\\'\\\').reverse().join(\\\'\\\');};\\nfunction web2py_ajax_init() {\\n  jQuery(\\\'.hidden\\\').hide();\\n  jQuery(\\\'.error\\\').hide().slideDown(\\\'slow\\\');\\n  jQuery(\\\'.flash\\\').click(function() { jQuery(this).fadeOut(\\\'slow\\\'); return false; });\\n  jQuery(\\\'input[type=submit]\\\').click(function(){var t=jQuery(this);t.hide();t.after(\\\'<input class="submit_disabled" disabled="disabled" type="submit" name="\\\'+t.attr("name")+\\\'_dummy" value="\\\'+t.val()+\\\'">\\\')});\\n  jQuery(\\\'input.integer\\\').keyup(function(){this.value=this.value.reverse().replace(/[^0-9\\\\-]|\\\\-(?=.)/g,\\\'\\\').reverse();});\\n  jQuery(\\\'input.double,input.decimal\\\').keyup(function(){this.value=this.value.reverse().replace(/[^0-9\\\\-\\\\.]|[\\\\-](?=.)|[\\\\.](?=[0-9]*[\\\\.])/g,\\\'\\\').reverse();});\\n  jQuery("input[type=\\\'checkbox\\\'].delete").each(function(){jQuery(this).click(function() { if(this.checked) if(!confirm("\', escape=False)\nresponse.write(T(\'Sure you want to delete this object?\'))\nresponse.write(\'")) this.checked=false; });});\\n  try {jQuery("input.date").focus( function() {Calendar.setup({\\n     inputField:this.id, ifFormat:"\', escape=False)\nresponse.write(T(\'%Y-%m-%d\'))\nresponse.write(\'", showsTime:false\\n  }); }); } catch(e) {};\\n  try { jQuery("input.datetime").focus( function() {Calendar.setup({\\n     inputField:this.id, ifFormat:"\', escape=False)\nresponse.write(T(\'%Y-%m-%d %H:%M:%S\'))\nresponse.write(\'", showsTime: true,timeFormat: "24"\\n  }); }); } catch(e) {};\\n  try { jQuery("input.time").clockpick({\\n      starthour:0, endhour:23, showminutes:true, military:true\\n  }); } catch(e) {};\\n};\\njQuery(document).ready(function(){\\n   jQuery(\\\'.flash\\\').hide();\\n   if(jQuery(\\\'.flash\\\').html()!=\\\'\\\') jQuery(\\\'.flash\\\').slideDown(\\\'slow\\\');\\n   web2py_ajax_init();});\\n\\nfunction web2py_trap_form(action,target) {\\n   jQuery(\\\'#\\\'+target+\\\' form\\\').each(function(i){\\n      var form=jQuery(this);\\n      if(!form.hasClass(\\\'no_trap\\\'))\\n        form.submit(function(obj){\\n         jQuery(\\\'.flash\\\').hide().html(\\\'\\\');\\n         web2py_ajax_page(\\\'post\\\',action,form.serialize(),target);\\n         return false;\\n      });\\n   });\\n}\\n\\nfunction web2py_ajax_page(method,action,data,target) {\\n  jQuery.ajax({\\\'type\\\':method,\\\'url\\\':action,\\\'data\\\':data,\\n    \\\'beforeSend\\\':function(xhr) {\\n      xhr.setRequestHeader(\\\'web2py-component-location\\\',document.location);\\n      xhr.setRequestHeader(\\\'web2py-component-element\\\',target);},\\n    \\\'complete\\\':function(xhr,text){\\n      var html=xhr.responseText;\\n      var content=xhr.getResponseHeader(\\\'web2py-component-content\\\'); \\n      var command=xhr.getResponseHeader(\\\'web2py-component-command\\\');\\n      var flash=xhr.getResponseHeader(\\\'web2py-component-flash\\\');\\n      var t = jQuery(\\\'#\\\'+target);\\n      if(content==\\\'prepend\\\') t.prepend(html); \\n      else if(content==\\\'append\\\') t.append(html);\\n      else if(content!=\\\'hide\\\') t.html(html);  \\n      web2py_trap_form(action,target);\\n      web2py_ajax_init();      \\n      if(command) eval(command);\\n      if(flash) jQuery(\\\'.flash\\\').html(flash).slideDown();\\n      }\\n    });\\n}\\nfunction web2py_component(action,target) {\\n    jQuery(document).ready(function(){ web2py_ajax_page(\\\'get\\\',action,null,target); });\\n}\\n//--></script>\\n\', escape=False)\nresponse.write(\'\\n  <style>\\nul.web2py-menu-vertical { width: 150px; position: relative; top:1em; left:1em;  z-index:30; border:0; margin:0; padding: 0; list-style: none; text-decoration: none;}\\nul.web2py-menu-vertical li { margin:0; padding:0; border:0; width: 150px; background: black; text-align:left;}\\nul.web2py-menu-vertical li a { margin:0; padding: 1px 3px 1px 3px; border:0; width: 144px; color: white; font-size:12px;}\\ndiv.flash { position: fixed; float: right; padding: 10px; top: 10px; right: 30px; opacity: 0.75; margin: 10px 10px 10px 10px; text-align: center; clear: both; color: #fff; font-size: 11pt; text-align: center; vertical-align: middle; cursor: pointer; background: black; border: 2px solid #fff; -moz-border-radius: 5px; -webkit-border-radius: 5px; z-index: 2; }\\ndiv.error { background-color: red; color: white; padding: 3px; }\\n.auth_navbar { text-align:right; z-index:20; position: absolute; top: 2px; right:30px; border:0; padding:0 }\\n  </style>\\n </head>\\n <body>\\n  <!-- start header -->\\n  \', escape=False)\ntry:\n    response.write(auth.navbar(action=URL(\'default\',\'user\')))\nexcept:pass\nresponse.write(\'\\n\\n  <div id="wrapper">\\n   <div id="header">\\n    <div id="menu">\\n     \', escape=False)\nresponse.write(MENU(response.menu,_class=\'web2py-menu\'))\nresponse.write(\'\\n    <script>\\n      jQuery(document).ready(function(){jQuery(\\\'ul.web2py-menu\\\').superfish({delay:400});});\\n    </script>\\n    </div>\\n    <!-- end #menu -->\\n    <div id="search">\\n     <form method="get" action="">\\n      <fieldset>\\n       <input type="text" name="s" id="search-text" size="15" />\\n       <input type="submit" id="search-submit" value="Search" />\\n      </fieldset>\\n     </form>\\n    </div>\\n    <!-- end #search -->\\n   </div>\\n   <!-- end #header -->\\n   <div id="logo">\\n    <h1>\\n     \', escape=False)\nresponse.write(response.title or request.application)\nresponse.write(\'\\n    </h1>\\n    <p>\\n     <em>\\n      template design by\\n      <a href="#">\\n       Expropiada Templates\\n      </a>\\n     </em>\\n    </p>\\n   </div>\\n   <hr />\\n   <!-- end #logo -->\\n   <!-- end #header-wrapper -->\\n   <div id="page">\\n    <div id="content">\\n     <div class="flash">\', escape=False)\nresponse.write(response.flash or \'\')\nresponse.write(\'</div>\\n     \', escape=False)\nresponse.write(" \\n<div class=\'content\'>\\n    <ul>\\n        <li> ", escape=False)\nresponse.write(H3(A(T("Crear nueva entrada"), _class=\'link\', _href=\'createpost\'), _class=\'title\'))\nresponse.write(\' </li>\\n\\t<li> \', escape=False)\nresponse.write(H3(A(T("Modificar o Eliminar Entrada"), _class=\'link\'), _class=\'title\'))\nresponse.write(\'</li>\\n    </ul>\\n\', escape=False)\n#=tableart\nresponse.write("\\n<table class=\'adminpost\' border=\'1\' align=\'center\'>\\n<tr>\\n    <th>\\n\\t", escape=False)\nresponse.write(T("T\xc3\xadtulo"))\nresponse.write(\'\\n    </th>\\n    <th>\\n\\t\', escape=False)\nresponse.write(T("Fecha de Creaci\xc3\xb3n"))\nresponse.write(\'\\n    </th>\\n    <th colspan=2>\\n\\t\', escape=False)\nresponse.write(T("Acciones"))\nresponse.write(\'\\n    </th>\\n</tr>\\n\', escape=False)\nfor registro in tableart:\n    response.write(\'\\n    <tr>\\n\\t<td>\\n\\t    \', escape=False)\n    response.write(T(registro.articulos.titulo))\n    response.write(\'\\n\\t</td>\\n\\t<td>\\n\\t    \', escape=False)\n    response.write(registro.articulos.fecha)\n    response.write(\'\\n\\t</td>\\n\\t<td>\\n\\t    \', escape=False)\n    response.write(A(T("Modicar Post"), _href=URL(\'modifypost\', arg=registro.articulos.id), _class=\'link\'))\n    response.write(\'\\n\\t    \', escape=False)\n    response.write(registro.articulos.id)\n    response.write(\'\\n\\t</td>\\n\\t<td>\\n\\t    \', escape=False)\n    response.write(A(T("Eliminar Post"), _href=URL(\'deletepost\', arg=registro.articulos.id), _class=\'link\'))\n    response.write(\'\\n\\t</td>\\n\', escape=False)\n    pass\nresponse.write(\'\\n    </tr>\\n</table>\\n</div>\\n\\n\', escape=False)\nresponse.write(\'\\n    </div>\\n    <!-- end #content -->\\n    <div id="sidebar">\\n     <ul>\\n      <li>\\n       <h2> Twitter Busqueda: perl</h2>\\n       <p>\\n        Mauris vitae nisl nec metus placerat perdiet est. Phasellus dapibus semper urna. Pellentesque ornare, orci in consectetuer hendrerit, volutpat.\\n       </p>\\n      </li>\\n      <li>\\n       <h2>\\n        Twitter Busqueda: python\\n       </h2>\\n       <ul>\\n        <li>\\n         <a href="#">\\n         </a>\\n         <a href="#">\\n          Nec metus sed donec\\n         </a>\\n        </li>\\n        <li>\\n         <a href="#">\\n          Magna lacus bibendum mauris\\n         </a>\\n        </li>\\n        <li>\\n         <a href="#">\\n          Velit semper nisi molestie\\n         </a>\\n        </li>\\n        <li>\\n         <a href="#">\\n          Eget tempor eget nonummy\\n         </a>\\n        </li>\\n        <li>\\n         <a href="#">\\n          Nec metus sed donec\\n         </a>\\n        </li>\\n       </ul>\\n      </li>\\n     </ul>\\n     <ul>\\n     <li>\\n       <h2>\\n        Mi Twitter\\n       </h2>\\n       <p> aca va twitter </p>\\n      </li>\\n     <ul>\\n    </div>\\n    <!-- end #sidebar -->\\n    <div style="clear: both;">\\n     &nbsp;\\n    </div>\\n   </div>\\n   <!-- end #page -->\\n   <div id="footer">\\n    <p> .:B106 d3 j3nnn1:.</p>\\n   </div>\\n   <!-- end #footer -->\\n  </div>\\n </body>\\n</html>\\n\', escape=False)'
p6
sS'snapshot'
p7
(dp8
S'exception'
p9
(dp10
S'__hash__'
p11
S"<method-wrapper '__hash__' of exceptions.TypeError object>"
p12
sS'__setattr__'
p13
S"<method-wrapper '__setattr__' of exceptions.TypeError object>"
p14
sS'__reduce_ex__'
p15
S'<built-in method __reduce_ex__ of exceptions.TypeError object>'
p16
sS'__getslice__'
p17
S"<method-wrapper '__getslice__' of exceptions.TypeError object>"
p18
sS'__getitem__'
p19
S"<method-wrapper '__getitem__' of exceptions.TypeError object>"
p20
sS'__setstate__'
p21
S'<built-in method __setstate__ of exceptions.TypeError object>'
p22
sS'__reduce__'
p23
S'<built-in method __reduce__ of exceptions.TypeError object>'
p24
sS'__str__'
p25
S"<method-wrapper '__str__' of exceptions.TypeError object>"
p26
sS'__format__'
p27
S'<built-in method __format__ of exceptions.TypeError object>'
p28
sS'__getattribute__'
p29
S"<method-wrapper '__getattribute__' of exceptions.TypeError object>"
p30
sS'__class__'
p31
S"<type 'exceptions.TypeError'>"
p32
sS'__unicode__'
p33
S'<built-in method __unicode__ of exceptions.TypeError object>'
p34
sS'__delattr__'
p35
S"<method-wrapper '__delattr__' of exceptions.TypeError object>"
p36
sS'__subclasshook__'
p37
S'<built-in method __subclasshook__ of type object>'
p38
sS'__repr__'
p39
S"<method-wrapper '__repr__' of exceptions.TypeError object>"
p40
sS'args'
p41
S'("URL() got an unexpected keyword argument \'arg\'",)'
p42
sS'__dict__'
p43
S'{}'
p44
sS'__sizeof__'
p45
S'<built-in method __sizeof__ of exceptions.TypeError object>'
p46
sS'__doc__'
p47
S"'Inappropriate argument type.'"
p48
sS'__init__'
p49
S"<method-wrapper '__init__' of exceptions.TypeError object>"
p50
sS'__new__'
p51
S'<built-in method __new__ of type object>'
p52
ssS'evalue'
p53
S"URL() got an unexpected keyword argument 'arg'"
p54
sS'request'
p55
(dp56
S'function'
p57
S"'admin'"
p58
sS'body'
p59
S'<cStringIO.StringO object>'
p60
sS'wsgi'
p61
S"<Storage {'start_response': <function <lambda> a...ING': 'gzip,deflate', 'HTTP_KEEP_ALIVE': '115'}}>"
p62
sS'extension'
p63
S"'html'"
p64
sS'vars'
p65
S'<Storage {}>'
p66
sS'cid'
p67
S'None'
p68
sS'url'
p69
S'<gluon.html.XML object>'
p70
sg41
S'[]'
p71
sS'controller'
p72
S"'default'"
p73
sS'cookies'
p74
S"<SimpleCookie: session_id_admin='127-0-0-1-877c5...'127-0-0-1-abbacfdd-6a37-4a45-8aaf-8734a84b6dd4'>"
p75
sS'application'
p76
S"'blog'"
p77
sS'ajax'
p78
S'False'
p79
sS'client'
p80
S"'127.0.0.1'"
p81
sS'env'
p82
S"<Storage {'http_user_agent': 'Mozilla/5.0 (Windo...nce': False, 'path_info': '/blog/default/admin'}>"
p83
sS'raw_args'
p84
S'None'
p85
sS'get_vars'
p86
S'<Storage {}>'
p87
sS'folder'
p88
S"'/cygdrive/e/Documents and Settings/jmaldo03/git/pyj3nnn1/pyj3nnn1/web2py/applications/blog/'"
p89
sS'now'
p90
S'datetime.datetime(2010, 10, 25, 11, 34, 32, 575750)'
p91
sS'post_vars'
p92
S'<Storage {}>'
p93
ssS'frames'
p94
(lp95
(dp96
S'file'
p97
S'/cygdrive/e/Documents and Settings/jmaldo03/git/pyj3nnn1/pyj3nnn1/web2py/gluon/restricted.py'
p98
sS'dump'
p99
(dp100
S'environment'
p101
S"{'A': <class 'gluon.html.A'>, 'Auth': <class 'gluon.tools.Auth'>, 'B': <class 'gluon.html.B'>, 'BEAUTIFY': <class 'gluon.html.BEAUTIFY'>, 'BODY': <class 'gluon.html.BODY'>, 'BR': <class 'gluon.html.BR'>, 'CENTER': <class 'gluon.html.CENTER'>, 'CLEANUP': <class 'gluon.validators.CLEANUP'>, 'CODE': <class 'gluon.html.CODE'>, 'CRYPT': <class 'gluon.validators.CRYPT'>, ...}"
p102
sS'ccode'
p103
S'<code object <module> at 0x7f579728, file "/cygd...lications/blog/views/default/admin.html", line 1>'
p104
ssS'lnum'
p105
I188
sS'lines'
p106
(dp107
I192
S'        # XXX Show exception in Wing IDE if running in debugger'
p108
sI183
S'        if type(code) == types.CodeType:'
p109
sI184
S'            ccode = code'
p110
sI185
S'        else:'
p111
sI186
S'            ccode = compile2(code,layer)'
p112
sI187
S''
sI188
S'        exec ccode in environment'
p113
sI189
S'    except HTTP:'
p114
sI190
S'        raise'
p115
sI191
S'    except Exception:'
p116
ssS'call'
p117
S'(code=\'response.write(\\\'<!DOCTYPE html PUBLIC "-//W3C//D...->\\\\n  </div>\\\\n </body>\\\\n</html>\\\\n\\\', escape=False)\', environment={\'A\': <class \'gluon.html.A\'>, \'Auth\': <class \'gluon.tools.Auth\'>, \'B\': <class \'gluon.html.B\'>, \'BEAUTIFY\': <class \'gluon.html.BEAUTIFY\'>, \'BODY\': <class \'gluon.html.BODY\'>, \'BR\': <class \'gluon.html.BR\'>, \'CENTER\': <class \'gluon.html.CENTER\'>, \'CLEANUP\': <class \'gluon.validators.CLEANUP\'>, \'CODE\': <class \'gluon.html.CODE\'>, \'CRYPT\': <class \'gluon.validators.CRYPT\'>, ...}, layer=\'/cygdrive/e/Documents and Settings/jmaldo03/git/...web2py/applications/blog/views/default/admin.html\')'
p118
sS'func'
p119
S'restricted'
p120
sa(dp121
g97
S'/cygdrive/e/Documents and Settings/jmaldo03/git/pyj3nnn1/pyj3nnn1/web2py/applications/blog/views/default/admin.html'
p122
sg99
(dp123
sg105
I68
sg106
(dp124
I64
S'    response.write(T(registro.articulos.titulo))'
p125
sI65
S"    response.write('\\n\\t</td>\\n\\t<td>\\n\\t    ', escape=False)"
p126
sI66
S'    response.write(registro.articulos.fecha)'
p127
sI67
S"    response.write('\\n\\t</td>\\n\\t<td>\\n\\t    ', escape=False)"
p128
sI68
S'    response.write(A(T("Modicar Post"), _href=URL(\'modifypost\', arg=registro.articulos.id), _class=\'link\'))'
p129
sI69
S"    response.write('\\n\\t    ', escape=False)"
p130
sI70
S'    response.write(registro.articulos.id)'
p131
sI71
S"    response.write('\\n\\t</td>\\n\\t<td>\\n\\t    ', escape=False)"
p132
sI72
S'    response.write(A(T("Eliminar Post"), _href=URL(\'deletepost\', arg=registro.articulos.id), _class=\'link\'))'
p133
sI73
S"    response.write('\\n\\t</td>\\n', escape=False)"
p134
sI74
S'    pass'
p135
sI75
S"response.write('\\n    </tr>\\n</table>\\n</div>\\n\\n', escape=False)"
p136
sI76
S'response.write(\'\\n    </div>\\n    <!-- end #content -->\\n    <div id="sidebar">\\n     <ul>\\n      <li>\\n       <h2> Twitter Busqueda: perl</h2>\\n       <p>\\n        Mauris vitae nisl nec metus placerat perdiet est. Phasellus dapibus semper urna. Pellentesque ornare, orci in consectetuer hendrerit, volutpat.\\n       </p>\\n      </li>\\n      <li>\\n       <h2>\\n        Twitter Busqueda: python\\n       </h2>\\n       <ul>\\n        <li>\\n         <a href="#">\\n         </a>\\n         <a href="#">\\n          Nec metus sed donec\\n         </a>\\n        </li>\\n        <li>\\n         <a href="#">\\n          Magna lacus bibendum mauris\\n         </a>\\n        </li>\\n        <li>\\n         <a href="#">\\n          Velit semper nisi molestie\\n         </a>\\n        </li>\\n        <li>\\n         <a href="#">\\n          Eget tempor eget nonummy\\n         </a>\\n        </li>\\n        <li>\\n         <a href="#">\\n          Nec metus sed donec\\n         </a>\\n        </li>\\n       </ul>\\n      </li>\\n     </ul>\\n     <ul>\\n     <li>\\n       <h2>\\n        Mi Twitter\\n       </h2>\\n       <p> aca va twitter </p>\\n      </li>\\n     <ul>\\n    </div>\\n    <!-- end #sidebar -->\\n    <div style="clear: both;">\\n     &nbsp;\\n    </div>\\n   </div>\\n   <!-- end #page -->\\n   <div id="footer">\\n    <p> .:B106 d3 j3nnn1:.</p>\\n   </div>\\n   <!-- end #footer -->\\n  </div>\\n </body>\\n</html>\\n\', escape=False)'
p137
sI59
S"response.write('\\n    </th>\\n    <th colspan=2>\\n\\t', escape=False)"
p138
sI60
S'response.write(T("Acciones"))'
p139
sI61
S"response.write('\\n    </th>\\n</tr>\\n', escape=False)"
p140
sI62
S'for registro in tableart:'
p141
sI63
S"    response.write('\\n    <tr>\\n\\t<td>\\n\\t    ', escape=False)"
p142
ssg117
S'()'
p143
sg119
S'<module>'
p144
sa(dp145
g97
S'/cygdrive/e/Documents and Settings/jmaldo03/git/pyj3nnn1/pyj3nnn1/web2py/gluon/html.py'
p146
sg99
(dp147
S'global URL'
p148
S'<function URL>'
p149
sS'args'
p150
S'[]'
p151
sS'kwargs'
p152
S"{'arg': 8, 'f': 'modifypost', 'r': <Storage {'function': 'admin', 'body': <cStringI... 11, 34, 32, 575750), 'post_vars': <Storage {}>}>}"
p153
ssg105
I228
sg106
(dp154
I224
S'                args = []'
p155
sI225
S"            if len(args) == 2 and not 'f' in kwargs and not 'c' in kwargs:"
p156
sI226
S"                kwargs['c'], kwargs['f'] = args[0], args[1]"
p157
sI227
S'                args = []'
p158
sI228
S'        return URL(*args, **kwargs)'
p159
sI229
S'    _URL.__doc__ = URL.__doc__'
p160
sI230
S'    return _URL'
p161
sI231
S''
sI232
S''
sI223
S"                kwargs['f'] = args[0]"
p162
ssg117
S"(*args=[], **kwargs={'arg': 8, 'f': 'modifypost', 'r': <Storage {'function': 'admin', 'body': <cStringI... 11, 34, 32, 575750), 'post_vars': <Storage {}>}>})"
p163
sg119
S'_URL'
p164
sasS'pyver'
p165
S'Python 2.6.5: /usr/bin/python'
p166
sS'session'
p167
(dp168
S'_formkey[articulos_create]'
p169
S"'68f19dfb-14f8-4a54-841a-288009cb3447'"
p170
sS'_formkey[register]'
p171
S"'916f3654-72ab-4fe3-8c51-26ed26684973'"
p172
sS'flash'
p173
S'None'
p174
sS'auth'
p175
S"<Storage {'expiration': 3600, 'last_visit': date...y': '', 'email': 'jcmm986@gmail.com', 'id': 1}>}>"
p176
sS'last_orderby'
p177
S'None'
p178
sS'last_query'
p179
S"'db.articulos.id>0'"
p180
sS'_formkey[comentarios_create]'
p181
S"'d790f6ac-3d09-4040-9003-e1b08e3cb564'"
p182
sS'_formkey[articulos_1]'
p183
S"'074680d4-ecb2-487d-9a3c-920a47b19b26'"
p184
sS'_formkey[login]'
p185
S"'cd0d63aa-d852-4aef-8758-6b04cccb3d22'"
p186
ssS'etype'
p187
S"<type 'exceptions.TypeError'>"
p188
sS'date'
p189
S'Mon Oct 25 11:34:32 2010'
p190
sS'response'
p191
(dp192
S'status'
p193
S'200'
p194
sg59
S'<cStringIO.StringO object>'
p195
sg74
S"<SimpleCookie: session_id_blog='127-0-0-1-fee2cd34-3e42-44cb-bee6-3936b80cedc4'>"
p196
sS'_vars'
p197
S"{'tableart': [<Row {'articulos': <Row {'update_record': <funct...te_record': <function <lambda> at 0x7f8c3ae4>}>}>, <Row {'articulos': <Row {'update_record': <funct...te_record': <function <lambda> at 0x7f8c3a04>}>}>, <Row {'articulos': <Row {'update_record': <funct...te_record': <function <lambda> at 0x7f8c3924>}>}>, <Row {'articulos': <Row {'update_record': <funct...te_record': <function <lambda> at 0x7f8c36bc>}>}>, <Row {'articulos': <Row {'update_record': <funct...te_record': <function <lambda> at 0x7f8c3994>}>}>, <Row {'articulos': <Row {'update_record': <funct...te_record': <function <lambda> at 0x7f8c3a3c>}>}>, <Row {'articulos': <Row {'update_record': <funct...te_record': <function <lambda> at 0x7f8c38b4>}>}>, <Row {'articulos': <Row {'update_record': <funct...te_record': <function <lambda> at 0x7f8c395c>}>}>]}"
p198
sS'title'
p199
S"'blog'"
p200
sS'session_file'
p201
S"<open file '/cygdrive/e/Documents and Settings/j...ee2cd34-3e42-44cb-bee6-3936b80cedc4', mode 'rb+'>"
p202
sS'flash'
p203
S"''"
p204
sS'_custom_rollback'
p205
S'None'
p206
sS'session_id'
p207
S"'127-0-0-1-fee2cd34-3e42-44cb-bee6-3936b80cedc4'"
p208
sS'headers'
p209
S"<Storage {'Expires': 'Mon, 25 Oct 2010 16:04:32 ...he, must-revalidate, post-check=0, pre-check=0'}>"
p210
sS'meta'
p211
S"<Storage {'keywords': 'j3nnn1 web2py python', 'd...con web2py... ', 'author': 'Jennifer Maldonado'}>"
p212
sS'session_filename'
p213
S"'/cygdrive/e/Documents and Settings/jmaldo03/git/...ns/127-0-0-1-fee2cd34-3e42-44cb-bee6-3936b80cedc4'"
p214
sS'postprocessing'
p215
S'[]'
p216
sS'menu'
p217
S"[(<lazyT 'Index'>, False, <gluon.html.XML object>, []), (<lazyT 'About'>, False, <gluon.html.XML object>, []), (<lazyT 'Admin'>, False, <gluon.html.XML object>, []), (<lazyT 'Edit'>, False, <gluon.html.XML object>, [(<lazyT 'Controller'>, False, <gluon.html.XML object>), (<lazyT 'View'>, False, <gluon.html.XML object>), (<lazyT 'Layout'>, False, <gluon.html.XML object>), (<lazyT 'Stylesheet'>, False, <gluon.html.XML object>), (<lazyT 'DB Model'>, False, <gluon.html.XML object>), (<lazyT 'Menu Model'>, False, <gluon.html.XML object>), (<lazyT 'Database'>, False, <gluon.html.XML object>)])]"
p218
sS'_view_environment'
p219
S"{'A': <class 'gluon.html.A'>, 'Auth': <class 'gluon.tools.Auth'>, 'B': <class 'gluon.html.B'>, 'BEAUTIFY': <class 'gluon.html.BEAUTIFY'>, 'BODY': <class 'gluon.html.BODY'>, 'BR': <class 'gluon.html.BR'>, 'CENTER': <class 'gluon.html.CENTER'>, 'CLEANUP': <class 'gluon.validators.CLEANUP'>, 'CODE': <class 'gluon.html.CODE'>, 'CRYPT': <class 'gluon.validators.CRYPT'>, ...}"
p220
sS'subtitle'
p221
S'<lazyT "it\'s me j3nnn1">'
p222
sS'session_id_name'
p223
S"'session_id_blog'"
p224
sS'_custom_commit'
p225
S'None'
p226
sS'_caller'
p227
S'<function <lambda>>'
p228
sS'files'
p229
S'[<gluon.html.XML object>, <gluon.html.XML object>, <gluon.html.XML object>, <gluon.html.XML object>, <gluon.html.XML object>]'
p230
sS'view'
p231
S"'default/admin.html'"
p232
ssS'locals'
p233
(dp234
g41
S'[]'
p235
sg55
S"<Storage {'function': 'admin', 'body': <cStringI... 11, 34, 32, 575750), 'post_vars': <Storage {}>}>"
p236
sS'kwargs'
p237
S"{'arg': 8, 'f': 'modifypost', 'r': <Storage {'function': 'admin', 'body': <cStringI... 11, 34, 32, 575750), 'post_vars': <Storage {}>}>}"
p238
sssS'traceback'
p239
S'Traceback (most recent call last):\n  File "/cygdrive/e/Documents and Settings/jmaldo03/git/pyj3nnn1/pyj3nnn1/web2py/gluon/restricted.py", line 188, in restricted\n    exec ccode in environment\n  File "/cygdrive/e/Documents and Settings/jmaldo03/git/pyj3nnn1/pyj3nnn1/web2py/applications/blog/views/default/admin.html", line 68, in <module>\n  File "/cygdrive/e/Documents and Settings/jmaldo03/git/pyj3nnn1/pyj3nnn1/web2py/gluon/html.py", line 228, in _URL\n    return URL(*args, **kwargs)\nTypeError: URL() got an unexpected keyword argument \'arg\'\n'
p240
s.