(dp1
S'output'
p2
S''
sS'layer'
p3
S'/home/j3nnn1/git/pyj3nnn1/web2py/applications/blog/views/default/viewpost.html'
p4
sS'code'
p5
S'response.write(\'<!DOCTYPE html PUBLIC "-//W3C//DTD XHTML 1.0 Strict//EN" "http://www.w3.org/TR/xhtml1/DTD/xhtml1-strict.dtd">\\n<!--\\nDesign by Free CSS Templates\\nhttp://www.freecsstemplates.org\\nReleased for free under a Creative Commons Attribution 2.5 License\\n\\nName       : chasmogamous\\nDescription: A two-column, fixed-width template suitable for business sites and blogs.\\nVersion    : 1.0\\nReleased   : 20080116\\n\\n-->\\n<html xmlns="http://www.w3.org/1999/xhtml">\\n <head>\\n  <title>\\n   \', escape=False)\nresponse.write(response.title or request.application)\nresponse.write(\'\\n  </title>\\n  \', escape=False)\nresponse.files.append(URL(request.application,\'static\',\'plugin_layouts/layouts/Chasmogamous/style.css\'))\nresponse.write(\'\\n\', escape=False)\nresponse.files.append(URL(\'static\',\'superfish.js\'))\nresponse.write(\'\\n  \', escape=False)\nresponse.files.insert(0,URL(r=request,c=\'static\',f=\'jquery.js\'))\nresponse.files.insert(1,URL(r=request,c=\'static\',f=\'calendar.css\'))\nresponse.files.insert(2,URL(r=request,c=\'static\',f=\'calendar.js\'))\nfor _item in response.meta or []:\n    response.write(\'\\n     <meta name="\', escape=False)\n    response.write(_item)\n    response.write(\'" content="\', escape=False)\n    response.write(response.meta[_item])\n    response.write(\'" />\', escape=False)\n    pass\nfor _k,_file in enumerate(response.files or []):\n    if _file in response.files[:_k]:\n        continue\n    elif _file.lower().endswith(\'.css\'):\n        response.write(\'\\n     <link href="\', escape=False)\n        response.write(_file)\n        response.write(\'" rel="stylesheet" type="text/css" />\', escape=False)\n    elif _file.lower().endswith(\'.js\'):\n        response.write(\'\\n     <script src="\', escape=False)\n        response.write(_file)\n        response.write(\'" type="text/javascript"></script>\', escape=False)\n        pass\n    pass\nresponse.write(\'\\n<script type="text/javascript"><!--\\nfunction popup(url) {\\n  newwindow=window.open(url,\\\'name\\\',\\\'height=400,width=600\\\');\\n  if (window.focus) newwindow.focus();\\n  return false;\\n}\\nfunction collapse(id) { jQuery(\\\'#\\\'+id).slideToggle(); }\\nfunction fade(id,value) { if(value>0) jQuery(\\\'#\\\'+id).hide().fadeIn(\\\'slow\\\'); else jQuery(\\\'#\\\'+id).show().fadeOut(\\\'slow\\\'); }\\nfunction ajax(u,s,t) {\\n    query = \\\'\\\';\\n    if (typeof s == "string") {\\n        d = jQuery(s).serialize();\\n        if(d){ query = d; }\\n    } else {\\n        pcs = [];\\n        for(i=0; i<s.length; i++) {\\n            q = jQuery("[name="+s[i]+"]").serialize();\\n            if(q){pcs.push(q);}\\n        }\\n        if (pcs.length>0){query = pcs.join("&");}\\n    }\\n    jQuery.ajax({type: "POST", url: u, data: query, success: function(msg) { if(t) { if(t==\\\':eval\\\') eval(msg); else jQuery("#" + t).html(msg); } } }); \\n}\\nString.prototype.reverse = function () { return this.split(\\\'\\\').reverse().join(\\\'\\\');};\\nfunction web2py_ajax_init() {\\n  jQuery(\\\'.hidden\\\').hide();\\n  jQuery(\\\'.error\\\').hide().slideDown(\\\'slow\\\');\\n  jQuery(\\\'.flash\\\').click(function() { jQuery(this).fadeOut(\\\'slow\\\'); return false; });\\n  jQuery(\\\'input[type=submit]\\\').click(function(){var t=jQuery(this);t.hide();t.after(\\\'<input class="submit_disabled" disabled="disabled" type="submit" name="\\\'+t.attr("name")+\\\'_dummy" value="\\\'+t.val()+\\\'">\\\')});\\n  jQuery(\\\'input.integer\\\').keyup(function(){this.value=this.value.reverse().replace(/[^0-9\\\\-]|\\\\-(?=.)/g,\\\'\\\').reverse();});\\n  jQuery(\\\'input.double,input.decimal\\\').keyup(function(){this.value=this.value.reverse().replace(/[^0-9\\\\-\\\\.]|[\\\\-](?=.)|[\\\\.](?=[0-9]*[\\\\.])/g,\\\'\\\').reverse();});\\n  jQuery("input[type=\\\'checkbox\\\'].delete").each(function(){jQuery(this).click(function() { if(this.checked) if(!confirm("\', escape=False)\nresponse.write(T(\'Sure you want to delete this object?\'))\nresponse.write(\'")) this.checked=false; });});\\n  try {jQuery("input.date").focus( function() {Calendar.setup({\\n     inputField:this.id, ifFormat:"\', escape=False)\nresponse.write(T(\'%Y-%m-%d\'))\nresponse.write(\'", showsTime:false\\n  }); }); } catch(e) {};\\n  try { jQuery("input.datetime").focus( function() {Calendar.setup({\\n     inputField:this.id, ifFormat:"\', escape=False)\nresponse.write(T(\'%Y-%m-%d %H:%M:%S\'))\nresponse.write(\'", showsTime: true,timeFormat: "24"\\n  }); }); } catch(e) {};\\n  try { jQuery("input.time").clockpick({\\n      starthour:0, endhour:23, showminutes:true, military:true\\n  }); } catch(e) {};\\n};\\njQuery(document).ready(function(){\\n   jQuery(\\\'.flash\\\').hide();\\n   if(jQuery(\\\'.flash\\\').html()!=\\\'\\\') jQuery(\\\'.flash\\\').slideDown(\\\'slow\\\');\\n   web2py_ajax_init();});\\n\\nfunction web2py_trap_form(action,target) {\\n   jQuery(\\\'#\\\'+target+\\\' form\\\').each(function(i){\\n      var form=jQuery(this);\\n      if(!form.hasClass(\\\'no_trap\\\'))\\n        form.submit(function(obj){\\n         jQuery(\\\'.flash\\\').hide().html(\\\'\\\');\\n         web2py_ajax_page(\\\'post\\\',action,form.serialize(),target);\\n         return false;\\n      });\\n   });\\n}\\n\\nfunction web2py_ajax_page(method,action,data,target) {\\n  jQuery.ajax({\\\'type\\\':method,\\\'url\\\':action,\\\'data\\\':data,\\n    \\\'beforeSend\\\':function(xhr) {\\n      xhr.setRequestHeader(\\\'web2py-component-location\\\',document.location);\\n      xhr.setRequestHeader(\\\'web2py-component-element\\\',target);},\\n    \\\'complete\\\':function(xhr,text){\\n      var html=xhr.responseText;\\n      var content=xhr.getResponseHeader(\\\'web2py-component-content\\\'); \\n      var command=xhr.getResponseHeader(\\\'web2py-component-command\\\');\\n      var flash=xhr.getResponseHeader(\\\'web2py-component-flash\\\');\\n      var t = jQuery(\\\'#\\\'+target);\\n      if(content==\\\'prepend\\\') t.prepend(html); \\n      else if(content==\\\'append\\\') t.append(html);\\n      else if(content!=\\\'hide\\\') t.html(html);  \\n      web2py_trap_form(action,target);\\n      web2py_ajax_init();      \\n      if(command) eval(command);\\n      if(flash) jQuery(\\\'.flash\\\').html(flash).slideDown();\\n      }\\n    });\\n}\\nfunction web2py_component(action,target) {\\n    jQuery(document).ready(function(){ web2py_ajax_page(\\\'get\\\',action,null,target); });\\n}\\n//--></script>\\n\', escape=False)\nresponse.write(\'\\n  <style>\\nul.web2py-menu-vertical { width: 150px; position: relative; top:1em; left:1em;  z-index:30; border:0; margin:0; padding: 0; list-style: none; text-decoration: none;}\\nul.web2py-menu-vertical li { margin:0; padding:0; border:0; width: 150px; background: black; text-align:left;}\\nul.web2py-menu-vertical li a { margin:0; padding: 1px 3px 1px 3px; border:0; width: 144px; color: white; font-size:12px;}\\ndiv.flash { position: fixed; float: right; padding: 10px; top: 10px; right: 30px; opacity: 0.75; margin: 10px 10px 10px 10px; text-align: center; clear: both; color: #fff; font-size: 11pt; text-align: center; vertical-align: middle; cursor: pointer; background: black; border: 2px solid #fff; -moz-border-radius: 5px; -webkit-border-radius: 5px; z-index: 2; }\\ndiv.error { background-color: red; color: white; padding: 3px; }\\n.auth_navbar { text-align:right; z-index:20; position: absolute; top: 2px; right:30px; border:0; padding:0 }\\n  </style>\\n </head>\\n <body>\\n  <!-- start header -->\\n  \', escape=False)\ntry:\n    response.write(auth.navbar(action=URL(\'default\',\'user\')))\nexcept:pass\nresponse.write(\'\\n\\n  <div id="header">\\n   <div id="logo">\\n    <h1>\\n     \', escape=False)\nresponse.write(response.title or request.application)\nresponse.write(\'\\n    </h1>\\n    <h2>\\n     \', escape=False)\nresponse.write(response.subtitle or \'=response.subtitle\')\nresponse.write(\'\\n    </h2>\\n   </div>\\n   <div id="menu">\\n    \', escape=False)\nresponse.write(MENU(response.menu,_class=\'web2py-menu\'))\nresponse.write(\'\\n    <script>\\n      jQuery(document).ready(function(){jQuery(\\\'ul.web2py-menu\\\').superfish({delay:400});});\\n    </script>\\n   </div>\\n  </div>\\n  <hr />\\n  <!-- start page -->\\n  <div id="page">\\n   <!-- start content -->\\n   <div id="content">\\n    <div class="flash">\', escape=False)\nresponse.write(response.flash or \'\')\nresponse.write(\'</div>\\n    \', escape=False)\nresponse.write(\'\\n\\n\', escape=False)\n#=BEAUTIFY(request.vars)\nresponse.write(\'\\n\', escape=False)\n#=BEAUTIFY(post)\nresponse.write(\'\\n\', escape=False)\n#=BEAUTIFY(comments)\nresponse.write(\'\\n<br/>\\n\', escape=False)\nresponse.write(H3(post.articulos.titulo))\nresponse.write(\'\\n\', escape=False)\nresponse.write(post.articulos.articulo)\nresponse.write(\'\\n\\n<br/>\\n<br/>\\n\', escape=False)\nresponse.write(T("Escrito por: "))\nresponse.write(\' \', escape=False)\nresponse.write(post.usuarios.usuario)\nresponse.write(\' \', escape=False)\nresponse.write(T("el "))\nresponse.write(\' \', escape=False)\nresponse.write(post.articulos.fecha)\nresponse.write(\'\\n<br/>\\n<br/>\\n\', escape=False)\n#=comments\nresponse.write(\'\\n\\n\', escape=False)\nif type(comments).__name__==\'str\':\n    response.write(\'\\n\\t\', escape=False)\n    response.write(comments)\n    response.write(\'\\n\', escape=False)\nelse:\n    response.write(\'\\n\', escape=False)\n    response.write(dir(comments))\n    response.write(\' / \', escape=False)\n    #=comments.comentarios.correo\n    response.write(\'\\n<br/>\\n<br/>\\n\', escape=False)\n    response.write(comments.values())\n    response.write(\'\\n<br/>\\n<br/>\\n\', escape=False)\n    response.write(comments[0][titulo])\n    response.write(\'\\n<br/>\\n\', escape=False)\n    #=dir(post)\n    response.write(\'\\n<br/>\\n\', escape=False)\n    #=(comments.comentarios.url or "No tiene Url")\n    response.write(\'\\n<br/>\\n\', escape=False)\n    #=comments.comentarios.comentario\n    response.write(\'\\nEscrito el: \', escape=False)\n    #=comments.comentarios.fecha\n    response.write(\'\\n\', escape=False)\n    pass\nresponse.write(\'\\n<br/>\\n<br/>\\n\', escape=False)\nresponse.write(form)\nresponse.write(\'\\n\', escape=False)\nresponse.write(\'\\n   </div>\\n   <!-- end content -->\\n   <!-- start sidebar -->\\n   <div id="sidebar">\\n    <ul>\\n     <li>\\n      <h2>\\n       Etiam dolore\\n      </h2>\\n      <p>\\n       Nulla pellentesque dolor non tellus. Duis vel elit sit\\n       <a href="#">\\n        amet ipsum vehicula\\n       </a>\\n       varius. Vestibulum ante ipsum primis in faucibus orci luctus.\\n      </p>\\n     </li>\\n     <li>\\n      <h2>\\n       Consequat lorem\\n      </h2>\\n      <ul>\\n       <li>\\n        <a href="#">\\n         Proin nec magna nec massa\\n        </a>\\n       </li>\\n       <li>\\n        <a href="#">\\n         Sit amet purus congue\\n        </a>\\n       </li>\\n       <li>\\n        <a href="#">\\n         Molestie aliquam erat volutpat\\n        </a>\\n       </li>\\n       <li>\\n        <a href="#">\\n         Amet ipsum vehicula varius\\n        </a>\\n       </li>\\n       <li>\\n        <a href="#">\\n         Primis in faucibus orci luctus\\n        </a>\\n       </li>\\n       <li>\\n        <a href="#">\\n         Vestibulum ante ipsum\\n        </a>\\n       </li>\\n      </ul>\\n     </li>\\n    </ul>\\n   </div>\\n   <!-- end sidebar -->\\n   <div style="clear: both;">\\n    &nbsp;\\n   </div>\\n  </div>\\n  <!-- end page -->\\n  <div id="footer">\\n   <p class="legal">\\n    Copyright (c) 2007 Website Name. All rights reserved.\\n   </p>\\n   <p class="credit">\\n    Designed by\\n    <a href="http://www.freecsstemplates.org/">\\n     Free CSS Templates\\n    </a>\\n    .\\n   </p>\\n  </div>\\n </body>\\n</html>\\n\', escape=False)'
p6
sS'snapshot'
p7
(dp8
S'exception'
p9
(dp10
S'__hash__'
p11
S"<method-wrapper '__hash__' of exceptions.KeyError object>"
p12
sS'__setattr__'
p13
S"<method-wrapper '__setattr__' of exceptions.KeyError object>"
p14
sS'__reduce_ex__'
p15
S'<built-in method __reduce_ex__ of exceptions.KeyError object>'
p16
sS'__getslice__'
p17
S"<method-wrapper '__getslice__' of exceptions.KeyError object>"
p18
sS'__getitem__'
p19
S"<method-wrapper '__getitem__' of exceptions.KeyError object>"
p20
sS'__setstate__'
p21
S'<built-in method __setstate__ of exceptions.KeyError object>'
p22
sS'__reduce__'
p23
S'<built-in method __reduce__ of exceptions.KeyError object>'
p24
sS'__str__'
p25
S"<method-wrapper '__str__' of exceptions.KeyError object>"
p26
sS'__format__'
p27
S'<built-in method __format__ of exceptions.KeyError object>'
p28
sS'__getattribute__'
p29
S"<method-wrapper '__getattribute__' of exceptions.KeyError object>"
p30
sS'__class__'
p31
S"<type 'exceptions.KeyError'>"
p32
sS'__unicode__'
p33
S'<built-in method __unicode__ of exceptions.KeyError object>'
p34
sS'__delattr__'
p35
S"<method-wrapper '__delattr__' of exceptions.KeyError object>"
p36
sS'__subclasshook__'
p37
S'<built-in method __subclasshook__ of type object>'
p38
sS'__repr__'
p39
S"<method-wrapper '__repr__' of exceptions.KeyError object>"
p40
sS'args'
p41
S'(0,)'
p42
sS'__dict__'
p43
S'{}'
p44
sS'__sizeof__'
p45
S'<built-in method __sizeof__ of exceptions.KeyError object>'
p46
sS'__doc__'
p47
S"'Mapping key not found.'"
p48
sS'__init__'
p49
S"<method-wrapper '__init__' of exceptions.KeyError object>"
p50
sS'__new__'
p51
S'<built-in method __new__ of type object>'
p52
ssS'evalue'
p53
S'0'
sS'request'
p54
(dp55
S'function'
p56
S"'viewpost'"
p57
sS'body'
p58
S"<open file '<fdopen>', mode 'w+b'>"
p59
sS'wsgi'
p60
S"<Storage {'start_response': <function <lambda> a...ING': 'gzip,deflate', 'HTTP_KEEP_ALIVE': '300'}}>"
p61
sS'extension'
p62
S"'html'"
p63
sS'vars'
p64
S"<Storage {'url': '', 'fecha': '2010-10-24 22:09:...805d8a2bdc5', '_formname': 'comentarios_create'}>"
p65
sS'cid'
p66
S'None'
p67
sS'url'
p68
S'<gluon.html.XML object>'
p69
sg41
S"['5']"
p70
sS'controller'
p71
S"'default'"
p72
sS'cookies'
p73
S"<SimpleCookie: session_id_admin='127-0-0-1-f2e5b...'127-0-0-1-351969aa-3dec-406a-9035-95b560cd1dd6'>"
p74
sS'application'
p75
S"'blog'"
p76
sS'ajax'
p77
S'False'
p78
sS'client'
p79
S"'127.0.0.1'"
p80
sS'env'
p81
S"<Storage {'content_length': '1106', 'http_user_a...te', 'query_string': '', 'wsgi_run_once': False}>"
p82
sS'raw_args'
p83
S"'5'"
p84
sS'get_vars'
p85
S'<Storage {}>'
p86
sS'folder'
p87
S"'/home/j3nnn1/git/pyj3nnn1/web2py/applications/blog/'"
p88
sS'now'
p89
S'datetime.datetime(2010, 10, 24, 22, 23, 12, 344851)'
p90
sS'post_vars'
p91
S"<Storage {'url': '', 'fecha': '2010-10-24 22:09:...805d8a2bdc5', '_formname': 'comentarios_create'}>"
p92
ssS'frames'
p93
(lp94
(dp95
S'file'
p96
S'/home/j3nnn1/git/pyj3nnn1/web2py/gluon/restricted.py'
p97
sS'dump'
p98
(dp99
S'environment'
p100
S"{'A': <class 'gluon.html.A'>, 'Auth': <class 'gluon.tools.Auth'>, 'B': <class 'gluon.html.B'>, 'BEAUTIFY': <class 'gluon.html.BEAUTIFY'>, 'BODY': <class 'gluon.html.BODY'>, 'BR': <class 'gluon.html.BR'>, 'CENTER': <class 'gluon.html.CENTER'>, 'CLEANUP': <class 'gluon.validators.CLEANUP'>, 'CODE': <class 'gluon.html.CODE'>, 'CRYPT': <class 'gluon.validators.CRYPT'>, ...}"
p101
sS'ccode'
p102
S'<code object <module> at 0x9b09a40, file "/home/...ations/blog/views/default/viewpost.html", line 1>'
p103
ssS'lnum'
p104
I188
sS'lines'
p105
(dp106
I192
S'        # XXX Show exception in Wing IDE if running in debugger'
p107
sI183
S'        if type(code) == types.CodeType:'
p108
sI184
S'            ccode = code'
p109
sI185
S'        else:'
p110
sI186
S'            ccode = compile2(code,layer)'
p111
sI187
S''
sI188
S'        exec ccode in environment'
p112
sI189
S'    except HTTP:'
p113
sI190
S'        raise'
p114
sI191
S'    except Exception:'
p115
ssS'call'
p116
S'(code=\'response.write(\\\'<!DOCTYPE html PUBLIC "-//W3C//D...p>\\\\n  </div>\\\\n </body>\\\\n</html>\\\\n\\\', escape=False)\', environment={\'A\': <class \'gluon.html.A\'>, \'Auth\': <class \'gluon.tools.Auth\'>, \'B\': <class \'gluon.html.B\'>, \'BEAUTIFY\': <class \'gluon.html.BEAUTIFY\'>, \'BODY\': <class \'gluon.html.BODY\'>, \'BR\': <class \'gluon.html.BR\'>, \'CENTER\': <class \'gluon.html.CENTER\'>, \'CLEANUP\': <class \'gluon.validators.CLEANUP\'>, \'CODE\': <class \'gluon.html.CODE\'>, \'CRYPT\': <class \'gluon.validators.CRYPT\'>, ...}, layer=\'/home/j3nnn1/git/pyj3nnn1/web2py/applications/blog/views/default/viewpost.html\')'
p117
sS'func'
p118
S'restricted'
p119
sa(dp120
g96
S'/home/j3nnn1/git/pyj3nnn1/web2py/applications/blog/views/default/viewpost.html'
p121
sg98
(dp122
sg104
I84
sg105
(dp123
I75
S"    response.write('\\n', escape=False)"
p124
sI76
S'else:'
p125
sI77
S"    response.write('\\n', escape=False)"
p126
sI78
S'    response.write(dir(comments))'
p127
sI79
S"    response.write(' / ', escape=False)"
p128
sI80
S'    #=comments.comentarios.correo'
p129
sI81
S"    response.write('\\n<br/>\\n<br/>\\n', escape=False)"
p130
sI82
S'    response.write(comments.values())'
p131
sI83
S"    response.write('\\n<br/>\\n<br/>\\n', escape=False)"
p132
sI84
S'    response.write(comments[0][titulo])'
p133
sI85
S"    response.write('\\n<br/>\\n', escape=False)"
p134
sI86
S'    #=dir(post)'
p135
sI87
S"    response.write('\\n<br/>\\n', escape=False)"
p136
sI88
S'    #=(comments.comentarios.url or "No tiene Url")'
p137
sI89
S"    response.write('\\n<br/>\\n', escape=False)"
p138
sI90
S'    #=comments.comentarios.comentario'
p139
sI91
S"    response.write('\\nEscrito el: ', escape=False)"
p140
sI92
S'    #=comments.comentarios.fecha'
p141
sI93
S"    response.write('\\n', escape=False)"
p142
sI94
S'    pass'
p143
ssg116
S'()'
p144
sg118
S'<module>'
p145
sasS'pyver'
p146
S'Python 2.6.6: /usr/bin/python'
p147
sS'session'
p148
(dp149
S'_formkey[comentarios_create]'
p150
S"'ceec8ccd-7b0e-4eba-985e-a5280ad92f99'"
p151
sS'auth'
p152
S'None'
p153
ssS'etype'
p154
S"<type 'exceptions.KeyError'>"
p155
sS'date'
p156
S'Sun Oct 24 22:23:14 2010'
p157
sS'response'
p158
(dp159
S'status'
p160
S'200'
p161
sg58
S'<cStringIO.StringO object>'
p162
sg73
S"<SimpleCookie: session_id_blog='127-0-0-1-5dc66841-ff4e-4166-a5cb-65f23e1becc2'>"
p163
sS'_vars'
p164
S"{'comments': {1L: {'comentario': 'gracias amigo imaginario', 'correo': 'jcmm986@gmail.com', 'fecha': '2010-10-24 20:05:17', 'id': 1L, 'id_articulo': 5, 'nombre': 'Jennifer', 'titulo': 'mi primera vez', 'url': '', 'visible': None}, 2L: {'comentario': 'comentarios fastidioso', 'correo': 'jcmm986@gmail.com', 'fecha': '2010-10-24 22:09:41', 'id': 2L, 'id_articulo': 5, 'nombre': 'Jennifer', 'titulo': 'este comentario esta fastidioso', 'url': '', 'visible': None}, 3L: {'comentario': 'Probemos de nuevo', 'correo': 'probador@anonimo.com', 'fecha': '2010-10-24 23:53:31', 'id': 3L, 'id_articulo': 5, 'nombre': 'probador anonimo', 'titulo': 'comentario de prueba', 'url': '', 'visible': None}}, 'form': <gluon.sqlhtml.SQLFORM object>, 'post': <Row {'articulos': <Row {'update_record': <funct...cdc>}>, 'usuarios': <Row {'usuario': 'j3nnn1'}>}>}"
p165
sS'title'
p166
S"'blog'"
p167
sS'session_file'
p168
S"<open file '/home/j3nnn1/git/pyj3nnn1/web2py/app...dc66841-ff4e-4166-a5cb-65f23e1becc2', mode 'rb+'>"
p169
sS'flash'
p170
S"''"
p171
sS'_custom_rollback'
p172
S'None'
p173
sS'session_id'
p174
S"'127-0-0-1-5dc66841-ff4e-4166-a5cb-65f23e1becc2'"
p175
sS'headers'
p176
S"<Storage {'Expires': 'lun, 25 oct 2010 02:53:12 ...he, must-revalidate, post-check=0, pre-check=0'}>"
p177
sS'meta'
p178
S"<Storage {'keywords': 'j3nnn1 web2py python', 'd...con web2py... ', 'author': 'Jennifer Maldonado'}>"
p179
sS'session_filename'
p180
S"'/home/j3nnn1/git/pyj3nnn1/web2py/applications/bl...ns/127-0-0-1-5dc66841-ff4e-4166-a5cb-65f23e1becc2'"
p181
sS'postprocessing'
p182
S'[]'
p183
sS'menu'
p184
S"[(<lazyT 'Index'>, False, <gluon.html.XML object>, []), (<lazyT 'About'>, False, <gluon.html.XML object>, []), (<lazyT 'Edit'>, False, <gluon.html.XML object>, [(<lazyT 'Controller'>, False, <gluon.html.XML object>), (<lazyT 'View'>, False, <gluon.html.XML object>), (<lazyT 'Layout'>, False, <gluon.html.XML object>), (<lazyT 'Stylesheet'>, False, <gluon.html.XML object>), (<lazyT 'DB Model'>, False, <gluon.html.XML object>), (<lazyT 'Menu Model'>, False, <gluon.html.XML object>), (<lazyT 'Database'>, False, <gluon.html.XML object>)])]"
p185
sS'_view_environment'
p186
S"{'A': <class 'gluon.html.A'>, 'Auth': <class 'gluon.tools.Auth'>, 'B': <class 'gluon.html.B'>, 'BEAUTIFY': <class 'gluon.html.BEAUTIFY'>, 'BODY': <class 'gluon.html.BODY'>, 'BR': <class 'gluon.html.BR'>, 'CENTER': <class 'gluon.html.CENTER'>, 'CLEANUP': <class 'gluon.validators.CLEANUP'>, 'CODE': <class 'gluon.html.CODE'>, 'CRYPT': <class 'gluon.validators.CRYPT'>, ...}"
p187
sS'subtitle'
p188
S'<lazyT "it\'s me j3nnn1">'
p189
sS'session_id_name'
p190
S"'session_id_blog'"
p191
sS'_custom_commit'
p192
S'None'
p193
sS'_caller'
p194
S'<function <lambda>>'
p195
sS'files'
p196
S'[<gluon.html.XML object>, <gluon.html.XML object>, <gluon.html.XML object>, <gluon.html.XML object>, <gluon.html.XML object>]'
p197
sS'view'
p198
S"'default/viewpost.html'"
p199
ssS'locals'
p200
(dp201
S'Service'
p202
S'<class gluon.tools.Service>'
p203
sS'OBJECT'
p204
S"<class 'gluon.html.OBJECT'>"
p205
sS'_file'
p206
S'<gluon.html.XML object>'
p207
sS'SQLDB'
p208
S"<class 'gluon.sql.SQLDB'>"
p209
sg148
S"<Storage {'_formkey[comentarios_create]': 'ceec8ccd-7b0e-4eba-985e-a5280ad92f99', 'auth': None}>"
p210
sS'LINK'
p211
S"<class 'gluon.html.LINK'>"
p212
sS'Auth'
p213
S"<class 'gluon.tools.Auth'>"
p214
sS'BR'
p215
S"<class 'gluon.html.BR'>"
p216
sS'local_import'
p217
S'<function <lambda>>'
p218
sS'OPTGROUP'
p219
S"<class 'gluon.html.OPTGROUP'>"
p220
sS'PRE'
p221
S"<class 'gluon.html.PRE'>"
p222
sS'IS_INT_IN_RANGE'
p223
S"<class 'gluon.validators.IS_INT_IN_RANGE'>"
p224
sS'IS_LOWER'
p225
S"<class 'gluon.validators.IS_LOWER'>"
p226
sS'IS_STRONG'
p227
S"<class 'gluon.validators.IS_STRONG'>"
p228
sS'datetime'
p229
S"<module 'datetime' from '/usr/lib/python2.6/lib-dynload/datetime.so'>"
p230
sS'Recaptcha'
p231
S"<class 'gluon.tools.Recaptcha'>"
p232
sS'cache'
p233
S'<gluon.cache.Cache object>'
p234
sS'IS_IN_DB'
p235
S"<class 'gluon.validators.IS_IN_DB'>"
p236
sS'TAG'
p237
S'<gluon.html.__TAG__ object>'
p238
sS'_k'
p239
S'4'
sS'SQLField'
p240
S"<class 'gluon.sql.Field'>"
p241
sS'mail'
p242
S'<gluon.tools.Mail object>'
p243
sS'BODY'
p244
S"<class 'gluon.html.BODY'>"
p245
sS'IS_DATE_IN_RANGE'
p246
S"<class 'gluon.validators.IS_DATE_IN_RANGE'>"
p247
sS'TH'
p248
S"<class 'gluon.html.TH'>"
p249
sS'URL'
p250
S'<function _URL>'
p251
sS'db'
p252
S"<SQLDB {'auth_event': <Table {'origin': <gluon.s..., 'id': <gluon.sql.Field object at 0x9b05b6c>}>}>"
p253
sS'auth'
p254
S'<gluon.tools.Auth object>'
p255
sS'P'
S"<class 'gluon.html.P'>"
p256
sS'TFOOT'
p257
S"<class 'gluon.html.TFOOT'>"
p258
sS'XHTML'
p259
S"<class 'gluon.html.XHTML'>"
p260
sg89
S'datetime.datetime(2010, 10, 24, 22, 23, 13, 554531)'
p261
sS'ON'
p262
S'True'
p263
sS'OL'
p264
S"<class 'gluon.html.OL'>"
p265
sS'TEXTAREA'
p266
S"<class 'gluon.html.TEXTAREA'>"
p267
sS'MENU'
p268
S"<class 'gluon.html.MENU'>"
p269
sS'LOAD'
p270
S'<gluon.compileapp.LoadFactory instance>'
p271
sS'CODE'
p272
S"<class 'gluon.html.CODE'>"
p273
sS'HTTP'
p274
S"<class 'gluon.http.HTTP'>"
p275
sS'HR'
p276
S"<class 'gluon.html.HR'>"
p277
sS'IS_DATETIME'
p278
S"<class 'gluon.validators.IS_DATETIME'>"
p279
sS'HEAD'
p280
S"<class 'gluon.html.HEAD'>"
p281
sS'LABEL'
p282
S"<class 'gluon.html.LABEL'>"
p283
sS'CLEANUP'
p284
S"<class 'gluon.validators.CLEANUP'>"
p285
sS'plugins'
p286
S'<gluon.tools.PluginManager object>'
p287
sS'SELECT'
p288
S"<class 'gluon.html.SELECT'>"
p289
sS'CENTER'
p290
S"<class 'gluon.html.CENTER'>"
p291
sS'prettydate'
p292
S'<function prettydate>'
p293
sS'Crud'
p294
S"<class 'gluon.tools.Crud'>"
p295
sS'comments'
p296
S"{1L: {'comentario': 'gracias amigo imaginario', 'correo': 'jcmm986@gmail.com', 'fecha': '2010-10-24 20:05:17', 'id': 1L, 'id_articulo': 5, 'nombre': 'Jennifer', 'titulo': 'mi primera vez', 'url': '', 'visible': None}, 2L: {'comentario': 'comentarios fastidioso', 'correo': 'jcmm986@gmail.com', 'fecha': '2010-10-24 22:09:41', 'id': 2L, 'id_articulo': 5, 'nombre': 'Jennifer', 'titulo': 'este comentario esta fastidioso', 'url': '', 'visible': None}, 3L: {'comentario': 'Probemos de nuevo', 'correo': 'probador@anonimo.com', 'fecha': '2010-10-24 23:53:31', 'id': 3L, 'id_articulo': 5, 'nombre': 'probador anonimo', 'titulo': 'comentario de prueba', 'url': '', 'visible': None}}"
p297
sS'__builtins__'
p298
S"{'ArithmeticError': <type 'exceptions.ArithmeticError'>, 'AssertionError': <type 'exceptions.AssertionError'>, 'AttributeError': <type 'exceptions.AttributeError'>, 'BaseException': <type 'exceptions.BaseException'>, 'BufferError': <type 'exceptions.BufferError'>, 'BytesWarning': <type 'exceptions.BytesWarning'>, 'DeprecationWarning': <type 'exceptions.DeprecationWarning'>, 'EOFError': <type 'exceptions.EOFError'>, 'Ellipsis': Ellipsis, 'EnvironmentError': <type 'exceptions.EnvironmentError'>, ...}"
p299
sS'IS_LIST_OF'
p300
S"<class 'gluon.validators.IS_LIST_OF'>"
p301
sS'SQLFORM'
p302
S"<class 'gluon.sqlhtml.SQLFORM'>"
p303
sS'_item'
p304
S"'author'"
p305
sS'EM'
p306
S"<class 'gluon.html.EM'>"
p307
sS'redirect'
p308
S'<function redirect>'
p309
sS'FIELDSET'
p310
S"<class 'gluon.html.FIELDSET'>"
p311
sS'IS_EQUAL_TO'
p312
S"<class 'gluon.validators.IS_EQUAL_TO'>"
p313
sS'embed64'
p314
S'<function embed64>'
p315
sS'INPUT'
p316
S"<class 'gluon.html.INPUT'>"
p317
sS'post'
p318
S"<Row {'articulos': <Row {'update_record': <funct...cdc>}>, 'usuarios': <Row {'usuario': 'j3nnn1'}>}>"
p319
sS'FORM'
p320
S"<class 'gluon.html.FORM'>"
p321
sS'H2'
p322
S"<class 'gluon.html.H2'>"
p323
sS'H3'
p324
S"<class 'gluon.html.H3'>"
p325
sS'H1'
p326
S"<class 'gluon.html.H1'>"
p327
sS'H6'
p328
S"<class 'gluon.html.H6'>"
p329
sS'H4'
p330
S"<class 'gluon.html.H4'>"
p331
sS'H5'
p332
S"<class 'gluon.html.H5'>"
p333
sS'UL'
p334
S"<class 'gluon.html.UL'>"
p335
sS'IS_UPPER'
p336
S"<class 'gluon.validators.IS_UPPER'>"
p337
sS'xmlescape'
p338
S'<function xmlescape>'
p339
sS'IS_TIME'
p340
S"<class 'gluon.validators.IS_TIME'>"
p341
sS'OPTION'
p342
S"<class 'gluon.html.OPTION'>"
p343
sS'TITLE'
p344
S"<class 'gluon.html.TITLE'>"
p345
sS'CRYPT'
p346
S"<class 'gluon.validators.CRYPT'>"
p347
sS'IS_EMPTY_OR'
p348
S"<class 'gluon.validators.IS_EMPTY_OR'>"
p349
sS'MARKMIN'
p350
S"<class 'gluon.html.MARKMIN'>"
p351
sS'EMBED'
p352
S"<class 'gluon.html.EMBED'>"
p353
sS'service'
p354
S'<gluon.tools.Service instance>'
p355
sS'SCRIPT'
p356
S"<class 'gluon.html.SCRIPT'>"
p357
sS'geocode'
p358
S'<function geocode>'
p359
sS'TABLE'
p360
S"<class 'gluon.html.TABLE'>"
p361
sS'IS_IPV4'
p362
S"<class 'gluon.validators.IS_IPV4'>"
p363
sS'IS_LENGTH'
p364
S"<class 'gluon.validators.IS_LENGTH'>"
p365
sS'XML'
p366
S"<class 'gluon.html.XML'>"
p367
sS'B'
S"<class 'gluon.html.B'>"
p368
sS'form'
p369
S'<gluon.sqlhtml.SQLFORM object>'
p370
sS'SQLTABLE'
p371
S"<class 'gluon.sqlhtml.SQLTABLE'>"
p372
sS'IS_MATCH'
p373
S"<class 'gluon.validators.IS_MATCH'>"
p374
sS'IS_ALPHANUMERIC'
p375
S"<class 'gluon.validators.IS_ALPHANUMERIC'>"
p376
sS'SPAN'
p377
S"<class 'gluon.html.SPAN'>"
p378
sS'IS_SLUG'
p379
S"<class 'gluon.validators.IS_SLUG'>"
p380
sS'BEAUTIFY'
p381
S"<class 'gluon.html.BEAUTIFY'>"
p382
sS'META'
p383
S"<class 'gluon.html.META'>"
p384
sS'fetch'
p385
S'<function fetch>'
p386
sS'IS_DATE'
p387
S"<class 'gluon.validators.IS_DATE'>"
p388
sS'IS_EMAIL'
p389
S"<class 'gluon.validators.IS_EMAIL'>"
p390
sS'IS_NOT_EMPTY'
p391
S"<class 'gluon.validators.IS_NOT_EMPTY'>"
p392
sg54
S"<Storage {'function': 'viewpost', 'body': <open ...5d8a2bdc5', '_formname': 'comentarios_create'}>}>"
p393
sS'TBODY'
p394
S"<class 'gluon.html.TBODY'>"
p395
sS'Field'
p396
S"<class 'gluon.sql.Field'>"
p397
sS'Mail'
p398
S"<class 'gluon.tools.Mail'>"
p399
sS'DIV'
p400
S"<class 'gluon.html.DIV'>"
p401
sS'LEGEND'
p402
S"<class 'gluon.html.LEGEND'>"
p403
sS'IMG'
p404
S"<class 'gluon.html.IMG'>"
p405
sS'DAL'
p406
S'<function DAL>'
p407
sS'TT'
p408
S"<class 'gluon.html.TT'>"
p409
sS'TR'
p410
S"<class 'gluon.html.TR'>"
p411
sS'LI'
p412
S"<class 'gluon.html.LI'>"
p413
sS'IFRAME'
p414
S"<class 'gluon.html.IFRAME'>"
p415
sS'TD'
p416
S"<class 'gluon.html.TD'>"
p417
sS'PluginManager'
p418
S"<class 'gluon.tools.PluginManager'>"
p419
sS'IS_URL'
p420
S"<class 'gluon.validators.IS_URL'>"
p421
sS'A'
S"<class 'gluon.html.A'>"
p422
sS'STYLE'
p423
S"<class 'gluon.html.STYLE'>"
p424
sS'IS_DATETIME_IN_RANGE'
p425
S"<class 'gluon.validators.IS_DATETIME_IN_RANGE'>"
p426
sS'HTML'
p427
S"<class 'gluon.html.HTML'>"
p428
sS'IS_IMAGE'
p429
S"<class 'gluon.validators.IS_IMAGE'>"
p430
sS'I'
S"<class 'gluon.html.I'>"
p431
sS'crud'
p432
S'<gluon.tools.Crud object>'
p433
sS'IS_NOT_IN_DB'
p434
S"<class 'gluon.validators.IS_NOT_IN_DB'>"
p435
sg158
S"<Storage {'status': 200, 'body': <cStringIO.Stri...object at 0x983faec>], '_custom_rollback': None}>"
p436
sS'THEAD'
p437
S"<class 'gluon.html.THEAD'>"
p438
sS'IS_NULL_OR'
p439
S"<class 'gluon.validators.IS_EMPTY_OR'>"
p440
sS'IS_FLOAT_IN_RANGE'
p441
S"<class 'gluon.validators.IS_FLOAT_IN_RANGE'>"
p442
sS'IS_EXPR'
p443
S"<class 'gluon.validators.IS_EXPR'>"
p444
sS'T'
S'<gluon.languages.translator object>'
p445
sS'IS_IN_SET'
p446
S"<class 'gluon.validators.IS_IN_SET'>"
p447
sS'IS_UPLOAD_FILENAME'
p448
S"<class 'gluon.validators.IS_UPLOAD_FILENAME'>"
p449
sS'IS_DECIMAL_IN_RANGE'
p450
S"<class 'gluon.validators.IS_DECIMAL_IN_RANGE'>"
p451
sssS'traceback'
p452
S'Traceback (most recent call last):\n  File "/home/j3nnn1/git/pyj3nnn1/web2py/gluon/restricted.py", line 188, in restricted\n    exec ccode in environment\n  File "/home/j3nnn1/git/pyj3nnn1/web2py/applications/blog/views/default/viewpost.html", line 84, in <module>\nKeyError: 0\n'
p453
s.