(dp1
S'output'
p2
S'missing "pass" in view'
p3
sS'layer'
p4
S'ParserContainer'
p5
sS'code'
p6
S'response.write(\'<!DOCTYPE html PUBLIC "-//W3C//DTD XHTML 1.0 Strict//EN" "http://www.w3.org/TR/xhtml1/DTD/xhtml1-strict.dtd">\\n<!--\\nDesign by Free CSS Templates\\nhttp://www.freecsstemplates.org\\nReleased for free under a Creative Commons Attribution 2.5 License\\n\\nName       : Blogging\\nDescription: A two-column, fixed-width design for 1024x768 screen resolutions.\\nVersion    : 1.0\\nReleased   : 20090208\\n\\n-->\\n<html xmlns="http://www.w3.org/1999/xhtml">\\n <head>\\n  <title>\\n   \', escape=False)\nresponse.write(response.title or request.application)\nresponse.write(\'\\n  </title>\\n  \', escape=False)\nresponse.files.append(URL(request.application,\'static\',\'plugin_layouts/layouts/Blogging/style.css\'))\nresponse.write(\'\\n\', escape=False)\nresponse.files.append(URL(\'static\',\'superfish.js\'))\nresponse.write(\'\\n  \', escape=False)\nresponse.files.insert(0,URL(r=request,c=\'static\',f=\'jquery.js\'))\nresponse.files.insert(1,URL(r=request,c=\'static\',f=\'calendar.css\'))\nresponse.files.insert(2,URL(r=request,c=\'static\',f=\'calendar.js\'))\nfor _item in response.meta or []:\n    response.write(\'\\n     <meta name="\', escape=False)\n    response.write(_item)\n    response.write(\'" content="\', escape=False)\n    response.write(response.meta[_item])\n    response.write(\'" />\', escape=False)\n    pass\nfor _k,_file in enumerate(response.files or []):\n    if _file in response.files[:_k]:\n        continue\n    elif _file.lower().endswith(\'.css\'):\n        response.write(\'\\n     <link href="\', escape=False)\n        response.write(_file)\n        response.write(\'" rel="stylesheet" type="text/css" />\', escape=False)\n    elif _file.lower().endswith(\'.js\'):\n        response.write(\'\\n     <script src="\', escape=False)\n        response.write(_file)\n        response.write(\'" type="text/javascript"></script>\', escape=False)\n        pass\n    pass\nresponse.write(\'\\n<script type="text/javascript"><!--\\nfunction popup(url) {\\n  newwindow=window.open(url,\\\'name\\\',\\\'height=400,width=600\\\');\\n  if (window.focus) newwindow.focus();\\n  return false;\\n}\\nfunction collapse(id) { jQuery(\\\'#\\\'+id).slideToggle(); }\\nfunction fade(id,value) { if(value>0) jQuery(\\\'#\\\'+id).hide().fadeIn(\\\'slow\\\'); else jQuery(\\\'#\\\'+id).show().fadeOut(\\\'slow\\\'); }\\nfunction ajax(u,s,t) {\\n    query = \\\'\\\';\\n    if (typeof s == "string") {\\n        d = jQuery(s).serialize();\\n        if(d){ query = d; }\\n    } else {\\n        pcs = [];\\n        for(i=0; i<s.length; i++) {\\n            q = jQuery("[name="+s[i]+"]").serialize();\\n            if(q){pcs.push(q);}\\n        }\\n        if (pcs.length>0){query = pcs.join("&");}\\n    }\\n    jQuery.ajax({type: "POST", url: u, data: query, success: function(msg) { if(t) { if(t==\\\':eval\\\') eval(msg); else jQuery("#" + t).html(msg); } } }); \\n}\\nString.prototype.reverse = function () { return this.split(\\\'\\\').reverse().join(\\\'\\\');};\\nfunction web2py_ajax_init() {\\n  jQuery(\\\'.hidden\\\').hide();\\n  jQuery(\\\'.error\\\').hide().slideDown(\\\'slow\\\');\\n  jQuery(\\\'.flash\\\').click(function() { jQuery(this).fadeOut(\\\'slow\\\'); return false; });\\n  jQuery(\\\'input[type=submit]\\\').click(function(){var t=jQuery(this);t.hide();t.after(\\\'<input class="submit_disabled" disabled="disabled" type="submit" name="\\\'+t.attr("name")+\\\'_dummy" value="\\\'+t.val()+\\\'">\\\')});\\n  jQuery(\\\'input.integer\\\').keyup(function(){this.value=this.value.reverse().replace(/[^0-9\\\\-]|\\\\-(?=.)/g,\\\'\\\').reverse();});\\n  jQuery(\\\'input.double,input.decimal\\\').keyup(function(){this.value=this.value.reverse().replace(/[^0-9\\\\-\\\\.]|[\\\\-](?=.)|[\\\\.](?=[0-9]*[\\\\.])/g,\\\'\\\').reverse();});\\n  jQuery("input[type=\\\'checkbox\\\'].delete").each(function(){jQuery(this).click(function() { if(this.checked) if(!confirm("\', escape=False)\nresponse.write(T(\'Sure you want to delete this object?\'))\nresponse.write(\'")) this.checked=false; });});\\n  try {jQuery("input.date").focus( function() {Calendar.setup({\\n     inputField:this.id, ifFormat:"\', escape=False)\nresponse.write(T(\'%Y-%m-%d\'))\nresponse.write(\'", showsTime:false\\n  }); }); } catch(e) {};\\n  try { jQuery("input.datetime").focus( function() {Calendar.setup({\\n     inputField:this.id, ifFormat:"\', escape=False)\nresponse.write(T(\'%Y-%m-%d %H:%M:%S\'))\nresponse.write(\'", showsTime: true,timeFormat: "24"\\n  }); }); } catch(e) {};\\n  try { jQuery("input.time").clockpick({\\n      starthour:0, endhour:23, showminutes:true, military:true\\n  }); } catch(e) {};\\n};\\njQuery(document).ready(function(){\\n   jQuery(\\\'.flash\\\').hide();\\n   if(jQuery(\\\'.flash\\\').html()!=\\\'\\\') jQuery(\\\'.flash\\\').slideDown(\\\'slow\\\');\\n   web2py_ajax_init();});\\n\\nfunction web2py_trap_form(action,target) {\\n   jQuery(\\\'#\\\'+target+\\\' form\\\').each(function(i){\\n      var form=jQuery(this);\\n      if(!form.hasClass(\\\'no_trap\\\'))\\n        form.submit(function(obj){\\n         jQuery(\\\'.flash\\\').hide().html(\\\'\\\');\\n         web2py_ajax_page(\\\'post\\\',action,form.serialize(),target);\\n         return false;\\n      });\\n   });\\n}\\n\\nfunction web2py_ajax_page(method,action,data,target) {\\n  jQuery.ajax({\\\'type\\\':method,\\\'url\\\':action,\\\'data\\\':data,\\n    \\\'beforeSend\\\':function(xhr) {\\n      xhr.setRequestHeader(\\\'web2py-component-location\\\',document.location);\\n      xhr.setRequestHeader(\\\'web2py-component-element\\\',target);},\\n    \\\'complete\\\':function(xhr,text){\\n      var html=xhr.responseText;\\n      var content=xhr.getResponseHeader(\\\'web2py-component-content\\\'); \\n      var command=xhr.getResponseHeader(\\\'web2py-component-command\\\');\\n      var flash=xhr.getResponseHeader(\\\'web2py-component-flash\\\');\\n      var t = jQuery(\\\'#\\\'+target);\\n      if(content==\\\'prepend\\\') t.prepend(html); \\n      else if(content==\\\'append\\\') t.append(html);\\n      else if(content!=\\\'hide\\\') t.html(html);  \\n      web2py_trap_form(action,target);\\n      web2py_ajax_init();      \\n      if(command) eval(command);\\n      if(flash) jQuery(\\\'.flash\\\').html(flash).slideDown();\\n      }\\n    });\\n}\\nfunction web2py_component(action,target) {\\n    jQuery(document).ready(function(){ web2py_ajax_page(\\\'get\\\',action,null,target); });\\n}\\n//--></script>\\n\', escape=False)\nresponse.write(\'\\n  <style>\\nul.web2py-menu-vertical { width: 150px; position: relative; top:1em; left:1em;  z-index:30; border:0; margin:0; padding: 0; list-style: none; text-decoration: none;}\\nul.web2py-menu-vertical li { margin:0; padding:0; border:0; width: 150px; background: black; text-align:left;}\\nul.web2py-menu-vertical li a { margin:0; padding: 1px 3px 1px 3px; border:0; width: 144px; color: white; font-size:12px;}\\ndiv.flash { position: fixed; float: right; padding: 10px; top: 10px; right: 30px; opacity: 0.75; margin: 10px 10px 10px 10px; text-align: center; clear: both; color: #fff; font-size: 11pt; text-align: center; vertical-align: middle; cursor: pointer; background: black; border: 2px solid #fff; -moz-border-radius: 5px; -webkit-border-radius: 5px; z-index: 2; }\\ndiv.error { background-color: red; color: white; padding: 3px; }\\n.auth_navbar { text-align:right; z-index:20; position: absolute; top: 2px; right:30px; border:0; padding:0 }\\n  </style>\\n </head>\\n <body>\\n  <!-- start header -->\\n  \', escape=False)\ntry:\n    response.write(auth.navbar(action=URL(\'default\',\'user\')))\nexcept:pass\nresponse.write(\'\\n\\n  <div id="wrapper">\\n   <div id="header">\\n    <div id="menu">\\n     \', escape=False)\nresponse.write(MENU(response.menu,_class=\'web2py-menu\'))\nresponse.write(\'\\n    <script>\\n      jQuery(document).ready(function(){jQuery(\\\'ul.web2py-menu\\\').superfish({delay:400});});\\n    </script>\\n    </div>\\n    <!-- end #menu -->\\n    <div id="search">\\n     <form method="get" action="">\\n      <fieldset>\\n       <input type="text" name="s" id="search-text" size="15" />\\n       <input type="submit" id="search-submit" value="Search" />\\n      </fieldset>\\n     </form>\\n    </div>\\n    <!-- end #search -->\\n   </div>\\n   <!-- end #header -->\\n   <div id="logo">\\n    <h1>\\n     \', escape=False)\nresponse.write(response.title or request.application)\nresponse.write(\'\\n    </h1>\\n    <p>\\n     <em>\\n      template design by\\n      <a href="#">\\n       Expropiada Templates\\n      </a>\\n     </em>\\n    </p>\\n   </div>\\n   <hr />\\n   <!-- end #logo -->\\n   <!-- end #header-wrapper -->\\n   <div id="page">\\n    <div id="content">\\n     <div class="flash">\', escape=False)\nresponse.write(response.flash or \'\')\nresponse.write(\'</div>\\n     \', escape=False)\nresponse.write(" \\n<div class=\'content\'>\\n    <ul>\\n        <li> ", escape=False)\nresponse.write(H3(A(T("Crear nueva entrada"), _class=\'link\', _href=\'createpost\'), _class=\'title\'))\nresponse.write(\' </li>\\n\\t<li> \', escape=False)\nresponse.write(H3(A(T("Modificar o Eliminar Entrada"), _class=\'link\'), _class=\'title\'))\nresponse.write(\'</li>\\n    </ul>\\n<table>\\n\', escape=False)\nfor registro in tableart:\n    response.write(\'\\n    <tr>\\n\\t<td>\\n\\t    \', escape=False)\n    response.write(T(registro.titulo))\n    response.write(\'\\n\\t</td>\\n\\t<td>\\n\\t    \', escape=False)\n    response.write(T(registro.fecha))\n    response.write(\'\\n\\t</td>\\n\\t<td>\\n\\t    \', escape=False)\n    response.write(A(registro.id, _href=\'modifypost\',args=registro.id))\n    response.write(\'\\n\\t</td>\\n\\t<td>\\n\\t    \', escape=False)\n    response.write(A(registro.id, _href=\'deletepost\',args=registro.id))\n    response.write(\'\\n\\t</td>\\n    </tr>\\n</table>\\n</div>\\n\\n\', escape=False)\n    response.write(\'\\n    </div>\\n    <!-- end #content -->\\n    <div id="sidebar">\\n     <ul>\\n      <li>\\n       <h2> Twitter Busqueda: perl</h2>\\n       <p>\\n        Mauris vitae nisl nec metus placerat perdiet est. Phasellus dapibus semper urna. Pellentesque ornare, orci in consectetuer hendrerit, volutpat.\\n       </p>\\n      </li>\\n      <li>\\n       <h2>\\n        Twitter Busqueda: python\\n       </h2>\\n       <ul>\\n        <li>\\n         <a href="#">\\n         </a>\\n         <a href="#">\\n          Nec metus sed donec\\n         </a>\\n        </li>\\n        <li>\\n         <a href="#">\\n          Magna lacus bibendum mauris\\n         </a>\\n        </li>\\n        <li>\\n         <a href="#">\\n          Velit semper nisi molestie\\n         </a>\\n        </li>\\n        <li>\\n         <a href="#">\\n          Eget tempor eget nonummy\\n         </a>\\n        </li>\\n        <li>\\n         <a href="#">\\n          Nec metus sed donec\\n         </a>\\n        </li>\\n       </ul>\\n      </li>\\n     </ul>\\n     <ul>\\n     <li>\\n       <h2>\\n        Mi Twitter\\n       </h2>\\n       <p> aca va twitter </p>\\n      </li>\\n     <ul>\\n    </div>\\n    <!-- end #sidebar -->\\n    <div style="clear: both;">\\n     &nbsp;\\n    </div>\\n   </div>\\n   <!-- end #page -->\\n   <div id="footer">\\n    <p> .:B106 d3 j3nnn1:.</p>\\n   </div>\\n   <!-- end #footer -->\\n  </div>\\n </body>\\n</html>\\n\', escape=False)'
p7
sS'snapshot'
p8
(dp9
S'exception'
p10
(dp11
S'__module__'
p12
S"'gluon.rocket'"
p13
sS'__getslice__'
p14
S"<method-wrapper '__getslice__' of SocketClosed object>"
p15
sS'__str__'
p16
S"<method-wrapper '__str__' of SocketClosed object>"
p17
sS'__reduce__'
p18
S'<built-in method __reduce__ of SocketClosed object>'
p19
sS'__dict__'
p20
S'{}'
p21
sS'__sizeof__'
p22
S'<built-in method __sizeof__ of SocketClosed object>'
p23
sS'__weakref__'
p24
S'None'
p25
sS'__init__'
p26
S"<method-wrapper '__init__' of SocketClosed object>"
p27
sS'__setattr__'
p28
S"<method-wrapper '__setattr__' of SocketClosed object>"
p29
sS'__reduce_ex__'
p30
S'<built-in method __reduce_ex__ of SocketClosed object>'
p31
sS'__new__'
p32
S'<built-in method __new__ of type object>'
p33
sS'__format__'
p34
S'<built-in method __format__ of SocketClosed object>'
p35
sS'__class__'
p36
S"<class 'gluon.rocket.SocketClosed'>"
p37
sS'__doc__'
p38
S"'Exception for when a socket is closed by the client.'"
p39
sS'__getitem__'
p40
S"<method-wrapper '__getitem__' of SocketClosed object>"
p41
sS'__setstate__'
p42
S'<built-in method __setstate__ of SocketClosed object>'
p43
sS'__getattribute__'
p44
S"<method-wrapper '__getattribute__' of SocketClosed object>"
p45
sS'args'
p46
S"('Client closed socket.',)"
p47
sS'__subclasshook__'
p48
S'<built-in method __subclasshook__ of type object>'
p49
sS'__unicode__'
p50
S'<built-in method __unicode__ of SocketClosed object>'
p51
sS'__delattr__'
p52
S"<method-wrapper '__delattr__' of SocketClosed object>"
p53
sS'__repr__'
p54
S"<method-wrapper '__repr__' of SocketClosed object>"
p55
sS'__hash__'
p56
S"<method-wrapper '__hash__' of SocketClosed object>"
p57
ssS'evalue'
p58
S'Client closed socket.'
p59
sS'frames'
p60
(lp61
(dp62
S'file'
p63
S'/cygdrive/e/Documents and Settings/jmaldo03/git/pyj3nnn1/pyj3nnn1/web2py/gluon/rocket.py'
p64
sS'dump'
p65
(dp66
S'self'
p67
S'<WSGIWorker(Thread-5, started daemon 7871128)>'
p68
sS'conn'
p69
S'<socket._socketobject object>'
p70
sS'self.run_app'
p71
S'<bound method WSGIWorker.run_app of <WSGIWorker(Thread-5, started daemon 7871128)>>'
p72
ssS'lnum'
p73
I876
sS'lines'
p74
(dp75
I871
S''
sI872
S'            # Enter connection serve loop'
p76
sI873
S'            while True:'
p77
sI874
S"                self.err_log.debug('Serving a request')"
p78
sI875
S'                try:'
p79
sI876
S'                    self.run_app(conn)'
p80
sI877
S'                    log_info = dict(client_ip = conn.client_addr,'
p81
sI878
S"                                    time = datetime.now().strftime('%c'),"
p82
sI879
S"                                    status = self.status.split(' ')[0],"
p83
sI880
S'                                    size = self.size,'
p84
ssS'call'
p85
S'(self=<WSGIWorker(Thread-5, started daemon 7871128)>)'
p86
sS'func'
p87
S'run'
p88
sa(dp89
g63
S'/cygdrive/e/Documents and Settings/jmaldo03/git/pyj3nnn1/pyj3nnn1/web2py/gluon/rocket.py'
p90
sg65
(dp91
S'self'
p92
S'<WSGIWorker(Thread-5, started daemon 7871128)>'
p93
sS'self.environ'
p94
S"{'HTTP_ACCEPT': 'text/html,application/xhtml+xml,application/xml;q=0.9,*/*;q=0.8', 'HTTP_ACCEPT_CHARSET': 'ISO-8859-1,utf-8;q=0.7,*;q=0.7', 'HTTP_ACCEPT_ENCODING': 'gzip,deflate', 'HTTP_ACCEPT_LANGUAGE': 'es-es,es;q=0.8,en-us;q=0.5,en;q=0.3', 'HTTP_CONNECTION': 'keep-alive', 'HTTP_COOKIE': 'session_id_welcome=127-0-0-1-abbacfdd-6a37-4a45-...og=127-0-0-1-fee2cd34-3e42-44cb-bee6-3936b80cedc4', 'HTTP_HOST': '127.0.0.1:8000', 'HTTP_KEEP_ALIVE': '115', 'HTTP_REFERER': 'http://127.0.0.1:8000/blog/default/index', 'HTTP_USER_AGENT': 'Mozilla/5.0 (Windows; U; Windows NT 5.1; es-ES; rv:1.9.2.11) Gecko/20101012 Firefox/3.6.11', ...}"
p95
sS'sock_file'
p96
S'<socket._fileobject object>'
p97
sS'environ'
p98
S'undefined'
p99
sS'self.build_environ'
p100
S'<bound method WSGIWorker.build_environ of <WSGIWorker(Thread-5, started daemon 7871128)>>'
p101
sS'conn'
p102
S'<socket._socketobject object>'
p103
ssg73
I1286
sg74
(dp104
I1281
S'        # Build our file-like object'
p105
sI1282
S"        sock_file = conn.makefile('rb',BUF_SIZE)"
p106
sI1283
S''
sI1284
S'        try:'
p107
sI1285
S'            # Read the headers and build our WSGI environment'
p108
sI1286
S'            self.environ = environ = self.build_environ(sock_file, conn)'
p109
sI1287
S''
sI1288
S'            # Handle 100 Continue'
p110
sI1289
S"            if environ.get('HTTP_EXPECT', '').lower() == '100-continue':"
p111
sI1290
S"                res = environ['SERVER_PROTOCOL'] + ' 100 Continue\\r\\n\\r\\n'"
p112
ssg85
S'(self=<WSGIWorker(Thread-5, started daemon 7871128)>, conn=<socket._socketobject object>)'
p113
sg87
S'run_app'
p114
sa(dp115
g63
S'/cygdrive/e/Documents and Settings/jmaldo03/git/pyj3nnn1/pyj3nnn1/web2py/gluon/rocket.py'
p116
sg65
(dp117
S'sock_file'
p118
S'<socket._fileobject object>'
p119
sS'self.read_request_line'
p120
S'<bound method WSGIWorker.read_request_line of <WSGIWorker(Thread-5, started daemon 7871128)>>'
p121
sS'self'
p122
S'<WSGIWorker(Thread-5, started daemon 7871128)>'
p123
sS'request'
p124
g99
ssg73
I1119
sg74
(dp125
I1120
S''
sI1121
S'        # Grab the headers'
p126
sI1122
S"        self.headers = dict([(str('HTTP_'+k.upper()), v) for k, v in self.read_headers(sock_file).items()])"
p127
sI1123
S''
sI1114
S'        Worker.__init__(self)'
p128
sI1115
S''
sI1116
S'    def build_environ(self, sock_file, conn):'
p129
sI1117
S'        """ Build the execution environment. """'
p130
sI1118
S'        # Grab the request line'
p131
sI1119
S'        request = self.read_request_line(sock_file)'
p132
ssg85
S'(self=<WSGIWorker(Thread-5, started daemon 7871128)>, sock_file=<socket._fileobject object>, conn=<socket._socketobject object>)'
p133
sg87
S'build_environ'
p134
sa(dp135
g63
S'/cygdrive/e/Documents and Settings/jmaldo03/git/pyj3nnn1/pyj3nnn1/web2py/gluon/rocket.py'
p136
sg65
(dp137
S'global SocketClosed'
p138
S"<class 'gluon.rocket.SocketClosed'>"
p139
ssg73
I947
sg74
(dp140
I942
S'        except socket.timeout:'
p141
sI943
S'            raise SocketTimeout("Socket timed out before request.")'
p142
sI944
S''
sI945
S"        if d.strip() == '':"
p143
sI946
S"            self.err_log.debug('Client did not send a recognizable request.')"
p144
sI947
S"            raise SocketClosed('Client closed socket.')"
p145
sI948
S''
sI949
S'        try:'
p146
sI950
S'            self.request_line = d.strip()'
p147
sI951
S"            method, uri, proto = self.request_line.split(' ')"
p148
ssg85
S'(self=<WSGIWorker(Thread-5, started daemon 7871128)>, sock_file=<socket._fileobject object>)'
p149
sg87
S'read_request_line'
p150
sasS'pyver'
p151
S'Python 2.6.5: /usr/bin/python'
p152
sS'etype'
p153
S"<class 'gluon.rocket.SocketClosed'>"
p154
sS'date'
p155
S'Mon Oct 25 10:59:48 2010'
p156
sS'locals'
p157
(dp158
S'sock_file'
p159
S'<socket._fileobject object>'
p160
sS'self'
p161
S'<WSGIWorker(Thread-5, started daemon 7871128)>'
p162
sS'd'
S"''"
p163
sssS'traceback'
p164
S'Traceback (most recent call last):\n  File "/cygdrive/e/Documents and Settings/jmaldo03/git/pyj3nnn1/pyj3nnn1/web2py/gluon/rocket.py", line 876, in run\n    self.run_app(conn)\n  File "/cygdrive/e/Documents and Settings/jmaldo03/git/pyj3nnn1/pyj3nnn1/web2py/gluon/rocket.py", line 1286, in run_app\n    self.environ = environ = self.build_environ(sock_file, conn)\n  File "/cygdrive/e/Documents and Settings/jmaldo03/git/pyj3nnn1/pyj3nnn1/web2py/gluon/rocket.py", line 1119, in build_environ\n    request = self.read_request_line(sock_file)\n  File "/cygdrive/e/Documents and Settings/jmaldo03/git/pyj3nnn1/pyj3nnn1/web2py/gluon/rocket.py", line 947, in read_request_line\n    raise SocketClosed(\'Client closed socket.\')\nSocketClosed: Client closed socket.\n'
p165
s.