(dp1
S'output'
p2
S''
sS'layer'
p3
S'/cygdrive/e/Documents and Settings/jmaldo03/git/pyj3nnn1/pyj3nnn1/web2py/applications/blog/views/default/index.html'
p4
sS'code'
p5
S'response.write(\'<!DOCTYPE html PUBLIC "-//W3C//DTD XHTML 1.0 Strict//EN" "http://www.w3.org/TR/xhtml1/DTD/xhtml1-strict.dtd">\\n<!--\\nDesign by Free CSS Templates\\nhttp://www.freecsstemplates.org\\nReleased for free under a Creative Commons Attribution 2.5 License\\n\\nName       : Blogging\\nDescription: A two-column, fixed-width design for 1024x768 screen resolutions.\\nVersion    : 1.0\\nReleased   : 20090208\\n\\n-->\\n<html xmlns="http://www.w3.org/1999/xhtml">\\n <head>\\n  <title>\\n   \', escape=False)\nresponse.write(response.title or request.application)\nresponse.write(\'\\n  </title>\\n  \', escape=False)\nresponse.files.append(URL(request.application,\'static\',\'plugin_layouts/layouts/Blogging/style.css\'))\nresponse.write(\'\\n\', escape=False)\nresponse.files.append(URL(\'static\',\'superfish.js\'))\nresponse.write(\'\\n  \', escape=False)\nresponse.files.insert(0,URL(r=request,c=\'static\',f=\'jquery.js\'))\nresponse.files.insert(1,URL(r=request,c=\'static\',f=\'calendar.css\'))\nresponse.files.insert(2,URL(r=request,c=\'static\',f=\'calendar.js\'))\nfor _item in response.meta or []:\n    response.write(\'\\n     <meta name="\', escape=False)\n    response.write(_item)\n    response.write(\'" content="\', escape=False)\n    response.write(response.meta[_item])\n    response.write(\'" />\', escape=False)\n    pass\nfor _k,_file in enumerate(response.files or []):\n    if _file in response.files[:_k]:\n        continue\n    elif _file.lower().endswith(\'.css\'):\n        response.write(\'\\n     <link href="\', escape=False)\n        response.write(_file)\n        response.write(\'" rel="stylesheet" type="text/css" />\', escape=False)\n    elif _file.lower().endswith(\'.js\'):\n        response.write(\'\\n     <script src="\', escape=False)\n        response.write(_file)\n        response.write(\'" type="text/javascript"></script>\', escape=False)\n        pass\n    pass\nresponse.write(\'\\n<script type="text/javascript"><!--\\nfunction popup(url) {\\n  newwindow=window.open(url,\\\'name\\\',\\\'height=400,width=600\\\');\\n  if (window.focus) newwindow.focus();\\n  return false;\\n}\\nfunction collapse(id) { jQuery(\\\'#\\\'+id).slideToggle(); }\\nfunction fade(id,value) { if(value>0) jQuery(\\\'#\\\'+id).hide().fadeIn(\\\'slow\\\'); else jQuery(\\\'#\\\'+id).show().fadeOut(\\\'slow\\\'); }\\nfunction ajax(u,s,t) {\\n    query = \\\'\\\';\\n    if (typeof s == "string") {\\n        d = jQuery(s).serialize();\\n        if(d){ query = d; }\\n    } else {\\n        pcs = [];\\n        for(i=0; i<s.length; i++) {\\n            q = jQuery("[name="+s[i]+"]").serialize();\\n            if(q){pcs.push(q);}\\n        }\\n        if (pcs.length>0){query = pcs.join("&");}\\n    }\\n    jQuery.ajax({type: "POST", url: u, data: query, success: function(msg) { if(t) { if(t==\\\':eval\\\') eval(msg); else jQuery("#" + t).html(msg); } } }); \\n}\\nString.prototype.reverse = function () { return this.split(\\\'\\\').reverse().join(\\\'\\\');};\\nfunction web2py_ajax_init() {\\n  jQuery(\\\'.hidden\\\').hide();\\n  jQuery(\\\'.error\\\').hide().slideDown(\\\'slow\\\');\\n  jQuery(\\\'.flash\\\').click(function() { jQuery(this).fadeOut(\\\'slow\\\'); return false; });\\n  jQuery(\\\'input[type=submit]\\\').click(function(){var t=jQuery(this);t.hide();t.after(\\\'<input class="submit_disabled" disabled="disabled" type="submit" name="\\\'+t.attr("name")+\\\'_dummy" value="\\\'+t.val()+\\\'">\\\')});\\n  jQuery(\\\'input.integer\\\').keyup(function(){this.value=this.value.reverse().replace(/[^0-9\\\\-]|\\\\-(?=.)/g,\\\'\\\').reverse();});\\n  jQuery(\\\'input.double,input.decimal\\\').keyup(function(){this.value=this.value.reverse().replace(/[^0-9\\\\-\\\\.]|[\\\\-](?=.)|[\\\\.](?=[0-9]*[\\\\.])/g,\\\'\\\').reverse();});\\n  jQuery("input[type=\\\'checkbox\\\'].delete").each(function(){jQuery(this).click(function() { if(this.checked) if(!confirm("\', escape=False)\nresponse.write(T(\'Sure you want to delete this object?\'))\nresponse.write(\'")) this.checked=false; });});\\n  try {jQuery("input.date").focus( function() {Calendar.setup({\\n     inputField:this.id, ifFormat:"\', escape=False)\nresponse.write(T(\'%Y-%m-%d\'))\nresponse.write(\'", showsTime:false\\n  }); }); } catch(e) {};\\n  try { jQuery("input.datetime").focus( function() {Calendar.setup({\\n     inputField:this.id, ifFormat:"\', escape=False)\nresponse.write(T(\'%Y-%m-%d %H:%M:%S\'))\nresponse.write(\'", showsTime: true,timeFormat: "24"\\n  }); }); } catch(e) {};\\n  try { jQuery("input.time").clockpick({\\n      starthour:0, endhour:23, showminutes:true, military:true\\n  }); } catch(e) {};\\n};\\njQuery(document).ready(function(){\\n   jQuery(\\\'.flash\\\').hide();\\n   if(jQuery(\\\'.flash\\\').html()!=\\\'\\\') jQuery(\\\'.flash\\\').slideDown(\\\'slow\\\');\\n   web2py_ajax_init();});\\n\\nfunction web2py_trap_form(action,target) {\\n   jQuery(\\\'#\\\'+target+\\\' form\\\').each(function(i){\\n      var form=jQuery(this);\\n      if(!form.hasClass(\\\'no_trap\\\'))\\n        form.submit(function(obj){\\n         jQuery(\\\'.flash\\\').hide().html(\\\'\\\');\\n         web2py_ajax_page(\\\'post\\\',action,form.serialize(),target);\\n         return false;\\n      });\\n   });\\n}\\n\\nfunction web2py_ajax_page(method,action,data,target) {\\n  jQuery.ajax({\\\'type\\\':method,\\\'url\\\':action,\\\'data\\\':data,\\n    \\\'beforeSend\\\':function(xhr) {\\n      xhr.setRequestHeader(\\\'web2py-component-location\\\',document.location);\\n      xhr.setRequestHeader(\\\'web2py-component-element\\\',target);},\\n    \\\'complete\\\':function(xhr,text){\\n      var html=xhr.responseText;\\n      var content=xhr.getResponseHeader(\\\'web2py-component-content\\\'); \\n      var command=xhr.getResponseHeader(\\\'web2py-component-command\\\');\\n      var flash=xhr.getResponseHeader(\\\'web2py-component-flash\\\');\\n      var t = jQuery(\\\'#\\\'+target);\\n      if(content==\\\'prepend\\\') t.prepend(html); \\n      else if(content==\\\'append\\\') t.append(html);\\n      else if(content!=\\\'hide\\\') t.html(html);  \\n      web2py_trap_form(action,target);\\n      web2py_ajax_init();      \\n      if(command) eval(command);\\n      if(flash) jQuery(\\\'.flash\\\').html(flash).slideDown();\\n      }\\n    });\\n}\\nfunction web2py_component(action,target) {\\n    jQuery(document).ready(function(){ web2py_ajax_page(\\\'get\\\',action,null,target); });\\n}\\n//--></script>\\n\', escape=False)\nresponse.write(\'\\n  <style>\\nul.web2py-menu-vertical { width: 150px; position: relative; top:1em; left:1em;  z-index:30; border:0; margin:0; padding: 0; list-style: none; text-decoration: none;}\\nul.web2py-menu-vertical li { margin:0; padding:0; border:0; width: 150px; background: black; text-align:left;}\\nul.web2py-menu-vertical li a { margin:0; padding: 1px 3px 1px 3px; border:0; width: 144px; color: white; font-size:12px;}\\ndiv.flash { position: fixed; float: right; padding: 10px; top: 10px; right: 30px; opacity: 0.75; margin: 10px 10px 10px 10px; text-align: center; clear: both; color: #fff; font-size: 11pt; text-align: center; vertical-align: middle; cursor: pointer; background: black; border: 2px solid #fff; -moz-border-radius: 5px; -webkit-border-radius: 5px; z-index: 2; }\\ndiv.error { background-color: red; color: white; padding: 3px; }\\n.auth_navbar { text-align:right; z-index:20; position: absolute; top: 2px; right:30px; border:0; padding:0 }\\n  </style>\\n </head>\\n <body>\\n  <!-- start header -->\\n  \', escape=False)\ntry:\n    response.write(auth.navbar(action=URL(\'default\',\'user\')))\nexcept:pass\nresponse.write(\'\\n  \', escape=False)\nimport tweepy\nresponse.write(\'\\n  <div id="wrapper">\\n   <div id="header">\\n    <div id="menu">\\n     \', escape=False)\nresponse.write(MENU(response.menu,_class=\'web2py-menu\'))\nresponse.write(\'\\n    <script>\\n      jQuery(document).ready(function(){jQuery(\\\'ul.web2py-menu\\\').superfish({delay:400});});\\n    </script>\\n    </div>\\n    <!-- end #menu -->\\n    <!--<div id="search">\\n     <form method="get" action="">\\n      <fieldset>\\n       <input type="text" name="s" id="search-text" size="15" />\\n       <input type="submit" id="search-submit" value="Search" />\\n      </fieldset>\\n     </form>\\n    </div> -->\\n    <!-- end #search -->\\n   </div>\\n   <!-- end #header -->\\n   <div id="logo">\\n    <h1>\\n     \', escape=False)\nresponse.write(response.title or request.application)\nresponse.write(\'\\n    </h1>\\n    <p>\\n     <em>\\n      template design by\\n      <a href="#">\\n       Expropiada Templates\\n      </a>\\n     </em>\\n    </p>\\n   </div>\\n   <hr />\\n   <!-- end #logo -->\\n   <!-- end #header-wrapper -->\\n   <div id="page">\\n    <div id="content">\\n     <div class="flash">\', escape=False)\nresponse.write(response.flash or \'\')\nresponse.write(\'</div>\\n     \', escape=False)\nresponse.write("\\n<div class=\'content\'>\\n", escape=False)\nfor post in post:\n    response.write("\\n    <div class=\'post\'>\\n        ", escape=False)\n    response.write(H3(A(post.articulos.titulo, _href=URL("viewpost", args=post.articulos.id)), _class=\'title\'))\n    response.write(\' \\n        <div class="entry"> \', escape=False)\n    response.write(post.articulos.articulo)\n    response.write(\'</div>\\n            \', escape=False)\n    response.write(A(T("Escrito por %s el: %s" % (post.usuarios.usuario,post.articulos.fecha)), _class=\'meta\'))\n    response.write(\'\\n    </div>\\n<hr />\\n\', escape=False)\n    pass\nresponse.write(\'\\n<br />\\n<!-- Paginador -->\\n\', escape=False)\nif totalpages > 1:\n    response.write(\'\\n    <div class="pages">\\n        Paginas: \\n    \', escape=False)\n    for i in range(1, totalpages+1):\n        response.write(\'\\n        <span class="page">\\n            \', escape=False)\n        if postpage == i and i>1:\n            response.write(\' \\n                <a href="/blog/?page=\', escape=False)\n            response.write(i-1)\n            response.write(\'">Atras</a>\\n                \', escape=False)\n            pass\n        response.write(\' \\n            \', escape=False)\n    else:\n        response.write(\'\\n                \', escape=False)\n        if i < totalpages+1 and postpage != i:\n            response.write(\'\\n                    <a href="/blog/?page=\', escape=False)\n            response.write(postpage+1)\n            response.write(\'">Adelante</a>\\n                    \', escape=False)\n            pass\n        response.write(\'\\n                \', escape=False)\n        pass\n    response.write(\'\\n        </span>\\n        \', escape=False)\n    pass\nresponse.write(\'\\n</div>\\n\', escape=False)\npass\nresponse.write(\'\\n</div>\\n\', escape=False)\nresponse.write(\'\\n    </div>\\n    <!-- end #content -->\\n    <div id="sidebar">\\n     <ul>\\n      <li>\\n       <h2> Twitter Busqueda: perl</h2>\\n       <p>\\n        \', escape=False)\nresponse.write("<div class=\'twitter\'>\\n", escape=False)\nsearch_tweets = tweepy.api.search(\'perl\')\nresponse.write(\'\\n<ul>\\n\', escape=False)\nfor tweet in search_tweets[0,4]:\n    response.write(\'\\n   <li> \\n   <strong>@\', escape=False)\n    response.write(tweet.from_user)\n    response.write(\':</strong> \', escape=False)\n    response.write(tweet.text)\n    response.write(\'\\n   </li>\\n\', escape=False)\n    pass\nresponse.write(\'\\n</ul>\\n</div>\\n\', escape=False)\nresponse.write(\'\\n       </p>\\n      </li>\\n      <li>\\n       <h2>\\n        Twitter Busqueda: python\\n       </h2>\\n\\t<p>\\n\\t \', escape=False)\nresponse.write("<div class=\'twitter\'>\\n", escape=False)\nsearch_tweets = tweepy.api.search(\'python\')\nresponse.write(\'\\n<ul>\\n\', escape=False)\nfor tweet in search_tweets[0:4]:\n    response.write(\'\\n   <li>\\n   <strong>@\', escape=False)\n    response.write(tweet.from_user)\n    response.write(\':</strong> \', escape=False)\n    response.write(tweet.text)\n    response.write(\'\\n   </li>\\n\', escape=False)\n    pass\nresponse.write(\'\\n</ul>\\n</div>\\n\\n\', escape=False)\nresponse.write(\'\\n\\t</p>\\n       <h2>\\n        Mi Twitter\\n       </h2>\\n       <p>\', escape=False)\nusertl = tweepy.api.user_timeline(\'j3nnn1\')\nresponse.write(\'\\n\\n<ul>\\n\', escape=False)\nfor tweet in usertl[0:3]:\n    response.write(\'\\n   <li>\\n   <strong>@\', escape=False)\n    response.write(tweet.user.screen_name)\n    response.write(\':</strong> \', escape=False)\n    response.write(tweet.text)\n    response.write(\'\\n    </li>\\n\', escape=False)\n    pass\nresponse.write(\'\\n</ul>\\n\\n    \\n\\n\', escape=False)\nresponse.write(\' </p>\\n      </li>\\n     <ul>\\n    </div>\\n    <!-- end #sidebar -->\\n    <div style="clear: both;">\\n     &nbsp;\\n    </div>\\n   </div>\\n   <!-- end #page -->\\n   <div id="footer">\\n    <p> .:B106 d3 j3nnn1:.</p>\\n   </div>\\n   <!-- end #footer -->\\n  </div>\\n </body>\\n</html>\\n\', escape=False)'
p6
sS'snapshot'
p7
(dp8
S'exception'
p9
(dp10
S'__hash__'
p11
S"<method-wrapper '__hash__' of exceptions.TypeError object>"
p12
sS'__setattr__'
p13
S"<method-wrapper '__setattr__' of exceptions.TypeError object>"
p14
sS'__reduce_ex__'
p15
S'<built-in method __reduce_ex__ of exceptions.TypeError object>'
p16
sS'__getslice__'
p17
S"<method-wrapper '__getslice__' of exceptions.TypeError object>"
p18
sS'__getitem__'
p19
S"<method-wrapper '__getitem__' of exceptions.TypeError object>"
p20
sS'__setstate__'
p21
S'<built-in method __setstate__ of exceptions.TypeError object>'
p22
sS'__reduce__'
p23
S'<built-in method __reduce__ of exceptions.TypeError object>'
p24
sS'__str__'
p25
S"<method-wrapper '__str__' of exceptions.TypeError object>"
p26
sS'__format__'
p27
S'<built-in method __format__ of exceptions.TypeError object>'
p28
sS'__getattribute__'
p29
S"<method-wrapper '__getattribute__' of exceptions.TypeError object>"
p30
sS'__class__'
p31
S"<type 'exceptions.TypeError'>"
p32
sS'__unicode__'
p33
S'<built-in method __unicode__ of exceptions.TypeError object>'
p34
sS'__delattr__'
p35
S"<method-wrapper '__delattr__' of exceptions.TypeError object>"
p36
sS'__subclasshook__'
p37
S'<built-in method __subclasshook__ of type object>'
p38
sS'__repr__'
p39
S"<method-wrapper '__repr__' of exceptions.TypeError object>"
p40
sS'args'
p41
S"('list indices must be integers, not tuple',)"
p42
sS'__dict__'
p43
S'{}'
p44
sS'__sizeof__'
p45
S'<built-in method __sizeof__ of exceptions.TypeError object>'
p46
sS'__doc__'
p47
S"'Inappropriate argument type.'"
p48
sS'__init__'
p49
S"<method-wrapper '__init__' of exceptions.TypeError object>"
p50
sS'__new__'
p51
S'<built-in method __new__ of type object>'
p52
ssS'evalue'
p53
S'list indices must be integers, not tuple'
p54
sS'request'
p55
(dp56
S'function'
p57
S"'index'"
p58
sS'body'
p59
S'<cStringIO.StringO object>'
p60
sS'wsgi'
p61
S"<Storage {'start_response': <function <lambda> a...ING': 'gzip,deflate', 'HTTP_KEEP_ALIVE': '115'}}>"
p62
sS'extension'
p63
S"'html'"
p64
sS'vars'
p65
S'<Storage {}>'
p66
sS'cid'
p67
S'None'
p68
sS'url'
p69
S'<gluon.html.XML object>'
p70
sg41
S'[]'
p71
sS'controller'
p72
S"'default'"
p73
sS'cookies'
p74
S"<SimpleCookie: session_id_admin='127-0-0-1-877c5...'127-0-0-1-abbacfdd-6a37-4a45-8aaf-8734a84b6dd4'>"
p75
sS'application'
p76
S"'blog'"
p77
sS'ajax'
p78
S'False'
p79
sS'client'
p80
S"'127.0.0.1'"
p81
sS'env'
p82
S"<Storage {'http_user_agent': 'Mozilla/5.0 (Windo...run_once': False, 'path_info': '/blog/default/'}>"
p83
sS'raw_args'
p84
S'None'
p85
sS'get_vars'
p86
S'<Storage {}>'
p87
sS'folder'
p88
S"'/cygdrive/e/Documents and Settings/jmaldo03/git/pyj3nnn1/pyj3nnn1/web2py/applications/blog/'"
p89
sS'now'
p90
S'datetime.datetime(2010, 10, 25, 14, 56, 17, 828750)'
p91
sS'post_vars'
p92
S'<Storage {}>'
p93
ssS'frames'
p94
(lp95
(dp96
S'file'
p97
S'/cygdrive/e/Documents and Settings/jmaldo03/git/pyj3nnn1/pyj3nnn1/web2py/gluon/restricted.py'
p98
sS'dump'
p99
(dp100
S'environment'
p101
S"{'A': <class 'gluon.html.A'>, 'Auth': <class 'gluon.tools.Auth'>, 'B': <class 'gluon.html.B'>, 'BEAUTIFY': <class 'gluon.html.BEAUTIFY'>, 'BODY': <class 'gluon.html.BODY'>, 'BR': <class 'gluon.html.BR'>, 'CENTER': <class 'gluon.html.CENTER'>, 'CLEANUP': <class 'gluon.validators.CLEANUP'>, 'CODE': <class 'gluon.html.CODE'>, 'CRYPT': <class 'gluon.validators.CRYPT'>, ...}"
p102
sS'ccode'
p103
S'<code object <module> at 0x7f67b2a8, file "/cygd...lications/blog/views/default/index.html", line 1>'
p104
ssS'lnum'
p105
I188
sS'lines'
p106
(dp107
I192
S'        # XXX Show exception in Wing IDE if running in debugger'
p108
sI183
S'        if type(code) == types.CodeType:'
p109
sI184
S'            ccode = code'
p110
sI185
S'        else:'
p111
sI186
S'            ccode = compile2(code,layer)'
p112
sI187
S''
sI188
S'        exec ccode in environment'
p113
sI189
S'    except HTTP:'
p114
sI190
S'        raise'
p115
sI191
S'    except Exception:'
p116
ssS'call'
p117
S'(code=\'response.write(\\\'<!DOCTYPE html PUBLIC "-//W3C//D...->\\\\n  </div>\\\\n </body>\\\\n</html>\\\\n\\\', escape=False)\', environment={\'A\': <class \'gluon.html.A\'>, \'Auth\': <class \'gluon.tools.Auth\'>, \'B\': <class \'gluon.html.B\'>, \'BEAUTIFY\': <class \'gluon.html.BEAUTIFY\'>, \'BODY\': <class \'gluon.html.BODY\'>, \'BR\': <class \'gluon.html.BR\'>, \'CENTER\': <class \'gluon.html.CENTER\'>, \'CLEANUP\': <class \'gluon.validators.CLEANUP\'>, \'CODE\': <class \'gluon.html.CODE\'>, \'CRYPT\': <class \'gluon.validators.CRYPT\'>, ...}, layer=\'/cygdrive/e/Documents and Settings/jmaldo03/git/...web2py/applications/blog/views/default/index.html\')'
p118
sS'func'
p119
S'restricted'
p120
sa(dp121
g97
S'/cygdrive/e/Documents and Settings/jmaldo03/git/pyj3nnn1/pyj3nnn1/web2py/applications/blog/views/default/index.html'
p122
sg99
(dp123
sg105
I90
sg106
(dp124
I96
S'    pass'
p125
sI97
S"response.write('\\n</ul>\\n</div>\\n', escape=False)"
p126
sI98
S"response.write('\\n       </p>\\n      </li>\\n      <li>\\n       <h2>\\n        Twitter Busqueda: python\\n       </h2>\\n\\t<p>\\n\\t ', escape=False)"
p127
sI99
S'response.write("<div class=\'twitter\'>\\n", escape=False)'
p128
sI100
S"search_tweets = tweepy.api.search('python')"
p129
sI81
S"    response.write('\\n        </span>\\n        ', escape=False)"
p130
sI82
S'    pass'
p131
sI83
S"response.write('\\n</div>\\n', escape=False)"
p132
sI84
S'pass'
p133
sI85
S"response.write('\\n</div>\\n', escape=False)"
p134
sI86
S'response.write(\'\\n    </div>\\n    <!-- end #content -->\\n    <div id="sidebar">\\n     <ul>\\n      <li>\\n       <h2> Twitter Busqueda: perl</h2>\\n       <p>\\n        \', escape=False)'
p135
sI87
S'response.write("<div class=\'twitter\'>\\n", escape=False)'
p136
sI88
S"search_tweets = tweepy.api.search('perl')"
p137
sI89
S"response.write('\\n<ul>\\n', escape=False)"
p138
sI90
S'for tweet in search_tweets[0,4]:'
p139
sI91
S"    response.write('\\n   <li> \\n   <strong>@', escape=False)"
p140
sI92
S'    response.write(tweet.from_user)'
p141
sI93
S"    response.write(':</strong> ', escape=False)"
p142
sI94
S'    response.write(tweet.text)'
p143
sI95
S"    response.write('\\n   </li>\\n', escape=False)"
p144
ssg117
S'()'
p145
sg119
S'<module>'
p146
sasS'pyver'
p147
S'Python 2.6.5: /usr/bin/python'
p148
sS'session'
p149
(dp150
S'_formkey[articulos_create]'
p151
S"'d07b4814-e7aa-44a8-9a1a-41286b414fe0'"
p152
sS'_formkey[register]'
p153
S"'916f3654-72ab-4fe3-8c51-26ed26684973'"
p154
sS'flash'
p155
S'None'
p156
sS'_formkey[articulos_14]'
p157
S"'ef12ed53-c7bf-483d-b495-d43a8088a6ab'"
p158
sS'auth'
p159
S'None'
p160
sS'last_orderby'
p161
S'None'
p162
sS'_formkey[articulos_9]'
p163
S"'4a8f3fc4-9a7e-40c9-b07c-62826c13caad'"
p164
sS'_formkey[comentarios_create]'
p165
S"'d4c449d3-5629-48bb-98dd-69183ef85760'"
p166
sS'last_query'
p167
S"'db.articulos.id>0'"
p168
sS'_formkey[articulos_1]'
p169
S"'9f93caa9-1338-41bd-b2d0-c2e11a492973'"
p170
sS'_formkey[login]'
p171
S"'1c5e24c0-5245-481d-a45d-847711bfb466'"
p172
ssS'etype'
p173
S"<type 'exceptions.TypeError'>"
p174
sS'date'
p175
S'Mon Oct 25 14:56:18 2010'
p176
sS'response'
p177
(dp178
S'status'
p179
S'200'
p180
sg59
S'<cStringIO.StringO object>'
p181
sg74
S"<SimpleCookie: session_id_blog='127-0-0-1-fee2cd34-3e42-44cb-bee6-3936b80cedc4'>"
p182
sS'_vars'
p183
S"{'post': <gluon.sql.Rows object>, 'postpage': 1, 'totalpages': 2}"
p184
sS'title'
p185
S'"It\'s me"'
p186
sS'session_file'
p187
S"<open file '/cygdrive/e/Documents and Settings/j...ee2cd34-3e42-44cb-bee6-3936b80cedc4', mode 'rb+'>"
p188
sS'flash'
p189
S"''"
p190
sS'_custom_rollback'
p191
S'None'
p192
sS'session_id'
p193
S"'127-0-0-1-fee2cd34-3e42-44cb-bee6-3936b80cedc4'"
p194
sS'headers'
p195
S"<Storage {'Expires': 'Mon, 25 Oct 2010 19:26:17 ...he, must-revalidate, post-check=0, pre-check=0'}>"
p196
sS'meta'
p197
S"<Storage {'keywords': 'j3nnn1 web2py python', 'd...con web2py... ', 'author': 'Jennifer Maldonado'}>"
p198
sS'session_filename'
p199
S"'/cygdrive/e/Documents and Settings/jmaldo03/git/...ns/127-0-0-1-fee2cd34-3e42-44cb-bee6-3936b80cedc4'"
p200
sS'postprocessing'
p201
S'[]'
p202
sS'menu'
p203
S"[(<lazyT 'Index'>, False, <gluon.html.XML object>, []), (<lazyT 'About'>, False, <gluon.html.XML object>, []), (<lazyT 'Admin'>, False, <gluon.html.XML object>, [])]"
p204
sS'_view_environment'
p205
S"{'A': <class 'gluon.html.A'>, 'Auth': <class 'gluon.tools.Auth'>, 'B': <class 'gluon.html.B'>, 'BEAUTIFY': <class 'gluon.html.BEAUTIFY'>, 'BODY': <class 'gluon.html.BODY'>, 'BR': <class 'gluon.html.BR'>, 'CENTER': <class 'gluon.html.CENTER'>, 'CLEANUP': <class 'gluon.validators.CLEANUP'>, 'CODE': <class 'gluon.html.CODE'>, 'CRYPT': <class 'gluon.validators.CRYPT'>, ...}"
p206
sS'subtitle'
p207
S'<lazyT "it\'s me j3nnn1">'
p208
sS'session_id_name'
p209
S"'session_id_blog'"
p210
sS'_custom_commit'
p211
S'None'
p212
sS'_caller'
p213
S'<function <lambda>>'
p214
sS'files'
p215
S'[<gluon.html.XML object>, <gluon.html.XML object>, <gluon.html.XML object>, <gluon.html.XML object>, <gluon.html.XML object>]'
p216
sS'view'
p217
S"'default/index.html'"
p218
ssS'locals'
p219
(dp220
S'Service'
p221
S'<class gluon.tools.Service>'
p222
sS'OBJECT'
p223
S"<class 'gluon.html.OBJECT'>"
p224
sS'_file'
p225
S'<gluon.html.XML object>'
p226
sS'datetime'
p227
S"<module 'datetime' from '/usr/lib/python2.6/lib-dynload/datetime.dll'>"
p228
sg149
S"<Storage {'_formkey[articulos_create]': 'd07b481...os_14]': 'ef12ed53-c7bf-483d-b495-d43a8088a6ab'}>"
p229
sS'LINK'
p230
S"<class 'gluon.html.LINK'>"
p231
sS'BR'
p232
S"<class 'gluon.html.BR'>"
p233
sS'local_import'
p234
S'<function <lambda>>'
p235
sS'OPTGROUP'
p236
S"<class 'gluon.html.OPTGROUP'>"
p237
sS'PRE'
p238
S"<class 'gluon.html.PRE'>"
p239
sS'IS_INT_IN_RANGE'
p240
S"<class 'gluon.validators.IS_INT_IN_RANGE'>"
p241
sS'IS_LOWER'
p242
S"<class 'gluon.validators.IS_LOWER'>"
p243
sS'IS_STRONG'
p244
S"<class 'gluon.validators.IS_STRONG'>"
p245
sS'Recaptcha'
p246
S"<class 'gluon.tools.Recaptcha'>"
p247
sS'cache'
p248
S'<gluon.cache.Cache object>'
p249
sS'IS_IN_DB'
p250
S"<class 'gluon.validators.IS_IN_DB'>"
p251
sS'TAG'
p252
S'<gluon.html.__TAG__ object>'
p253
sS'_k'
p254
S'4'
sS'SQLField'
p255
S"<class 'gluon.sql.Field'>"
p256
sS'mail'
p257
S'<gluon.tools.Mail object>'
p258
sS'BODY'
p259
S"<class 'gluon.html.BODY'>"
p260
sS'IS_DATE_IN_RANGE'
p261
S"<class 'gluon.validators.IS_DATE_IN_RANGE'>"
p262
sS'postpage'
p263
S'1'
sS'TH'
p264
S"<class 'gluon.html.TH'>"
p265
sS'URL'
p266
S'<function _URL>'
p267
sS'db'
p268
S"<SQLDB {'auth_event': <Table {'origin': <gluon.s... 'id': <gluon.sql.Field object at 0x7f5cd7ac>}>}>"
p269
sS'auth'
p270
S'<gluon.tools.Auth object>'
p271
sS'P'
S"<class 'gluon.html.P'>"
p272
sS'TFOOT'
p273
S"<class 'gluon.html.TFOOT'>"
p274
sS'XHTML'
p275
S"<class 'gluon.html.XHTML'>"
p276
sg90
S'datetime.datetime(2010, 10, 25, 14, 56, 17, 869750)'
p277
sS'ON'
p278
S'True'
p279
sS'OL'
p280
S"<class 'gluon.html.OL'>"
p281
sS'TEXTAREA'
p282
S"<class 'gluon.html.TEXTAREA'>"
p283
sS'MENU'
p284
S"<class 'gluon.html.MENU'>"
p285
sS'LOAD'
p286
S'<gluon.compileapp.LoadFactory instance>'
p287
sS'CODE'
p288
S"<class 'gluon.html.CODE'>"
p289
sS'HTTP'
p290
S"<class 'gluon.http.HTTP'>"
p291
sS'HR'
p292
S"<class 'gluon.html.HR'>"
p293
sS'IS_DATETIME'
p294
S"<class 'gluon.validators.IS_DATETIME'>"
p295
sS'HEAD'
p296
S"<class 'gluon.html.HEAD'>"
p297
sS'LABEL'
p298
S"<class 'gluon.html.LABEL'>"
p299
sS'CLEANUP'
p300
S"<class 'gluon.validators.CLEANUP'>"
p301
sS'plugins'
p302
S'<gluon.tools.PluginManager object>'
p303
sS'SELECT'
p304
S"<class 'gluon.html.SELECT'>"
p305
sS'CENTER'
p306
S"<class 'gluon.html.CENTER'>"
p307
sS'prettydate'
p308
S'<function prettydate>'
p309
sS'Crud'
p310
S"<class 'gluon.tools.Crud'>"
p311
sS'Auth'
p312
S"<class 'gluon.tools.Auth'>"
p313
sS'__builtins__'
p314
S"{'ArithmeticError': <type 'exceptions.ArithmeticError'>, 'AssertionError': <type 'exceptions.AssertionError'>, 'AttributeError': <type 'exceptions.AttributeError'>, 'BaseException': <type 'exceptions.BaseException'>, 'BufferError': <type 'exceptions.BufferError'>, 'BytesWarning': <type 'exceptions.BytesWarning'>, 'DeprecationWarning': <type 'exceptions.DeprecationWarning'>, 'EOFError': <type 'exceptions.EOFError'>, 'Ellipsis': Ellipsis, 'EnvironmentError': <type 'exceptions.EnvironmentError'>, ...}"
p315
sS'IS_LIST_OF'
p316
S"<class 'gluon.validators.IS_LIST_OF'>"
p317
sS'SQLFORM'
p318
S"<class 'gluon.sqlhtml.SQLFORM'>"
p319
sS'_item'
p320
S"'author'"
p321
sS'EM'
p322
S"<class 'gluon.html.EM'>"
p323
sS'redirect'
p324
S'<function redirect>'
p325
sS'FIELDSET'
p326
S"<class 'gluon.html.FIELDSET'>"
p327
sS'IS_EQUAL_TO'
p328
S"<class 'gluon.validators.IS_EQUAL_TO'>"
p329
sS'embed64'
p330
S'<function embed64>'
p331
sS'INPUT'
p332
S"<class 'gluon.html.INPUT'>"
p333
sS'post'
p334
S"<Row {'articulos': <Row {'update_record': <funct...144>}>, 'usuarios': <Row {'usuario': 'j3nnn1'}>}>"
p335
sS'FORM'
p336
S"<class 'gluon.html.FORM'>"
p337
sS'H2'
p338
S"<class 'gluon.html.H2'>"
p339
sS'H3'
p340
S"<class 'gluon.html.H3'>"
p341
sS'H1'
p342
S"<class 'gluon.html.H1'>"
p343
sS'H6'
p344
S"<class 'gluon.html.H6'>"
p345
sS'H4'
p346
S"<class 'gluon.html.H4'>"
p347
sS'H5'
p348
S"<class 'gluon.html.H5'>"
p349
sS'UL'
p350
S"<class 'gluon.html.UL'>"
p351
sS'IS_UPPER'
p352
S"<class 'gluon.validators.IS_UPPER'>"
p353
sS'xmlescape'
p354
S'<function xmlescape>'
p355
sS'IS_TIME'
p356
S"<class 'gluon.validators.IS_TIME'>"
p357
sS'OPTION'
p358
S"<class 'gluon.html.OPTION'>"
p359
sS'TITLE'
p360
S"<class 'gluon.html.TITLE'>"
p361
sS'CRYPT'
p362
S"<class 'gluon.validators.CRYPT'>"
p363
sS'IS_EMPTY_OR'
p364
S"<class 'gluon.validators.IS_EMPTY_OR'>"
p365
sS'MARKMIN'
p366
S"<class 'gluon.html.MARKMIN'>"
p367
sS'totalpages'
p368
S'2'
sS'EMBED'
p369
S"<class 'gluon.html.EMBED'>"
p370
sS'service'
p371
S'<gluon.tools.Service instance>'
p372
sS'SCRIPT'
p373
S"<class 'gluon.html.SCRIPT'>"
p374
sS'geocode'
p375
S'<function geocode>'
p376
sS'TABLE'
p377
S"<class 'gluon.html.TABLE'>"
p378
sS'IS_IPV4'
p379
S"<class 'gluon.validators.IS_IPV4'>"
p380
sS'IS_LENGTH'
p381
S"<class 'gluon.validators.IS_LENGTH'>"
p382
sS'XML'
p383
S"<class 'gluon.html.XML'>"
p384
sS'B'
S"<class 'gluon.html.B'>"
p385
sS'IMG'
p386
S"<class 'gluon.html.IMG'>"
p387
sS'SQLTABLE'
p388
S"<class 'gluon.sqlhtml.SQLTABLE'>"
p389
sS'IS_MATCH'
p390
S"<class 'gluon.validators.IS_MATCH'>"
p391
sS'IS_ALPHANUMERIC'
p392
S"<class 'gluon.validators.IS_ALPHANUMERIC'>"
p393
sS'SPAN'
p394
S"<class 'gluon.html.SPAN'>"
p395
sS'IS_SLUG'
p396
S"<class 'gluon.validators.IS_SLUG'>"
p397
sS'search_tweets'
p398
S'[<tweepy.models.SearchResult object at 0x7f58d92...tweepy.models.SearchResult object at 0x7f5726ec>]'
p399
sS'BEAUTIFY'
p400
S"<class 'gluon.html.BEAUTIFY'>"
p401
sS'META'
p402
S"<class 'gluon.html.META'>"
p403
sS'tweepy'
p404
S"<module 'tweepy' from '/usr/lib/python2.6/site-packages/tweepy-1.7.1-py2.6.egg/tweepy/__init__.pyc'>"
p405
sS'SQLDB'
p406
S"<class 'gluon.sql.SQLDB'>"
p407
sS'fetch'
p408
S'<function fetch>'
p409
sS'IS_DATE'
p410
S"<class 'gluon.validators.IS_DATE'>"
p411
sS'IS_EMAIL'
p412
S"<class 'gluon.validators.IS_EMAIL'>"
p413
sS'IS_NOT_EMPTY'
p414
S"<class 'gluon.validators.IS_NOT_EMPTY'>"
p415
sg55
S"<Storage {'function': 'index', 'body': <cStringI... 14, 56, 17, 828750), 'post_vars': <Storage {}>}>"
p416
sS'TBODY'
p417
S"<class 'gluon.html.TBODY'>"
p418
sS'Field'
p419
S"<class 'gluon.sql.Field'>"
p420
sS'Mail'
p421
S"<class 'gluon.tools.Mail'>"
p422
sS'DIV'
p423
S"<class 'gluon.html.DIV'>"
p424
sS'LEGEND'
p425
S"<class 'gluon.html.LEGEND'>"
p426
sS'DAL'
p427
S'<function DAL>'
p428
sS'TT'
p429
S"<class 'gluon.html.TT'>"
p430
sS'TR'
p431
S"<class 'gluon.html.TR'>"
p432
sS'LI'
p433
S"<class 'gluon.html.LI'>"
p434
sS'IFRAME'
p435
S"<class 'gluon.html.IFRAME'>"
p436
sS'TD'
p437
S"<class 'gluon.html.TD'>"
p438
sS'PluginManager'
p439
S"<class 'gluon.tools.PluginManager'>"
p440
sS'IS_URL'
p441
S"<class 'gluon.validators.IS_URL'>"
p442
sS'A'
S"<class 'gluon.html.A'>"
p443
sS'STYLE'
p444
S"<class 'gluon.html.STYLE'>"
p445
sS'IS_DATETIME_IN_RANGE'
p446
S"<class 'gluon.validators.IS_DATETIME_IN_RANGE'>"
p447
sS'HTML'
p448
S"<class 'gluon.html.HTML'>"
p449
sS'IS_IMAGE'
p450
S"<class 'gluon.validators.IS_IMAGE'>"
p451
sS'I'
S"<class 'gluon.html.I'>"
p452
sS'crud'
p453
S'<gluon.tools.Crud object>'
p454
sS'IS_NOT_IN_DB'
p455
S"<class 'gluon.validators.IS_NOT_IN_DB'>"
p456
sg177
S"<Storage {'status': 200, 'body': <cStringIO.Stri...bject at 0x7f58c6cc>], '_custom_rollback': None}>"
p457
sS'THEAD'
p458
S"<class 'gluon.html.THEAD'>"
p459
sS'IS_NULL_OR'
p460
S"<class 'gluon.validators.IS_EMPTY_OR'>"
p461
sS'i'
S'2'
sS'IS_FLOAT_IN_RANGE'
p462
S"<class 'gluon.validators.IS_FLOAT_IN_RANGE'>"
p463
sS'IS_EXPR'
p464
S"<class 'gluon.validators.IS_EXPR'>"
p465
sS'T'
S'<gluon.languages.translator object>'
p466
sS'IS_IN_SET'
p467
S"<class 'gluon.validators.IS_IN_SET'>"
p468
sS'IS_UPLOAD_FILENAME'
p469
S"<class 'gluon.validators.IS_UPLOAD_FILENAME'>"
p470
sS'IS_DECIMAL_IN_RANGE'
p471
S"<class 'gluon.validators.IS_DECIMAL_IN_RANGE'>"
p472
sssS'traceback'
p473
S'Traceback (most recent call last):\n  File "/cygdrive/e/Documents and Settings/jmaldo03/git/pyj3nnn1/pyj3nnn1/web2py/gluon/restricted.py", line 188, in restricted\n    exec ccode in environment\n  File "/cygdrive/e/Documents and Settings/jmaldo03/git/pyj3nnn1/pyj3nnn1/web2py/applications/blog/views/default/index.html", line 90, in <module>\nTypeError: list indices must be integers, not tuple\n'
p474
s.