(dp1
S'output'
p2
S'Unable to open included view file: /home/j3nnn1/git/pyj3nnn1/web2py/applications/tweepy/views/tweetpy_j3nn1.css'
p3
sS'layer'
p4
S'ParserContainer'
p5
sS'code'
p6
S'{{extend \'layout.html\'}}\n{{response.files.append(URL(request.application,\'static\',\'tweetpy_j3nn1.css\'))}}\n{{include \'tweetpy_j3nn1.css\'}}\n<hr/>\n<h1>This is the homework</h1>\n\n<table>\n    <tr>\n        <td>\n            <div id=\'person\'> {{=T(\'Tweepy, user: j3nnn1!!\')}}</div>\n        </td>\n    </tr>\n    <tr>\n        <td>\n            <img src="{{=imageuser}}"/>\n        </td>\n        <td>\n           <b>{{=nameuser}}: </b>{{=statususer}} \n        </td>\n    </tr>\n    <tr>\n        <td>\n            <div id=\'timelinepublic\'> {{=T(\'Tweepy, Public Time Line!!\')}}</div>\n        </td>\n    </tr>\n{{for x in public:}}\n    <tr>\n        <td>\n            <img src="{{=public[x][\'url_pic\']}}"/>\n        </td>\n        <td>\n           <b>{{=public[x][\'name\']}}: </b>{{=public[x][\'status\']}}\n        </td>\n    </tr>\n{{pass}}     \n</table>\n'
p7
sS'snapshot'
p8
(dp9
S'exception'
p10
(dp11
S'__getslice__'
p12
S"<method-wrapper '__getslice__' of exceptions.IOError object>"
p13
sS'__str__'
p14
S"<method-wrapper '__str__' of exceptions.IOError object>"
p15
sS'__reduce__'
p16
S'<built-in method __reduce__ of exceptions.IOError object>'
p17
sS'__dict__'
p18
S'{}'
p19
sS'__sizeof__'
p20
S'<built-in method __sizeof__ of exceptions.IOError object>'
p21
sS'__init__'
p22
S"<method-wrapper '__init__' of exceptions.IOError object>"
p23
sS'__setattr__'
p24
S"<method-wrapper '__setattr__' of exceptions.IOError object>"
p25
sS'__reduce_ex__'
p26
S'<built-in method __reduce_ex__ of exceptions.IOError object>'
p27
sS'__new__'
p28
S'<built-in method __new__ of type object>'
p29
sS'errno'
p30
S'2'
sS'__format__'
p31
S'<built-in method __format__ of exceptions.IOError object>'
p32
sS'__class__'
p33
S"<type 'exceptions.IOError'>"
p34
sS'filename'
p35
S"'/home/j3nnn1/git/pyj3nnn1/web2py/applications/tweepy/views/tweetpy_j3nn1.css'"
p36
sS'__doc__'
p37
S"'I/O operation failed.'"
p38
sS'__getitem__'
p39
S"<method-wrapper '__getitem__' of exceptions.IOError object>"
p40
sS'__setstate__'
p41
S'<built-in method __setstate__ of exceptions.IOError object>'
p42
sS'__getattribute__'
p43
S"<method-wrapper '__getattribute__' of exceptions.IOError object>"
p44
sS'args'
p45
S"(2, 'No such file or directory')"
p46
sS'__subclasshook__'
p47
S'<built-in method __subclasshook__ of type object>'
p48
sS'__unicode__'
p49
S'<built-in method __unicode__ of exceptions.IOError object>'
p50
sS'strerror'
p51
S"'No such file or directory'"
p52
sS'__delattr__'
p53
S"<method-wrapper '__delattr__' of exceptions.IOError object>"
p54
sS'__repr__'
p55
S"<method-wrapper '__repr__' of exceptions.IOError object>"
p56
sS'__hash__'
p57
S"<method-wrapper '__hash__' of exceptions.IOError object>"
p58
ssS'evalue'
p59
S"[Errno 2] No such file or directory: '/home/j3nnn1/git/pyj3nnn1/web2py/applications/tweepy/views/tweetpy_j3nn1.css'"
p60
sS'frames'
p61
(lp62
(dp63
S'file'
p64
S'/home/j3nnn1/git/pyj3nnn1/web2py/gluon/template.py'
p65
sS'dump'
p66
(dp67
S'builtinopen'
p68
S'<built-in function open>'
p69
sS'fileobj'
p70
S'undefined'
p71
sS'filepath'
p72
S"'/home/j3nnn1/git/pyj3nnn1/web2py/applications/tweepy/views/tweetpy_j3nn1.css'"
p73
ssS'lnum'
p74
I435
sS'lines'
p75
(dp76
I430
S'        # Get the path of the file on the system.'
p77
sI431
S'        filepath = os.path.join(self.path, filename)'
p78
sI432
S''
sI433
S'        # Lets try to read teh text.'
p79
sI434
S'        try:'
p80
sI435
S"            fileobj = open(filepath, 'rb')"
p81
sI436
S''
sI437
S'            text = fileobj.read()'
p82
sI438
S''
sI439
S'            fileobj.close()'
p83
ssS'call'
p84
S"(self=<gluon.template.TemplateParser object>, filename='tweetpy_j3nn1.css')"
p85
sS'func'
p86
S'_get_file_text'
p87
sasS'pyver'
p88
S'Python 2.6.6: /usr/bin/python'
p89
sS'etype'
p90
S"<type 'exceptions.IOError'>"
p91
sS'date'
p92
S'Tue Oct 12 20:40:53 2010'
p93
sS'locals'
p94
(dp95
S'self'
p96
S'<gluon.template.TemplateParser object>'
p97
sS'filepath'
p98
S"'/home/j3nnn1/git/pyj3nnn1/web2py/applications/tweepy/views/tweetpy_j3nn1.css'"
p99
sg35
S"'tweetpy_j3nn1.css'"
p100
sssS'traceback'
p101
S'Traceback (most recent call last):\n  File "/home/j3nnn1/git/pyj3nnn1/web2py/gluon/template.py", line 435, in _get_file_text\n    fileobj = open(filepath, \'rb\')\nIOError: [Errno 2] No such file or directory: \'/home/j3nnn1/git/pyj3nnn1/web2py/applications/tweepy/views/tweetpy_j3nn1.css\'\n'
p102
s.