(dp1
S'output'
p2
S''
sS'layer'
p3
S'/home/j3nnn1/git/pyj3nnn1/web2py/applications/tweepy/views/default/index.html'
p4
sS'code'
p5
S'response.write(\'<!DOCTYPE html PUBLIC "-//W3C//DTD XHTML 1.0 Transitional//EN" "http://www.w3.org/TR/xhtml1/DTD/xhtml1-transitional.dtd">\\n<html xmlns="http://www.w3.org/1999/xhtml" xml:lang="\', escape=False)\nresponse.write(T.accepted_language or \'en\')\nresponse.write(\'">\\n  <head>\\n    <title>\', escape=False)\nresponse.write(response.title or request.application)\nresponse.write(\'</title>\\n    <link rel="shortcut icon"\\n      href="\', escape=False)\nresponse.write(URL(request.application,\'static\',\'favicon.ico\'))\nresponse.write(\'" \\n      type="image/vnd.microsoft.icon">\\n    <meta http-equiv="Content-Type" content="text/html; charset=UTF-8" />\\n    \', escape=False)\n#------  require CSS and JS files for this page (read info in base.css) ------\nresponse.write(\'\\n    \', escape=False)\nresponse.files.append(URL(request.application,\'static\',\'base.css\'))\nresponse.write(\'\\n    \', escape=False)\nresponse.files.append(URL(request.application,\'static\',\'superfish.js\'))\nresponse.write(\'\\n    \', escape=False)\nresponse.files.append(URL(request.application,\'static\',\'tweetpy_j3nn1.css\'))\nresponse.write(\'\\n    \', escape=False)\n#------ include web2py specific js code (jquery, calendar, form stuff) ------\nresponse.write(\'\\n    \', escape=False)\nresponse.files.insert(0,URL(r=request,c=\'static\',f=\'jquery.js\'))\nresponse.files.insert(1,URL(r=request,c=\'static\',f=\'calendar.css\'))\nresponse.files.insert(2,URL(r=request,c=\'static\',f=\'calendar.js\'))\nfor _item in response.meta or []:\n    response.write(\'\\n     <meta name="\', escape=False)\n    response.write(_item)\n    response.write(\'" content="\', escape=False)\n    response.write(response.meta[_item])\n    response.write(\'" />\', escape=False)\n    pass\nfor _k,_file in enumerate(response.files or []):\n    if _file in response.files[:_k]:\n        continue\n    elif _file.lower().endswith(\'.css\'):\n        response.write(\'\\n     <link href="\', escape=False)\n        response.write(_file)\n        response.write(\'" rel="stylesheet" type="text/css" />\', escape=False)\n    elif _file.lower().endswith(\'.js\'):\n        response.write(\'\\n     <script src="\', escape=False)\n        response.write(_file)\n        response.write(\'" type="text/javascript"></script>\', escape=False)\n        pass\n    pass\nresponse.write(\'\\n<script type="text/javascript"><!--\\nfunction popup(url) {\\n  newwindow=window.open(url,\\\'name\\\',\\\'height=400,width=600\\\');\\n  if (window.focus) newwindow.focus();\\n  return false;\\n}\\nfunction collapse(id) { jQuery(\\\'#\\\'+id).slideToggle(); }\\nfunction fade(id,value) { if(value>0) jQuery(\\\'#\\\'+id).hide().fadeIn(\\\'slow\\\'); else jQuery(\\\'#\\\'+id).show().fadeOut(\\\'slow\\\'); }\\nfunction ajax(u,s,t) {\\n    query = \\\'\\\';\\n    if (typeof s == "string") {\\n        d = jQuery(s).serialize();\\n        if(d){ query = d; }\\n    } else {\\n        pcs = [];\\n        for(i=0; i<s.length; i++) {\\n            q = jQuery("[name="+s[i]+"]").serialize();\\n            if(q){pcs.push(q);}\\n        }\\n        if (pcs.length>0){query = pcs.join("&");}\\n    }\\n    jQuery.ajax({type: "POST", url: u, data: query, success: function(msg) { if(t) { if(t==\\\':eval\\\') eval(msg); else jQuery("#" + t).html(msg); } } }); \\n}\\nString.prototype.reverse = function () { return this.split(\\\'\\\').reverse().join(\\\'\\\');};\\nfunction web2py_ajax_init() {\\n  jQuery(\\\'.hidden\\\').hide();\\n  jQuery(\\\'.error\\\').hide().slideDown(\\\'slow\\\');\\n  jQuery(\\\'.flash\\\').click(function() { jQuery(this).fadeOut(\\\'slow\\\'); return false; });\\n  jQuery(\\\'input[type=submit]\\\').click(function(){var t=jQuery(this);t.hide();t.after(\\\'<input class="submit_disabled" disabled="disabled" type="submit" name="\\\'+t.attr("name")+\\\'_dummy" value="\\\'+t.val()+\\\'">\\\')});\\n  jQuery(\\\'input.integer\\\').keyup(function(){this.value=this.value.reverse().replace(/[^0-9\\\\-]|\\\\-(?=.)/g,\\\'\\\').reverse();});\\n  jQuery(\\\'input.double,input.decimal\\\').keyup(function(){this.value=this.value.reverse().replace(/[^0-9\\\\-\\\\.]|[\\\\-](?=.)|[\\\\.](?=[0-9]*[\\\\.])/g,\\\'\\\').reverse();});\\n  jQuery("input[type=\\\'checkbox\\\'].delete").each(function(){jQuery(this).click(function() { if(this.checked) if(!confirm("\', escape=False)\nresponse.write(T(\'Sure you want to delete this object?\'))\nresponse.write(\'")) this.checked=false; });});\\n  try {jQuery("input.date").focus( function() {Calendar.setup({\\n     inputField:this.id, ifFormat:"\', escape=False)\nresponse.write(T(\'%Y-%m-%d\'))\nresponse.write(\'", showsTime:false\\n  }); }); } catch(e) {};\\n  try { jQuery("input.datetime").focus( function() {Calendar.setup({\\n     inputField:this.id, ifFormat:"\', escape=False)\nresponse.write(T(\'%Y-%m-%d %H:%M:%S\'))\nresponse.write(\'", showsTime: true,timeFormat: "24"\\n  }); }); } catch(e) {};\\n  try { jQuery("input.time").clockpick({\\n      starthour:0, endhour:23, showminutes:true, military:true\\n  }); } catch(e) {};\\n};\\njQuery(document).ready(function(){\\n   jQuery(\\\'.flash\\\').hide();\\n   if(jQuery(\\\'.flash\\\').html()!=\\\'\\\') jQuery(\\\'.flash\\\').slideDown(\\\'slow\\\');\\n   web2py_ajax_init();});\\n\\nfunction web2py_trap_form(action,target) {\\n   jQuery(\\\'#\\\'+target+\\\' form\\\').each(function(i){\\n      var form=jQuery(this);\\n      if(!form.hasClass(\\\'no_trap\\\'))\\n        form.submit(function(obj){\\n         jQuery(\\\'.flash\\\').hide().html(\\\'\\\');\\n         web2py_ajax_page(\\\'post\\\',action,form.serialize(),target);\\n         return false;\\n      });\\n   });\\n}\\n\\nfunction web2py_ajax_page(method,action,data,target) {\\n  jQuery.ajax({\\\'type\\\':method,\\\'url\\\':action,\\\'data\\\':data,\\n    \\\'beforeSend\\\':function(xhr) {\\n      xhr.setRequestHeader(\\\'web2py-component-location\\\',document.location);\\n      xhr.setRequestHeader(\\\'web2py-component-element\\\',target);},\\n    \\\'complete\\\':function(xhr,text){\\n      var html=xhr.responseText;\\n      var content=xhr.getResponseHeader(\\\'web2py-component-content\\\'); \\n      var command=xhr.getResponseHeader(\\\'web2py-component-command\\\');\\n      var flash=xhr.getResponseHeader(\\\'web2py-component-flash\\\');\\n      var t = jQuery(\\\'#\\\'+target);\\n      if(content==\\\'prepend\\\') t.prepend(html); \\n      else if(content==\\\'append\\\') t.append(html);\\n      else if(content!=\\\'hide\\\') t.html(html);  \\n      web2py_trap_form(action,target);\\n      web2py_ajax_init();      \\n      if(command) eval(command);\\n      if(flash) jQuery(\\\'.flash\\\').html(flash).slideDown();\\n      }\\n    });\\n}\\nfunction web2py_component(action,target) {\\n    jQuery(document).ready(function(){ web2py_ajax_page(\\\'get\\\',action,null,target); });\\n}\\n//--></script>\\n\', escape=False)\nresponse.write(\'\\n  </head>\\n  <body>\\n    <div class="flash">\', escape=False)\nresponse.write(response.flash or \'\')\nresponse.write(\'</div>\\n    <div class="ez-mr wrapper" id="layout">\\n      \', escape=False)\n#------ Layout 3 from http://www.ez-css.org/layouts ------\nresponse.write(\'\\n      <div class="ez-wr">\\n    <div class="ez-box" id="header">\\n      \', escape=False)\ntry:\n    response.write(auth.navbar(action=URL(request.application,\'default\',\'user\')))\nexcept:pass\nresponse.write(\'\\n          <h1>\\n            <a href="">\', escape=False)\nresponse.write(response.title or \'response.title\')\nresponse.write(\'</a>\\n          </h1>            \\n          <h2>\\n        \', escape=False)\nresponse.write(response.subtitle or \'response.subtitle\')\nresponse.write(\'\\n      </h2>\\n    </div>\\n    <div class="ez-box" id="statusbar">\\n      \', escape=False)\n#------ superfish menu ------\nresponse.write(\'\\n      \', escape=False)\nresponse.write(MENU(response.menu,_class=\'sf-menu\'))\nresponse.write(\'\\n          <script>\\n        jQuery(document).ready(function(){\\n              jQuery(\\\'ul.sf-menu\\\').superfish({delay:400});});\\n      </script>\\n    </div>\\n    <div class="ez-wr">\\n      <div class="ez-fl ez-negmx">\\n            <div class="ez-box" id="left_sidebar">\', escape=False)\n#------ unused space\nresponse.write(\'</div>\\n      </div>\\n      <div class="ez-fl ez-negmr">\\n            <div class="ez-box" id="content">\', escape=False)\nresponse.write("\\n<hr/>\\n<h1>This is the homework</h1>\\n<table>\\n    <tr>\\n        <td colspan=\'2\'>\\n            <div id=\'person\'> ", escape=False)\nresponse.write(T(\'Tweepy, user: j3nnn1!!\'))\nresponse.write(\'</div>\\n        </td>\\n    </tr>\\n    <tr>\\n        <td>\\n            <img src="\', escape=False)\nresponse.write(imageuser)\nresponse.write(\'" width=\\\'50px\\\' heigth=\\\'50px\\\'/>\\n        </td>\\n        <td>\\n           <b>\', escape=False)\nresponse.write(nameuser)\nresponse.write(\': </b>\', escape=False)\nresponse.write(statususer)\nresponse.write(" \\n        </td>\\n    </tr>\\n    <tr>\\n        <td colspan=\'2\'>\\n            <div id=\'timelinepublic\'> ", escape=False)\nresponse.write(T(\'Tweepy, Public Time Line!!\'))\nresponse.write(\'</div>\\n        </td>\\n    </tr>\\n\', escape=False)\nfor x in public:\n    response.write(\'\\n    <tr>\\n        <td>\\n            <img src="\', escape=False)\n    response.write(public[x][\'url_pic\'])\n    response.write(\'" width=\\\'50px\\\' heigth=\\\'50px\\\'/>\\n        </td>\\n        <td>\\n           \\n           <b>\', escape=False)\n    response.write(public[x][\'username\'] (=public[x][\'name\']))\n    response.write(\': </b>\', escape=False)\n    response.write(public[x][\'status\'])\n    response.write(\'\\n        </td>\\n    </tr>\\n\', escape=False)\n    pass\nresponse.write(\'     \\n</table>\\n\', escape=False)\nresponse.write(\'</div>\\n      </div>\\n      <div class="ez-last ez-oh">\\n            <div class="ez-box" id="right_sidebar">\', escape=False)\n#------ unused space\nresponse.write(\'</div>\\n      </div>\\n    </div>\\n    <div class="ez-box" id="footer">\\n          \', escape=False)\nresponse.write(T(\'Copyright\'))\nresponse.write(\' &#169; 2010 -\\n          \', escape=False)\nresponse.write(T(\'Powered by\'))\nresponse.write(\' <a href="http://www.web2py.com">web2py</a>\\n    </div>\\n      </div>\\n    </div>\\n  </body>\\n</html>\\n\', escape=False)'
p6
sS'snapshot'
p7
(dp8
S'exception'
p9
(dp10
S'__getslice__'
p11
S"<method-wrapper '__getslice__' of exceptions.SyntaxError object>"
p12
sS'text'
p13
S'"    response.write(public[x][\'username\'] (=public[x][\'name\']))\\n"'
p14
sS'__str__'
p15
S"<method-wrapper '__str__' of exceptions.SyntaxError object>"
p16
sS'__reduce__'
p17
S'<built-in method __reduce__ of exceptions.SyntaxError object>'
p18
sS'__dict__'
p19
S'{}'
p20
sS'__sizeof__'
p21
S'<built-in method __sizeof__ of exceptions.SyntaxError object>'
p22
sS'__init__'
p23
S"<method-wrapper '__init__' of exceptions.SyntaxError object>"
p24
sS'__setattr__'
p25
S"<method-wrapper '__setattr__' of exceptions.SyntaxError object>"
p26
sS'__reduce_ex__'
p27
S'<built-in method __reduce_ex__ of exceptions.SyntaxError object>'
p28
sS'__new__'
p29
S'<built-in method __new__ of type object>'
p30
sS'__format__'
p31
S'<built-in method __format__ of exceptions.SyntaxError object>'
p32
sS'__class__'
p33
S"<type 'exceptions.SyntaxError'>"
p34
sS'filename'
p35
S"'/home/j3nnn1/git/pyj3nnn1/web2py/applications/tweepy/views/default/index.html'"
p36
sS'lineno'
p37
S'82'
p38
sS'msg'
p39
S"'invalid syntax'"
p40
sS'__doc__'
p41
S"'Invalid syntax.'"
p42
sS'__getitem__'
p43
S"<method-wrapper '__getitem__' of exceptions.SyntaxError object>"
p44
sS'__setstate__'
p45
S'<built-in method __setstate__ of exceptions.SyntaxError object>'
p46
sS'__getattribute__'
p47
S"<method-wrapper '__getattribute__' of exceptions.SyntaxError object>"
p48
sS'print_file_and_line'
p49
S'None'
p50
sS'args'
p51
S'(\'invalid syntax\', (\'/home/j3nnn1/git/pyj3nnn1/web2py/applications/tweepy/views/default/index.html\', 82, 43, "    response.write(public[x][\'username\'] (=public[x][\'name\']))\\n"))'
p52
sS'__subclasshook__'
p53
S'<built-in method __subclasshook__ of type object>'
p54
sS'offset'
p55
S'43'
p56
sS'__unicode__'
p57
S'<built-in method __unicode__ of exceptions.SyntaxError object>'
p58
sS'__delattr__'
p59
S"<method-wrapper '__delattr__' of exceptions.SyntaxError object>"
p60
sS'__repr__'
p61
S"<method-wrapper '__repr__' of exceptions.SyntaxError object>"
p62
sS'__hash__'
p63
S"<method-wrapper '__hash__' of exceptions.SyntaxError object>"
p64
ssS'evalue'
p65
S'invalid syntax (index.html, line 82)'
p66
sS'request'
p67
(dp68
S'function'
p69
S"'index'"
p70
sS'body'
p71
S'<cStringIO.StringO object>'
p72
sS'wsgi'
p73
S"<Storage {'start_response': <function <lambda> a...>, 'HTTP_ACCEPT_ENCODING': 'gzip,deflate,sdch'}}>"
p74
sS'extension'
p75
S"'html'"
p76
sS'vars'
p77
S'<Storage {}>'
p78
sS'cid'
p79
S'None'
p80
sS'url'
p81
S'<gluon.html.XML object>'
p82
sg51
S'[]'
p83
sS'controller'
p84
S"'default'"
p85
sS'cookies'
p86
S"<SimpleCookie: session_id_admin='127-0-0-1-b501e...'127-0-0-1-1ec39e37-b351-48fa-af74-3086837ce8e1'>"
p87
sS'application'
p88
S"'tweepy'"
p89
sS'ajax'
p90
S'False'
p91
sS'client'
p92
S"'127.0.0.1'"
p93
sS'env'
p94
S"<Storage {'http_user_agent': 'Mozilla/5.0 (X11; ...e': False, 'path_info': '/tweepy/default/index'}>"
p95
sS'raw_args'
p96
S'None'
p97
sS'get_vars'
p98
S'<Storage {}>'
p99
sS'folder'
p100
S"'/home/j3nnn1/git/pyj3nnn1/web2py/applications/tweepy/'"
p101
sS'now'
p102
S'datetime.datetime(2010, 10, 12, 21, 18, 19, 132341)'
p103
sS'post_vars'
p104
S'<Storage {}>'
p105
ssS'frames'
p106
(lp107
(dp108
S'file'
p109
S'/home/j3nnn1/git/pyj3nnn1/web2py/gluon/restricted.py'
p110
sS'dump'
p111
(dp112
S'code'
p113
S'\'response.write(\\\'<!DOCTYPE html PUBLIC "-//W3C//D...n    </div>\\\\n  </body>\\\\n</html>\\\\n\\\', escape=False)\''
p114
sS'layer'
p115
S"'/home/j3nnn1/git/pyj3nnn1/web2py/applications/tweepy/views/default/index.html'"
p116
sS'global compile2'
p117
S'<function compile2>'
p118
sS'ccode'
p119
S'undefined'
p120
ssS'lnum'
p121
I186
sS'lines'
p122
(dp123
I181
S''
sI182
S'    try:'
p124
sI183
S'        if type(code) == types.CodeType:'
p125
sI184
S'            ccode = code'
p126
sI185
S'        else:'
p127
sI186
S'            ccode = compile2(code,layer)'
p128
sI187
S''
sI188
S'        exec ccode in environment'
p129
sI189
S'    except HTTP:'
p130
sI190
S'        raise'
p131
ssS'call'
p132
S'(code=\'response.write(\\\'<!DOCTYPE html PUBLIC "-//W3C//D...n    </div>\\\\n  </body>\\\\n</html>\\\\n\\\', escape=False)\', environment={\'A\': <class \'gluon.html.A\'>, \'Auth\': <class \'gluon.tools.Auth\'>, \'B\': <class \'gluon.html.B\'>, \'BEAUTIFY\': <class \'gluon.html.BEAUTIFY\'>, \'BODY\': <class \'gluon.html.BODY\'>, \'BR\': <class \'gluon.html.BR\'>, \'CENTER\': <class \'gluon.html.CENTER\'>, \'CLEANUP\': <class \'gluon.validators.CLEANUP\'>, \'CODE\': <class \'gluon.html.CODE\'>, \'CRYPT\': <class \'gluon.validators.CRYPT\'>, ...}, layer=\'/home/j3nnn1/git/pyj3nnn1/web2py/applications/tweepy/views/default/index.html\')'
p133
sS'func'
p134
S'restricted'
p135
sa(dp136
g109
S'/home/j3nnn1/git/pyj3nnn1/web2py/gluon/restricted.py'
p137
sg111
(dp138
S'builtincompile'
p139
S'<built-in function compile>'
p140
sS'code'
p141
S'\'response.write(\\\'<!DOCTYPE html PUBLIC "-//W3C//D...n    </div>\\\\n  </body>\\\\n</html>\\\\n\\\', escape=False)\''
p142
sS'code.rstrip'
p143
S'<built-in method rstrip of str object>'
p144
sS').replace'
p145
g120
sS'layer'
p146
S"'/home/j3nnn1/git/pyj3nnn1/web2py/applications/tweepy/views/default/index.html'"
p147
ssg121
I173
sg122
(dp148
I168
S''
sI169
S'def compile2(code,layer):'
p149
sI170
S'    """'
p150
sI171
S"    The +'\\n' is necessary else compile fails when code ends in a comment."
p151
sI172
S'    """'
p152
sI173
S"    return compile(code.rstrip().replace('\\r\\n','\\n')+'\\n', layer, 'exec')"
p153
sI174
S''
sI175
S"def restricted(code, environment={}, layer='Unknown'):"
p154
sI176
S'    """'
p155
sI177
S'    runs code in environment and returns the output. if an exception occurs'
p156
ssg132
S'(code=\'response.write(\\\'<!DOCTYPE html PUBLIC "-//W3C//D...n    </div>\\\\n  </body>\\\\n</html>\\\\n\\\', escape=False)\', layer=\'/home/j3nnn1/git/pyj3nnn1/web2py/applications/tweepy/views/default/index.html\')'
p157
sg134
S'compile2'
p158
sasS'pyver'
p159
S'Python 2.6.6: /usr/bin/python'
p160
sS'session'
p161
(dp162
S'auth'
p163
S'None'
p164
ssS'etype'
p165
S"<type 'exceptions.SyntaxError'>"
p166
sS'date'
p167
S'Tue Oct 12 21:18:25 2010'
p168
sS'response'
p169
(dp170
S'status'
p171
S'200'
p172
sg71
S'<cStringIO.StringO object>'
p173
sg86
S"<SimpleCookie: session_id_tweepy='127-0-0-1-316504f2-0da6-4968-8ef6-728ad932eccd'>"
p174
sS'_vars'
p175
S'{\'imageuser\': \'http://a1.twimg.com/profile_images/1110270905/20091102_BooFromMonstersInc_normal.jpg\', \'nameuser\': \'jenn\', \'public\': {0: {\'name\': \'MACKorDIE_\', \'status\': "weak bitch\' #wrongBITCH", \'url_pic\': \'http://a3.twimg.com/profile_images/1139576199/45a604ac-5ad7-4f4a-a5ea-bbd67112e239_normal.png\', \'username\': \'Rakietta Mack\'}, 1: {\'name\': \'nadyauhuyy\', \'status\': u\'Ohh si @takiawesome sejenis surili ? RT @iamom...y: \\u2202\\u03ca kebun bareng wauwau scotjump?hh"\', \'url_pic\': \'http://a0.twimg.com/profile_images/1138481456/IMG01717-20101006-1259_normal.jpg\', \'username\': \'nadya citra\'}, 2: {\'name\': \'kissmonkey23\', \'status\': "synced some songs in my blackberry so that I hav... is not working... *sigh* my ipod\'s broken again!", \'url_pic\': \'http://a2.twimg.com/profile_images/709975538/DSC01848_normal.JPG\', \'username\': \'Anna Tovera\'}, 3: {\'name\': \'azaelrunaway\', \'status\': "PORQUE OFFLINE, BELI VUELVEEE :\'( (@belindapop live on http://twitcam.com/2d4lm)", \'url_pic\': \'http://a3.twimg.com/profile_images/1141725511/19...0559876060_544426060_5209290_6296495_n_normal.jpg\', \'username\': \'Azael Shiller\'}, 4: {\'name\': \'maepon\', \'status\': u\'\\u304a\\u3081\\u3067\\u3068\\u3046\\u3054\\u3056\\u30...\\u304f\\u304c\\u3093\\u3070\\u308a\\u307e\\u3059\\uff01\', \'url_pic\': \'http://a2.twimg.com/profile_images/1130043970/nigaoe_data-72dpi_normal.jpg\', \'username\': \'Masayuki Maekawa\'}, 5: {\'name\': \'guu_interface\', \'status\': u\'ningu\\xe9m veio me dar banho, vou sozinho =/\', \'url_pic\': \'http://a0.twimg.com/profile_images/893142372/043_normal.JPG\', \'username\': \'Gustavo Fernandes\'}, 6: {\'name\': \'Jemima_Cardoso\', \'status\': u\'O dia hoje foi MaravilhoSO!!!! ClubE, Shopping... do DAVID Guitar Hero!!! Deus ouviu meu filho!!!\', \'url_pic\': \'http://a3.twimg.com/profile_images/1142307527/Imagem10_normal.jpg\', \'username\': \'Jemima Cardoso\'}, 7: {\'name\': \'jacjacgotswagg\', \'status\': \'Today was a good day but the dumb kids in 4th period made my teacher cry. I feel so bad\', \'url_pic\': \'http://a3.twimg.com/profile_images/1136190803/profile_normal.jpg\', \'username\': \'jaxon cloud\'}, 8: {\'name\': \'vickyjuan\', \'status\': \'beli qe paso? (@belindapop live on http://twitcam.com/2d4lm)\', \'url_pic\': \'http://s.twimg.com/a/1285890902/images/default_profile_3_normal.png\', \'username\': \'victoria juan\'}, 9: {\'name\': \'_PaulaBrown_\', \'status\': u\'RT @CaliGoofball: THIS NIGGA SUNDAY JUS SCREAMED OUTTA NOWHERE!!! LMAO\\u2022 creep\', \'url_pic\': \'http://a1.twimg.com/profile_images/1139119489/e2770f86-f64a-407a-826e-aad8e255cb79_normal.png\', \'username\': \'Paula Brown\'}, ...}, \'statususer\': \'chequeando: http://www.web2py.com/book/ #web2py\'}'
p176
sS'title'
p177
S"'tweepy'"
p178
sS'session_file'
p179
S"<open file '/home/j3nnn1/git/pyj3nnn1/web2py/app...16504f2-0da6-4968-8ef6-728ad932eccd', mode 'rb+'>"
p180
sS'flash'
p181
S"''"
p182
sS'_custom_rollback'
p183
S'None'
p184
sS'session_id'
p185
S"'127-0-0-1-316504f2-0da6-4968-8ef6-728ad932eccd'"
p186
sS'headers'
p187
S"<Storage {'Expires': 'mi\\xc3\\xa9, 13 oct 2010 01...he, must-revalidate, post-check=0, pre-check=0'}>"
p188
sS'meta'
p189
S"<Storage {'keywords': 'bla bla bla', 'description': 'describe your app', 'author': 'you'}>"
p190
sS'session_filename'
p191
S"'/home/j3nnn1/git/pyj3nnn1/web2py/applications/tw...ns/127-0-0-1-316504f2-0da6-4968-8ef6-728ad932eccd'"
p192
sS'postprocessing'
p193
S'[]'
p194
sS'menu'
p195
S"[(<lazyT 'Index'>, False, <gluon.html.XML object>, []), (<lazyT 'Edit'>, False, <gluon.html.XML object>, [(<lazyT 'Controller'>, False, <gluon.html.XML object>), (<lazyT 'View'>, False, <gluon.html.XML object>), (<lazyT 'Layout'>, False, <gluon.html.XML object>), (<lazyT 'Stylesheet'>, False, <gluon.html.XML object>), (<lazyT 'DB Model'>, False, <gluon.html.XML object>), (<lazyT 'Menu Model'>, False, <gluon.html.XML object>), (<lazyT 'Database'>, False, <gluon.html.XML object>)])]"
p196
sS'_view_environment'
p197
S"{'A': <class 'gluon.html.A'>, 'Auth': <class 'gluon.tools.Auth'>, 'B': <class 'gluon.html.B'>, 'BEAUTIFY': <class 'gluon.html.BEAUTIFY'>, 'BODY': <class 'gluon.html.BODY'>, 'BR': <class 'gluon.html.BR'>, 'CENTER': <class 'gluon.html.CENTER'>, 'CLEANUP': <class 'gluon.validators.CLEANUP'>, 'CODE': <class 'gluon.html.CODE'>, 'CRYPT': <class 'gluon.validators.CRYPT'>, ...}"
p198
sS'subtitle'
p199
S"<lazyT 'customize me!'>"
p200
sS'session_id_name'
p201
S"'session_id_tweepy'"
p202
sS'_custom_commit'
p203
S'None'
p204
sS'_caller'
p205
S'<function <lambda>>'
p206
sS'files'
p207
S'[]'
p208
sS'view'
p209
S"'default/index.html'"
p210
ssS'locals'
p211
(dp212
g3
S"'/home/j3nnn1/git/pyj3nnn1/web2py/applications/tweepy/views/default/index.html'"
p213
sg5
S'\'response.write(\\\'<!DOCTYPE html PUBLIC "-//W3C//D...n    </div>\\\\n  </body>\\\\n</html>\\\\n\\\', escape=False)\''
p214
sssS'traceback'
p215
S'Traceback (most recent call last):\n  File "/home/j3nnn1/git/pyj3nnn1/web2py/gluon/restricted.py", line 186, in restricted\n    ccode = compile2(code,layer)\n  File "/home/j3nnn1/git/pyj3nnn1/web2py/gluon/restricted.py", line 173, in compile2\n    return compile(code.rstrip().replace(\'\\r\\n\',\'\\n\')+\'\\n\', layer, \'exec\')\n  File "/home/j3nnn1/git/pyj3nnn1/web2py/applications/tweepy/views/default/index.html", line 82\n    response.write(public[x][\'username\'] (=public[x][\'name\']))\n                                          ^\nSyntaxError: invalid syntax\n'
p216
s.