(dp1
S'output'
p2
S''
sS'layer'
p3
S'/home/j3nnn1/git/pyj3nnn1/web2py/applications/tweepy/views/default/index.html'
p4
sS'code'
p5
S'response.write(\'<!DOCTYPE html PUBLIC "-//W3C//DTD XHTML 1.0 Transitional//EN" "http://www.w3.org/TR/xhtml1/DTD/xhtml1-transitional.dtd">\\n<html xmlns="http://www.w3.org/1999/xhtml" xml:lang="\', escape=False)\nresponse.write(T.accepted_language or \'en\')\nresponse.write(\'">\\n  <head>\\n    <title>\', escape=False)\nresponse.write(response.title or request.application)\nresponse.write(\'</title>\\n    <link rel="shortcut icon"\\n\\t  href="\', escape=False)\nresponse.write(URL(request.application,\'static\',\'favicon.ico\'))\nresponse.write(\'" \\n\\t  type="image/vnd.microsoft.icon">\\n    <meta http-equiv="Content-Type" content="text/html; charset=UTF-8" />\\n    \', escape=False)\n#------  require CSS and JS files for this page (read info in base.css) ------\nresponse.write(\'\\n    \', escape=False)\nresponse.files.append(URL(request.application,\'static\',\'base.css\'))\nresponse.write(\'\\n    \', escape=False)\nresponse.files.append(URL(request.application,\'static\',\'superfish.js\'))\nresponse.write(\'\\n    \', escape=False)\n#------ include web2py specific js code (jquery, calendar, form stuff) ------\nresponse.write(\'\\n    \', escape=False)\nresponse.files.insert(0,URL(r=request,c=\'static\',f=\'jquery.js\'))\nresponse.files.insert(1,URL(r=request,c=\'static\',f=\'calendar.css\'))\nresponse.files.insert(2,URL(r=request,c=\'static\',f=\'calendar.js\'))\nfor _item in response.meta or []:\n    response.write(\'\\n     <meta name="\', escape=False)\n    response.write(_item)\n    response.write(\'" content="\', escape=False)\n    response.write(response.meta[_item])\n    response.write(\'" />\', escape=False)\n    pass\nfor _k,_file in enumerate(response.files or []):\n    if _file in response.files[:_k]:\n        continue\n    elif _file.lower().endswith(\'.css\'):\n        response.write(\'\\n     <link href="\', escape=False)\n        response.write(_file)\n        response.write(\'" rel="stylesheet" type="text/css" />\', escape=False)\n    elif _file.lower().endswith(\'.js\'):\n        response.write(\'\\n     <script src="\', escape=False)\n        response.write(_file)\n        response.write(\'" type="text/javascript"></script>\', escape=False)\n        pass\n    pass\nresponse.write(\'\\n<script type="text/javascript"><!--\\nfunction popup(url) {\\n  newwindow=window.open(url,\\\'name\\\',\\\'height=400,width=600\\\');\\n  if (window.focus) newwindow.focus();\\n  return false;\\n}\\nfunction collapse(id) { jQuery(\\\'#\\\'+id).slideToggle(); }\\nfunction fade(id,value) { if(value>0) jQuery(\\\'#\\\'+id).hide().fadeIn(\\\'slow\\\'); else jQuery(\\\'#\\\'+id).show().fadeOut(\\\'slow\\\'); }\\nfunction ajax(u,s,t) {\\n    query = \\\'\\\';\\n    if (typeof s == "string") {\\n        d = jQuery(s).serialize();\\n        if(d){ query = d; }\\n    } else {\\n        pcs = [];\\n        for(i=0; i<s.length; i++) {\\n            q = jQuery("[name="+s[i]+"]").serialize();\\n            if(q){pcs.push(q);}\\n        }\\n        if (pcs.length>0){query = pcs.join("&");}\\n    }\\n    jQuery.ajax({type: "POST", url: u, data: query, success: function(msg) { if(t) { if(t==\\\':eval\\\') eval(msg); else jQuery("#" + t).html(msg); } } }); \\n}\\nString.prototype.reverse = function () { return this.split(\\\'\\\').reverse().join(\\\'\\\');};\\nfunction web2py_ajax_init() {\\n  jQuery(\\\'.hidden\\\').hide();\\n  jQuery(\\\'.error\\\').hide().slideDown(\\\'slow\\\');\\n  jQuery(\\\'.flash\\\').click(function() { jQuery(this).fadeOut(\\\'slow\\\'); return false; });\\n  jQuery(\\\'input[type=submit]\\\').click(function(){var t=jQuery(this);t.hide();t.after(\\\'<input class="submit_disabled" disabled="disabled" type="submit" name="\\\'+t.attr("name")+\\\'_dummy" value="\\\'+t.val()+\\\'">\\\')});\\n  jQuery(\\\'input.integer\\\').keyup(function(){this.value=this.value.reverse().replace(/[^0-9\\\\-]|\\\\-(?=.)/g,\\\'\\\').reverse();});\\n  jQuery(\\\'input.double,input.decimal\\\').keyup(function(){this.value=this.value.reverse().replace(/[^0-9\\\\-\\\\.]|[\\\\-](?=.)|[\\\\.](?=[0-9]*[\\\\.])/g,\\\'\\\').reverse();});\\n  jQuery("input[type=\\\'checkbox\\\'].delete").each(function(){jQuery(this).click(function() { if(this.checked) if(!confirm("\', escape=False)\nresponse.write(T(\'Sure you want to delete this object?\'))\nresponse.write(\'")) this.checked=false; });});\\n  try {jQuery("input.date").focus( function() {Calendar.setup({\\n     inputField:this.id, ifFormat:"\', escape=False)\nresponse.write(T(\'%Y-%m-%d\'))\nresponse.write(\'", showsTime:false\\n  }); }); } catch(e) {};\\n  try { jQuery("input.datetime").focus( function() {Calendar.setup({\\n     inputField:this.id, ifFormat:"\', escape=False)\nresponse.write(T(\'%Y-%m-%d %H:%M:%S\'))\nresponse.write(\'", showsTime: true,timeFormat: "24"\\n  }); }); } catch(e) {};\\n  try { jQuery("input.time").clockpick({\\n      starthour:0, endhour:23, showminutes:true, military:true\\n  }); } catch(e) {};\\n};\\njQuery(document).ready(function(){\\n   jQuery(\\\'.flash\\\').hide();\\n   if(jQuery(\\\'.flash\\\').html()!=\\\'\\\') jQuery(\\\'.flash\\\').slideDown(\\\'slow\\\');\\n   web2py_ajax_init();});\\n\\nfunction web2py_trap_form(action,target) {\\n   jQuery(\\\'#\\\'+target+\\\' form\\\').each(function(i){\\n      var form=jQuery(this);\\n      if(!form.hasClass(\\\'no_trap\\\'))\\n        form.submit(function(obj){\\n         jQuery(\\\'.flash\\\').hide().html(\\\'\\\');\\n         web2py_ajax_page(\\\'post\\\',action,form.serialize(),target);\\n         return false;\\n      });\\n   });\\n}\\n\\nfunction web2py_ajax_page(method,action,data,target) {\\n  jQuery.ajax({\\\'type\\\':method,\\\'url\\\':action,\\\'data\\\':data,\\n    \\\'beforeSend\\\':function(xhr) {\\n      xhr.setRequestHeader(\\\'web2py-component-location\\\',document.location);\\n      xhr.setRequestHeader(\\\'web2py-component-element\\\',target);},\\n    \\\'complete\\\':function(xhr,text){\\n      var html=xhr.responseText;\\n      var content=xhr.getResponseHeader(\\\'web2py-component-content\\\'); \\n      var command=xhr.getResponseHeader(\\\'web2py-component-command\\\');\\n      var flash=xhr.getResponseHeader(\\\'web2py-component-flash\\\');\\n      var t = jQuery(\\\'#\\\'+target);\\n      if(content==\\\'prepend\\\') t.prepend(html); \\n      else if(content==\\\'append\\\') t.append(html);\\n      else if(content!=\\\'hide\\\') t.html(html);  \\n      web2py_trap_form(action,target);\\n      web2py_ajax_init();      \\n      if(command) eval(command);\\n      if(flash) jQuery(\\\'.flash\\\').html(flash).slideDown();\\n      }\\n    });\\n}\\nfunction web2py_component(action,target) {\\n    jQuery(document).ready(function(){ web2py_ajax_page(\\\'get\\\',action,null,target); });\\n}\\n//--></script>\\n\', escape=False)\nresponse.write(\'\\n  </head>\\n  <body>\\n    <div class="flash">\', escape=False)\nresponse.write(response.flash or \'\')\nresponse.write(\'</div>\\n    <div class="ez-mr wrapper" id="layout">\\n      \', escape=False)\n#------ Layout 3 from http://www.ez-css.org/layouts ------\nresponse.write(\'\\n      <div class="ez-wr">\\n\\t<div class="ez-box" id="header">\\n\\t  \', escape=False)\ntry:\n    response.write(auth.navbar(action=URL(request.application,\'default\',\'user\')))\nexcept:pass\nresponse.write(\'\\n          <h1>\\n            <a href="">\', escape=False)\nresponse.write(response.title or \'response.title\')\nresponse.write(\'</a>\\n          </h1>            \\n          <h2>\\n\\t    \', escape=False)\nresponse.write(response.subtitle or \'response.subtitle\')\nresponse.write(\'\\n\\t  </h2>\\n\\t</div>\\n\\t<div class="ez-box" id="statusbar">\\n\\t  \', escape=False)\n#------ superfish menu ------\nresponse.write(\'\\n\\t  \', escape=False)\nresponse.write(MENU(response.menu,_class=\'sf-menu\'))\nresponse.write(\'\\n          <script>\\n\\t    jQuery(document).ready(function(){\\n              jQuery(\\\'ul.sf-menu\\\').superfish({delay:400});});\\n\\t  </script>\\n\\t</div>\\n\\t<div class="ez-wr">\\n\\t  <div class="ez-fl ez-negmx">\\n            <div class="ez-box" id="left_sidebar">\', escape=False)\n#------ unused space\nresponse.write(\'</div>\\n\\t  </div>\\n\\t  <div class="ez-fl ez-negmr">\\n            <div class="ez-box" id="content">\', escape=False)\nresponse.write(\'\\n<hr />\\n<h1>This is the homework</h1>\\n<div> \', escape=False)\nresponse.write(T(\'Tweepy, user: j3nnn1!!\'))\nresponse.write(\'</div>\\n<table>\\n    <tr>\\n        <td>\\n            <img src="\', escape=False)\nresponse.write(imageuser)\nresponse.write(\'"/>\\n        </td>\\n        <td>\\n           <b>\', escape=False)\nresponse.write(nameuser)\nresponse.write(\': </b>\', escape=False)\nresponse.write(statususer)\nresponse.write(\' \\n        </td>\\n    </tr>\\n</table>\\n<div> \', escape=False)\nresponse.write(T(\'Tweepy, Public Time Line!!\'))\nresponse.write(\'</div>\\n\\n<table>\\n    \', escape=False)\nfor x in public:\n    response.write(\'\\n    <tr>\\n        <td>\\n            <img src="\', escape=False)\n    response.write(x[1][\'url_pic\'])\n    response.write(\'"/>\\n        </td>\\n        <td>\\n           <b>\', escape=False)\n    response.write(x[1][\'name\'])\n    response.write(\': </b>\', escape=False)\n    response.write(x[1][\'status\'])\n    response.write(\'\\n        </td>\\n    </tr>\\n    \', escape=False)\n    pass\nresponse.write(\'\\n</table>\\n\', escape=False)\nresponse.write(\'</div>\\n\\t  </div>\\n\\t  <div class="ez-last ez-oh">\\n            <div class="ez-box" id="right_sidebar">\', escape=False)\n#------ unused space\nresponse.write(\'</div>\\n\\t  </div>\\n\\t</div>\\n\\t<div class="ez-box" id="footer">\\n          \', escape=False)\nresponse.write(T(\'Copyright\'))\nresponse.write(\' &#169; 2010 -\\n          \', escape=False)\nresponse.write(T(\'Powered by\'))\nresponse.write(\' <a href="http://www.web2py.com">web2py</a>\\n\\t</div>\\n      </div>\\n    </div>\\n  </body>\\n</html>\\n\', escape=False)'
p6
sS'snapshot'
p7
(dp8
S'exception'
p9
(dp10
S'__hash__'
p11
S"<method-wrapper '__hash__' of exceptions.TypeError object>"
p12
sS'__setattr__'
p13
S"<method-wrapper '__setattr__' of exceptions.TypeError object>"
p14
sS'__reduce_ex__'
p15
S'<built-in method __reduce_ex__ of exceptions.TypeError object>'
p16
sS'__getslice__'
p17
S"<method-wrapper '__getslice__' of exceptions.TypeError object>"
p18
sS'__getitem__'
p19
S"<method-wrapper '__getitem__' of exceptions.TypeError object>"
p20
sS'__setstate__'
p21
S'<built-in method __setstate__ of exceptions.TypeError object>'
p22
sS'__reduce__'
p23
S'<built-in method __reduce__ of exceptions.TypeError object>'
p24
sS'__str__'
p25
S"<method-wrapper '__str__' of exceptions.TypeError object>"
p26
sS'__format__'
p27
S'<built-in method __format__ of exceptions.TypeError object>'
p28
sS'__getattribute__'
p29
S"<method-wrapper '__getattribute__' of exceptions.TypeError object>"
p30
sS'__class__'
p31
S"<type 'exceptions.TypeError'>"
p32
sS'__unicode__'
p33
S'<built-in method __unicode__ of exceptions.TypeError object>'
p34
sS'__delattr__'
p35
S"<method-wrapper '__delattr__' of exceptions.TypeError object>"
p36
sS'__subclasshook__'
p37
S'<built-in method __subclasshook__ of type object>'
p38
sS'__repr__'
p39
S"<method-wrapper '__repr__' of exceptions.TypeError object>"
p40
sS'args'
p41
S'("\'int\' object is unsubscriptable",)'
p42
sS'__dict__'
p43
S'{}'
p44
sS'__sizeof__'
p45
S'<built-in method __sizeof__ of exceptions.TypeError object>'
p46
sS'__doc__'
p47
S"'Inappropriate argument type.'"
p48
sS'__init__'
p49
S"<method-wrapper '__init__' of exceptions.TypeError object>"
p50
sS'__new__'
p51
S'<built-in method __new__ of type object>'
p52
ssS'evalue'
p53
S"'int' object is unsubscriptable"
p54
sS'request'
p55
(dp56
S'function'
p57
S"'index'"
p58
sS'body'
p59
S'<cStringIO.StringO object>'
p60
sS'wsgi'
p61
S"<Storage {'start_response': <function <lambda> a...>, 'HTTP_ACCEPT_ENCODING': 'gzip,deflate,sdch'}}>"
p62
sS'extension'
p63
S"'html'"
p64
sS'vars'
p65
S'<Storage {}>'
p66
sS'cid'
p67
S'None'
p68
sS'url'
p69
S'<gluon.html.XML object>'
p70
sg41
S'[]'
p71
sS'controller'
p72
S"'default'"
p73
sS'cookies'
p74
S"<SimpleCookie: session_id_admin='127-0-0-1-b501e...'127-0-0-1-1ec39e37-b351-48fa-af74-3086837ce8e1'>"
p75
sS'application'
p76
S"'tweepy'"
p77
sS'ajax'
p78
S'False'
p79
sS'client'
p80
S"'127.0.0.1'"
p81
sS'env'
p82
S"<Storage {'http_user_agent': 'Mozilla/5.0 (X11; ...e': False, 'path_info': '/tweepy/default/index'}>"
p83
sS'raw_args'
p84
S'None'
p85
sS'get_vars'
p86
S'<Storage {}>'
p87
sS'folder'
p88
S"'/home/j3nnn1/git/pyj3nnn1/web2py/applications/tweepy/'"
p89
sS'now'
p90
S'datetime.datetime(2010, 10, 12, 19, 27, 26, 122702)'
p91
sS'post_vars'
p92
S'<Storage {}>'
p93
ssS'frames'
p94
(lp95
(dp96
S'file'
p97
S'/home/j3nnn1/git/pyj3nnn1/web2py/gluon/restricted.py'
p98
sS'dump'
p99
(dp100
S'environment'
p101
S"{'A': <class 'gluon.html.A'>, 'Auth': <class 'gluon.tools.Auth'>, 'B': <class 'gluon.html.B'>, 'BEAUTIFY': <class 'gluon.html.BEAUTIFY'>, 'BODY': <class 'gluon.html.BODY'>, 'BR': <class 'gluon.html.BR'>, 'CENTER': <class 'gluon.html.CENTER'>, 'CLEANUP': <class 'gluon.validators.CLEANUP'>, 'CODE': <class 'gluon.html.CODE'>, 'CRYPT': <class 'gluon.validators.CRYPT'>, ...}"
p102
sS'ccode'
p103
S'<code object <module> at 0xa1608d8, file "/home/...cations/tweepy/views/default/index.html", line 1>'
p104
ssS'lnum'
p105
I188
sS'lines'
p106
(dp107
I192
S'        # XXX Show exception in Wing IDE if running in debugger'
p108
sI183
S'        if type(code) == types.CodeType:'
p109
sI184
S'            ccode = code'
p110
sI185
S'        else:'
p111
sI186
S'            ccode = compile2(code,layer)'
p112
sI187
S''
sI188
S'        exec ccode in environment'
p113
sI189
S'    except HTTP:'
p114
sI190
S'        raise'
p115
sI191
S'    except Exception:'
p116
ssS'call'
p117
S'(code=\'response.write(\\\'<!DOCTYPE html PUBLIC "-//W3C//D...n    </div>\\\\n  </body>\\\\n</html>\\\\n\\\', escape=False)\', environment={\'A\': <class \'gluon.html.A\'>, \'Auth\': <class \'gluon.tools.Auth\'>, \'B\': <class \'gluon.html.B\'>, \'BEAUTIFY\': <class \'gluon.html.BEAUTIFY\'>, \'BODY\': <class \'gluon.html.BODY\'>, \'BR\': <class \'gluon.html.BR\'>, \'CENTER\': <class \'gluon.html.CENTER\'>, \'CLEANUP\': <class \'gluon.validators.CLEANUP\'>, \'CODE\': <class \'gluon.html.CODE\'>, \'CRYPT\': <class \'gluon.validators.CRYPT\'>, ...}, layer=\'/home/j3nnn1/git/pyj3nnn1/web2py/applications/tweepy/views/default/index.html\')'
p118
sS'func'
p119
S'restricted'
p120
sa(dp121
g97
S'/home/j3nnn1/git/pyj3nnn1/web2py/applications/tweepy/views/default/index.html'
p122
sg99
(dp123
sg105
I78
sg106
(dp124
I69
S'response.write(\'"/>\\n        </td>\\n        <td>\\n           <b>\', escape=False)'
p125
sI70
S'response.write(nameuser)'
p126
sI71
S"response.write(': </b>', escape=False)"
p127
sI72
S'response.write(statususer)'
p128
sI73
S"response.write(' \\n        </td>\\n    </tr>\\n</table>\\n<div> ', escape=False)"
p129
sI74
S"response.write(T('Tweepy, Public Time Line!!'))"
p130
sI75
S"response.write('</div>\\n\\n<table>\\n    ', escape=False)"
p131
sI76
S'for x in public:'
p132
sI77
S'    response.write(\'\\n    <tr>\\n        <td>\\n            <img src="\', escape=False)'
p133
sI78
S"    response.write(x[1]['url_pic'])"
p134
sI79
S'    response.write(\'"/>\\n        </td>\\n        <td>\\n           <b>\', escape=False)'
p135
sI80
S"    response.write(x[1]['name'])"
p136
sI81
S"    response.write(': </b>', escape=False)"
p137
sI82
S"    response.write(x[1]['status'])"
p138
sI83
S"    response.write('\\n        </td>\\n    </tr>\\n    ', escape=False)"
p139
sI84
S'    pass'
p140
sI85
S"response.write('\\n</table>\\n', escape=False)"
p141
sI86
S'response.write(\'</div>\\n\\t  </div>\\n\\t  <div class="ez-last ez-oh">\\n            <div class="ez-box" id="right_sidebar">\', escape=False)'
p142
sI87
S'#------ unused space'
p143
sI88
S'response.write(\'</div>\\n\\t  </div>\\n\\t</div>\\n\\t<div class="ez-box" id="footer">\\n          \', escape=False)'
p144
ssg117
S'()'
p145
sg119
S'<module>'
p146
sasS'pyver'
p147
S'Python 2.6.6: /usr/bin/python'
p148
sS'session'
p149
(dp150
S'auth'
p151
S'None'
p152
ssS'etype'
p153
S"<type 'exceptions.TypeError'>"
p154
sS'date'
p155
S'Tue Oct 12 19:27:27 2010'
p156
sS'response'
p157
(dp158
S'status'
p159
S'200'
p160
sg59
S'<cStringIO.StringO object>'
p161
sg74
S"<SimpleCookie: session_id_tweepy='127-0-0-1-316504f2-0da6-4968-8ef6-728ad932eccd'>"
p162
sS'_vars'
p163
S'{\'imageuser\': \'http://a1.twimg.com/profile_images/1110270905/20091102_BooFromMonstersInc_normal.jpg\', \'nameuser\': \'jenn\', \'public\': {0: {\'name\': \'barbmullings\', \'status\': \'Are You Powerful Beyond Measure... http://t.co/k...mendously inspiring, what do you think about it??\', \'url_pic\': \'http://a0.twimg.com/profile_images/1097326192/FearMe8758_normal.jpg\'}, 1: {\'name\': \'waldo9149\', \'status\': \'soo i cantt waitt till the nextt fuegoo really d...ke it an exciting night(; ahhaaa gett att mee....\', \'url_pic\': \'http://a1.twimg.com/profile_images/960338529/m_d4aefbab2303444895d1629ebec78fe7_normal.jpg\'}, 2: {\'name\': \'dantelfer\', \'status\': \'Hey Illinois! Remember to vote for governor this year! http://huff.to/c187pW\', \'url_pic\': \'http://a3.twimg.com/profile_images/758711367/newdynaavatar_normal.jpg\'}, 3: {\'name\': \'iloveeashlee\', \'status\': \'Yes yes yes yes yes yes Yesssssssssss i do!\', \'url_pic\': \'http://a0.twimg.com/profile_images/1090032116/megan_and_ashlee_normal.jpg\'}, 4: {\'name\': \'Joellen6252\', \'status\': "Eric Stoltz as Marty McFly: See the \'Back to the Future\' that almost was http://tinyurl.com/22mgut4", \'url_pic\': \'http://a1.twimg.com/profile_images/1099763997/DSC_0204_normal.JPG\'}, 5: {\'name\': \'chafeed\', \'status\': "RT @Eponk: Morning people , don\'t forget to foll...wesome band with new formation --&gt; @CDCJKT  :)", \'url_pic\': \'http://a2.twimg.com/profile_images/737843546/103...5822803652_1172242712_783994_8136890_n_normal.jpg\'}, 6: {\'name\': \'JustTaylorS\', \'status\': \'Welcome @EUROGEMSCOM  (again KKKKKK) and @Lizziebeckman  *----------------*\', \'url_pic\': \'http://a0.twimg.com/profile_images/1141778768/taylor_pequena_normal.jpg\'}, 7: {\'name\': \'martypurks\', \'status\': u"I\'m at Aromas Coffeehouse Bakeshop & Cafe\\u200...nts Square, Williamsburg). http://4sq.com/8JLwmb", \'url_pic\': \'http://a3.twimg.com/profile_images/215407679/mep_1_normal.jpg\'}, 8: {\'name\': \'jessicagiorio\', \'status\': \'nossa q friu :s\', \'url_pic\': \'http://a1.twimg.com/profile_images/1108614077/Og...wEqk4Am1T1UMmVc23HhBcoGJBRzfrGdb7ShNB__normal.jpg\'}, 9: {\'name\': \'CELEBRITYXXXX\', \'status\': "#NAKED BEYONCE\' PICS! WHO\'S #DICK IS SHE #SUCKING IN THESE PICS! http://bit.ly/cphCPs #RETWEET #X32", \'url_pic\': \'http://a2.twimg.com/profile_images/1142495702/TWITTER_GIRL_1_normal.jpg\'}, ...}, \'statususer\': \'RT @web2pyBrasil: Mais um site muito bonito desenvolvido com web2py http://www.elizabethscanvas.org/\'}'
p164
sS'title'
p165
S"'tweepy'"
p166
sS'session_file'
p167
S"<open file '/home/j3nnn1/git/pyj3nnn1/web2py/app...16504f2-0da6-4968-8ef6-728ad932eccd', mode 'rb+'>"
p168
sS'flash'
p169
S"''"
p170
sS'_custom_rollback'
p171
S'None'
p172
sS'session_id'
p173
S"'127-0-0-1-316504f2-0da6-4968-8ef6-728ad932eccd'"
p174
sS'headers'
p175
S"<Storage {'Expires': 'mar, 12 oct 2010 23:57:26 ...he, must-revalidate, post-check=0, pre-check=0'}>"
p176
sS'meta'
p177
S"<Storage {'keywords': 'bla bla bla', 'description': 'describe your app', 'author': 'you'}>"
p178
sS'session_filename'
p179
S"'/home/j3nnn1/git/pyj3nnn1/web2py/applications/tw...ns/127-0-0-1-316504f2-0da6-4968-8ef6-728ad932eccd'"
p180
sS'postprocessing'
p181
S'[]'
p182
sS'menu'
p183
S"[(<lazyT 'Index'>, False, <gluon.html.XML object>, []), (<lazyT 'Edit'>, False, <gluon.html.XML object>, [(<lazyT 'Controller'>, False, <gluon.html.XML object>), (<lazyT 'View'>, False, <gluon.html.XML object>), (<lazyT 'Layout'>, False, <gluon.html.XML object>), (<lazyT 'Stylesheet'>, False, <gluon.html.XML object>), (<lazyT 'DB Model'>, False, <gluon.html.XML object>), (<lazyT 'Menu Model'>, False, <gluon.html.XML object>), (<lazyT 'Database'>, False, <gluon.html.XML object>)])]"
p184
sS'_view_environment'
p185
S"{'A': <class 'gluon.html.A'>, 'Auth': <class 'gluon.tools.Auth'>, 'B': <class 'gluon.html.B'>, 'BEAUTIFY': <class 'gluon.html.BEAUTIFY'>, 'BODY': <class 'gluon.html.BODY'>, 'BR': <class 'gluon.html.BR'>, 'CENTER': <class 'gluon.html.CENTER'>, 'CLEANUP': <class 'gluon.validators.CLEANUP'>, 'CODE': <class 'gluon.html.CODE'>, 'CRYPT': <class 'gluon.validators.CRYPT'>, ...}"
p186
sS'subtitle'
p187
S"<lazyT 'customize me!'>"
p188
sS'session_id_name'
p189
S"'session_id_tweepy'"
p190
sS'_custom_commit'
p191
S'None'
p192
sS'_caller'
p193
S'<function <lambda>>'
p194
sS'files'
p195
S'[<gluon.html.XML object>, <gluon.html.XML object>, <gluon.html.XML object>, <gluon.html.XML object>, <gluon.html.XML object>]'
p196
sS'view'
p197
S"'default/index.html'"
p198
ssS'locals'
p199
(dp200
S'Service'
p201
S'<class gluon.tools.Service>'
p202
sS'OBJECT'
p203
S"<class 'gluon.html.OBJECT'>"
p204
sS'_file'
p205
S'<gluon.html.XML object>'
p206
sS'SQLDB'
p207
S"<class 'gluon.sql.SQLDB'>"
p208
sg149
S"<Storage {'auth': None}>"
p209
sS'LINK'
p210
S"<class 'gluon.html.LINK'>"
p211
sS'BR'
p212
S"<class 'gluon.html.BR'>"
p213
sS'local_import'
p214
S'<function <lambda>>'
p215
sS'OPTGROUP'
p216
S"<class 'gluon.html.OPTGROUP'>"
p217
sS'PRE'
p218
S"<class 'gluon.html.PRE'>"
p219
sS'IS_INT_IN_RANGE'
p220
S"<class 'gluon.validators.IS_INT_IN_RANGE'>"
p221
sS'IS_LOWER'
p222
S"<class 'gluon.validators.IS_LOWER'>"
p223
sS'IS_STRONG'
p224
S"<class 'gluon.validators.IS_STRONG'>"
p225
sS'Recaptcha'
p226
S"<class 'gluon.tools.Recaptcha'>"
p227
sS'cache'
p228
S'<gluon.cache.Cache object>'
p229
sS'IS_IN_DB'
p230
S"<class 'gluon.validators.IS_IN_DB'>"
p231
sS'TAG'
p232
S'<gluon.html.__TAG__ object>'
p233
sS'_k'
p234
S'4'
sS'SQLField'
p235
S"<class 'gluon.sql.Field'>"
p236
sS'mail'
p237
S'<gluon.tools.Mail object>'
p238
sS'BODY'
p239
S"<class 'gluon.html.BODY'>"
p240
sS'IS_DATE_IN_RANGE'
p241
S"<class 'gluon.validators.IS_DATE_IN_RANGE'>"
p242
sS'TH'
p243
S"<class 'gluon.html.TH'>"
p244
sS'URL'
p245
S'<function _URL>'
p246
sS'db'
p247
S"<SQLDB {'_connection': <sqlite3.Connection objec...0xa2970ec>}>, '_migrate': True, '_pool_size': 0}>"
p248
sS'auth'
p249
S'<gluon.tools.Auth object>'
p250
sS'P'
S"<class 'gluon.html.P'>"
p251
sS'TFOOT'
p252
S"<class 'gluon.html.TFOOT'>"
p253
sS'nameuser'
p254
S"'jenn'"
p255
sS'XHTML'
p256
S"<class 'gluon.html.XHTML'>"
p257
sS'ON'
p258
S'True'
p259
sS'OL'
p260
S"<class 'gluon.html.OL'>"
p261
sS'TEXTAREA'
p262
S"<class 'gluon.html.TEXTAREA'>"
p263
sS'MENU'
p264
S"<class 'gluon.html.MENU'>"
p265
sS'x'
S'0'
sS'LOAD'
p266
S'<gluon.compileapp.LoadFactory instance>'
p267
sS'CODE'
p268
S"<class 'gluon.html.CODE'>"
p269
sS'HTTP'
p270
S"<class 'gluon.http.HTTP'>"
p271
sS'HR'
p272
S"<class 'gluon.html.HR'>"
p273
sS'IS_DATETIME'
p274
S"<class 'gluon.validators.IS_DATETIME'>"
p275
sS'HEAD'
p276
S"<class 'gluon.html.HEAD'>"
p277
sS'LABEL'
p278
S"<class 'gluon.html.LABEL'>"
p279
sS'CLEANUP'
p280
S"<class 'gluon.validators.CLEANUP'>"
p281
sS'plugins'
p282
S'<gluon.tools.PluginManager object>'
p283
sS'SELECT'
p284
S"<class 'gluon.html.SELECT'>"
p285
sS'CENTER'
p286
S"<class 'gluon.html.CENTER'>"
p287
sS'prettydate'
p288
S'<function prettydate>'
p289
sS'Crud'
p290
S"<class 'gluon.tools.Crud'>"
p291
sS'Auth'
p292
S"<class 'gluon.tools.Auth'>"
p293
sS'__builtins__'
p294
S"{'ArithmeticError': <type 'exceptions.ArithmeticError'>, 'AssertionError': <type 'exceptions.AssertionError'>, 'AttributeError': <type 'exceptions.AttributeError'>, 'BaseException': <type 'exceptions.BaseException'>, 'BufferError': <type 'exceptions.BufferError'>, 'BytesWarning': <type 'exceptions.BytesWarning'>, 'DeprecationWarning': <type 'exceptions.DeprecationWarning'>, 'EOFError': <type 'exceptions.EOFError'>, 'Ellipsis': Ellipsis, 'EnvironmentError': <type 'exceptions.EnvironmentError'>, ...}"
p295
sS'IS_LIST_OF'
p296
S"<class 'gluon.validators.IS_LIST_OF'>"
p297
sS'SQLFORM'
p298
S"<class 'gluon.sqlhtml.SQLFORM'>"
p299
sS'public'
p300
S'{0: {\'name\': \'barbmullings\', \'status\': \'Are You Powerful Beyond Measure... http://t.co/k...mendously inspiring, what do you think about it??\', \'url_pic\': \'http://a0.twimg.com/profile_images/1097326192/FearMe8758_normal.jpg\'}, 1: {\'name\': \'waldo9149\', \'status\': \'soo i cantt waitt till the nextt fuegoo really d...ke it an exciting night(; ahhaaa gett att mee....\', \'url_pic\': \'http://a1.twimg.com/profile_images/960338529/m_d4aefbab2303444895d1629ebec78fe7_normal.jpg\'}, 2: {\'name\': \'dantelfer\', \'status\': \'Hey Illinois! Remember to vote for governor this year! http://huff.to/c187pW\', \'url_pic\': \'http://a3.twimg.com/profile_images/758711367/newdynaavatar_normal.jpg\'}, 3: {\'name\': \'iloveeashlee\', \'status\': \'Yes yes yes yes yes yes Yesssssssssss i do!\', \'url_pic\': \'http://a0.twimg.com/profile_images/1090032116/megan_and_ashlee_normal.jpg\'}, 4: {\'name\': \'Joellen6252\', \'status\': "Eric Stoltz as Marty McFly: See the \'Back to the Future\' that almost was http://tinyurl.com/22mgut4", \'url_pic\': \'http://a1.twimg.com/profile_images/1099763997/DSC_0204_normal.JPG\'}, 5: {\'name\': \'chafeed\', \'status\': "RT @Eponk: Morning people , don\'t forget to foll...wesome band with new formation --&gt; @CDCJKT  :)", \'url_pic\': \'http://a2.twimg.com/profile_images/737843546/103...5822803652_1172242712_783994_8136890_n_normal.jpg\'}, 6: {\'name\': \'JustTaylorS\', \'status\': \'Welcome @EUROGEMSCOM  (again KKKKKK) and @Lizziebeckman  *----------------*\', \'url_pic\': \'http://a0.twimg.com/profile_images/1141778768/taylor_pequena_normal.jpg\'}, 7: {\'name\': \'martypurks\', \'status\': u"I\'m at Aromas Coffeehouse Bakeshop & Cafe\\u200...nts Square, Williamsburg). http://4sq.com/8JLwmb", \'url_pic\': \'http://a3.twimg.com/profile_images/215407679/mep_1_normal.jpg\'}, 8: {\'name\': \'jessicagiorio\', \'status\': \'nossa q friu :s\', \'url_pic\': \'http://a1.twimg.com/profile_images/1108614077/Og...wEqk4Am1T1UMmVc23HhBcoGJBRzfrGdb7ShNB__normal.jpg\'}, 9: {\'name\': \'CELEBRITYXXXX\', \'status\': "#NAKED BEYONCE\' PICS! WHO\'S #DICK IS SHE #SUCKING IN THESE PICS! http://bit.ly/cphCPs #RETWEET #X32", \'url_pic\': \'http://a2.twimg.com/profile_images/1142495702/TWITTER_GIRL_1_normal.jpg\'}, ...}'
p301
sS'_item'
p302
S"'author'"
p303
sS'EM'
p304
S"<class 'gluon.html.EM'>"
p305
sS'redirect'
p306
S'<function redirect>'
p307
sS'FIELDSET'
p308
S"<class 'gluon.html.FIELDSET'>"
p309
sS'IS_EQUAL_TO'
p310
S"<class 'gluon.validators.IS_EQUAL_TO'>"
p311
sS'embed64'
p312
S'<function embed64>'
p313
sS'INPUT'
p314
S"<class 'gluon.html.INPUT'>"
p315
sS'EMBED'
p316
S"<class 'gluon.html.EMBED'>"
p317
sS'FORM'
p318
S"<class 'gluon.html.FORM'>"
p319
sS'H2'
p320
S"<class 'gluon.html.H2'>"
p321
sS'H3'
p322
S"<class 'gluon.html.H3'>"
p323
sS'H1'
p324
S"<class 'gluon.html.H1'>"
p325
sS'H6'
p326
S"<class 'gluon.html.H6'>"
p327
sS'H4'
p328
S"<class 'gluon.html.H4'>"
p329
sS'H5'
p330
S"<class 'gluon.html.H5'>"
p331
sS'UL'
p332
S"<class 'gluon.html.UL'>"
p333
sS'IS_UPPER'
p334
S"<class 'gluon.validators.IS_UPPER'>"
p335
sS'xmlescape'
p336
S'<function xmlescape>'
p337
sS'IS_TIME'
p338
S"<class 'gluon.validators.IS_TIME'>"
p339
sS'OPTION'
p340
S"<class 'gluon.html.OPTION'>"
p341
sS'TITLE'
p342
S"<class 'gluon.html.TITLE'>"
p343
sS'CRYPT'
p344
S"<class 'gluon.validators.CRYPT'>"
p345
sS'IS_EMPTY_OR'
p346
S"<class 'gluon.validators.IS_EMPTY_OR'>"
p347
sS'MARKMIN'
p348
S"<class 'gluon.html.MARKMIN'>"
p349
sS'service'
p350
S'<gluon.tools.Service instance>'
p351
sS'SCRIPT'
p352
S"<class 'gluon.html.SCRIPT'>"
p353
sS'geocode'
p354
S'<function geocode>'
p355
sS'TABLE'
p356
S"<class 'gluon.html.TABLE'>"
p357
sS'IS_IPV4'
p358
S"<class 'gluon.validators.IS_IPV4'>"
p359
sS'IS_LENGTH'
p360
S"<class 'gluon.validators.IS_LENGTH'>"
p361
sS'XML'
p362
S"<class 'gluon.html.XML'>"
p363
sS'B'
S"<class 'gluon.html.B'>"
p364
sS'IMG'
p365
S"<class 'gluon.html.IMG'>"
p366
sS'SQLTABLE'
p367
S"<class 'gluon.sqlhtml.SQLTABLE'>"
p368
sS'IS_MATCH'
p369
S"<class 'gluon.validators.IS_MATCH'>"
p370
sS'IS_ALPHANUMERIC'
p371
S"<class 'gluon.validators.IS_ALPHANUMERIC'>"
p372
sS'SPAN'
p373
S"<class 'gluon.html.SPAN'>"
p374
sS'IS_SLUG'
p375
S"<class 'gluon.validators.IS_SLUG'>"
p376
sS'BEAUTIFY'
p377
S"<class 'gluon.html.BEAUTIFY'>"
p378
sS'META'
p379
S"<class 'gluon.html.META'>"
p380
sS'fetch'
p381
S'<function fetch>'
p382
sS'IS_DATE'
p383
S"<class 'gluon.validators.IS_DATE'>"
p384
sS'IS_EMAIL'
p385
S"<class 'gluon.validators.IS_EMAIL'>"
p386
sS'IS_NOT_EMPTY'
p387
S"<class 'gluon.validators.IS_NOT_EMPTY'>"
p388
sg55
S"<Storage {'function': 'index', 'body': <cStringI... 19, 27, 26, 122702), 'post_vars': <Storage {}>}>"
p389
sS'TBODY'
p390
S"<class 'gluon.html.TBODY'>"
p391
sS'Field'
p392
S"<class 'gluon.sql.Field'>"
p393
sS'LEGEND'
p394
S"<class 'gluon.html.LEGEND'>"
p395
sS'Mail'
p396
S"<class 'gluon.tools.Mail'>"
p397
sS'DIV'
p398
S"<class 'gluon.html.DIV'>"
p399
sS'statususer'
p400
S"'RT @web2pyBrasil: Mais um site muito bonito desenvolvido com web2py http://www.elizabethscanvas.org/'"
p401
sS'DAL'
p402
S'<function DAL>'
p403
sS'TT'
p404
S"<class 'gluon.html.TT'>"
p405
sS'TR'
p406
S"<class 'gluon.html.TR'>"
p407
sS'LI'
p408
S"<class 'gluon.html.LI'>"
p409
sS'IFRAME'
p410
S"<class 'gluon.html.IFRAME'>"
p411
sS'TD'
p412
S"<class 'gluon.html.TD'>"
p413
sS'PluginManager'
p414
S"<class 'gluon.tools.PluginManager'>"
p415
sS'IS_URL'
p416
S"<class 'gluon.validators.IS_URL'>"
p417
sS'A'
S"<class 'gluon.html.A'>"
p418
sS'STYLE'
p419
S"<class 'gluon.html.STYLE'>"
p420
sS'IS_DATETIME_IN_RANGE'
p421
S"<class 'gluon.validators.IS_DATETIME_IN_RANGE'>"
p422
sS'HTML'
p423
S"<class 'gluon.html.HTML'>"
p424
sS'IS_IMAGE'
p425
S"<class 'gluon.validators.IS_IMAGE'>"
p426
sS'imageuser'
p427
S"'http://a1.twimg.com/profile_images/1110270905/20091102_BooFromMonstersInc_normal.jpg'"
p428
sS'I'
S"<class 'gluon.html.I'>"
p429
sS'crud'
p430
S'<gluon.tools.Crud object>'
p431
sS'IS_NOT_IN_DB'
p432
S"<class 'gluon.validators.IS_NOT_IN_DB'>"
p433
sg157
S"<Storage {'status': 200, 'body': <cStringIO.Stri...object at 0xa45eeec>], '_custom_rollback': None}>"
p434
sS'THEAD'
p435
S"<class 'gluon.html.THEAD'>"
p436
sS'IS_NULL_OR'
p437
S"<class 'gluon.validators.IS_EMPTY_OR'>"
p438
sS'IS_FLOAT_IN_RANGE'
p439
S"<class 'gluon.validators.IS_FLOAT_IN_RANGE'>"
p440
sS'IS_EXPR'
p441
S"<class 'gluon.validators.IS_EXPR'>"
p442
sS'T'
S'<gluon.languages.translator object>'
p443
sS'IS_IN_SET'
p444
S"<class 'gluon.validators.IS_IN_SET'>"
p445
sS'IS_UPLOAD_FILENAME'
p446
S"<class 'gluon.validators.IS_UPLOAD_FILENAME'>"
p447
sS'IS_DECIMAL_IN_RANGE'
p448
S"<class 'gluon.validators.IS_DECIMAL_IN_RANGE'>"
p449
sssS'traceback'
p450
S'Traceback (most recent call last):\n  File "/home/j3nnn1/git/pyj3nnn1/web2py/gluon/restricted.py", line 188, in restricted\n    exec ccode in environment\n  File "/home/j3nnn1/git/pyj3nnn1/web2py/applications/tweepy/views/default/index.html", line 78, in <module>\nTypeError: \'int\' object is unsubscriptable\n'
p451
s.