(dp1
S'output'
p2
S''
sS'layer'
p3
S'/home/j3nnn1/git/pyj3nnn1/web2py/applications/tweepy/controllers/default.py'
p4
sS'code'
p5
S'# -*- coding: utf-8 -*- \nimport tweepy\n#########################################################################\n## This is a samples controller\n## - index is the default action of any application\n## - user is required for authentication and authorization\n## - download is for downloading files uploaded in the db (does streaming)\n## - call exposes all registered services (none by default)\n#########################################################################  \n\ndef index():\n    """\n    example action using the internationalization operator T and flash\n    rendered by views/default/index.html or views/generic.html\n    """\n    user = tweepy.api.get_user(\'j3nnn1\')\n    \n    nameuser           = user.name\n    imageuser          = user.profile_image_url\n    statususer         = user.status.text\n    \n    tweetpublic  = tweepy.api.public_timeline()\n    \n    for i, tweet in enumerate(tweetpublic):\n        userpublic = tweet.user\n        dictionarytweet[i]={\'name\': userpublic.screen_name, \'status\':tweet.text, \'url_pic\':userpublic.profile_image_url}\n    \n    return dict(nameuser=nameuser, imageuser=imageuser, statususer=statususer, public=dictionarytweet)\n\n\ndef user():\n    """\n    exposes:\n    http://..../[app]/default/user/login \n    http://..../[app]/default/user/logout\n    http://..../[app]/default/user/register\n    http://..../[app]/default/user/profile\n    http://..../[app]/default/user/retrieve_password\n    http://..../[app]/default/user/change_password\n    use @auth.requires_login()\n        @auth.requires_membership(\'group name\')\n        @auth.requires_permission(\'read\',\'table name\',record_id)\n    to decorate functions that need access control\n    """\n    return dict(form=auth())\n\n\ndef download():\n    """\n    allows downloading of uploaded files\n    http://..../[app]/default/download/[filename]\n    """\n    return response.download(request,db)\n\n\ndef call():\n    """\n    exposes services. for example:\n    http://..../[app]/default/call/jsonrpc\n    decorate with @services.jsonrpc the functions to expose\n    supports xml, json, xmlrpc, jsonrpc, amfrpc, rss, csv\n    """\n    session.forget()\n    return service()\n\nresponse._vars=response._caller(index)\n'
p6
sS'snapshot'
p7
(dp8
S'exception'
p9
(dp10
S'__hash__'
p11
S"<method-wrapper '__hash__' of exceptions.NameError object>"
p12
sS'__setattr__'
p13
S"<method-wrapper '__setattr__' of exceptions.NameError object>"
p14
sS'__reduce_ex__'
p15
S'<built-in method __reduce_ex__ of exceptions.NameError object>'
p16
sS'__getslice__'
p17
S"<method-wrapper '__getslice__' of exceptions.NameError object>"
p18
sS'__getitem__'
p19
S"<method-wrapper '__getitem__' of exceptions.NameError object>"
p20
sS'__setstate__'
p21
S'<built-in method __setstate__ of exceptions.NameError object>'
p22
sS'__reduce__'
p23
S'<built-in method __reduce__ of exceptions.NameError object>'
p24
sS'__str__'
p25
S"<method-wrapper '__str__' of exceptions.NameError object>"
p26
sS'__format__'
p27
S'<built-in method __format__ of exceptions.NameError object>'
p28
sS'__getattribute__'
p29
S"<method-wrapper '__getattribute__' of exceptions.NameError object>"
p30
sS'__class__'
p31
S"<type 'exceptions.NameError'>"
p32
sS'__unicode__'
p33
S'<built-in method __unicode__ of exceptions.NameError object>'
p34
sS'__delattr__'
p35
S"<method-wrapper '__delattr__' of exceptions.NameError object>"
p36
sS'__subclasshook__'
p37
S'<built-in method __subclasshook__ of type object>'
p38
sS'__repr__'
p39
S"<method-wrapper '__repr__' of exceptions.NameError object>"
p40
sS'args'
p41
S'("global name \'dictionarytweet\' is not defined",)'
p42
sS'__dict__'
p43
S'{}'
p44
sS'__sizeof__'
p45
S'<built-in method __sizeof__ of exceptions.NameError object>'
p46
sS'__doc__'
p47
S"'Name not found globally.'"
p48
sS'__init__'
p49
S"<method-wrapper '__init__' of exceptions.NameError object>"
p50
sS'__new__'
p51
S'<built-in method __new__ of type object>'
p52
ssS'evalue'
p53
S"global name 'dictionarytweet' is not defined"
p54
sS'request'
p55
(dp56
S'function'
p57
S"'index'"
p58
sS'body'
p59
S'<cStringIO.StringO object>'
p60
sS'wsgi'
p61
S"<Storage {'start_response': <function <lambda> a...>, 'HTTP_ACCEPT_ENCODING': 'gzip,deflate,sdch'}}>"
p62
sS'extension'
p63
S"'html'"
p64
sS'vars'
p65
S'<Storage {}>'
p66
sS'cid'
p67
S'None'
p68
sS'url'
p69
S'<gluon.html.XML object>'
p70
sg41
S'[]'
p71
sS'controller'
p72
S"'default'"
p73
sS'cookies'
p74
S"<SimpleCookie: session_id_admin='127-0-0-1-b501e...'127-0-0-1-1ec39e37-b351-48fa-af74-3086837ce8e1'>"
p75
sS'application'
p76
S"'tweepy'"
p77
sS'ajax'
p78
S'False'
p79
sS'client'
p80
S"'127.0.0.1'"
p81
sS'env'
p82
S"<Storage {'http_user_agent': 'Mozilla/5.0 (X11; ...e': False, 'path_info': '/tweepy/default/index'}>"
p83
sS'raw_args'
p84
S'None'
p85
sS'get_vars'
p86
S'<Storage {}>'
p87
sS'folder'
p88
S"'/home/j3nnn1/git/pyj3nnn1/web2py/applications/tweepy/'"
p89
sS'now'
p90
S'datetime.datetime(2010, 10, 12, 19, 34, 0, 206398)'
p91
sS'post_vars'
p92
S'<Storage {}>'
p93
ssS'frames'
p94
(lp95
(dp96
S'file'
p97
S'/home/j3nnn1/git/pyj3nnn1/web2py/gluon/restricted.py'
p98
sS'dump'
p99
(dp100
S'environment'
p101
S"{'A': <class 'gluon.html.A'>, 'Auth': <class 'gluon.tools.Auth'>, 'B': <class 'gluon.html.B'>, 'BEAUTIFY': <class 'gluon.html.BEAUTIFY'>, 'BODY': <class 'gluon.html.BODY'>, 'BR': <class 'gluon.html.BR'>, 'CENTER': <class 'gluon.html.CENTER'>, 'CLEANUP': <class 'gluon.validators.CLEANUP'>, 'CODE': <class 'gluon.html.CODE'>, 'CRYPT': <class 'gluon.validators.CRYPT'>, ...}"
p102
sS'ccode'
p103
S'<code object <module> at 0xa2fd6e0, file "/home/...lications/tweepy/controllers/default.py", line 2>'
p104
ssS'lnum'
p105
I188
sS'lines'
p106
(dp107
I192
S'        # XXX Show exception in Wing IDE if running in debugger'
p108
sI183
S'        if type(code) == types.CodeType:'
p109
sI184
S'            ccode = code'
p110
sI185
S'        else:'
p111
sI186
S'            ccode = compile2(code,layer)'
p112
sI187
S''
sI188
S'        exec ccode in environment'
p113
sI189
S'    except HTTP:'
p114
sI190
S'        raise'
p115
sI191
S'    except Exception:'
p116
ssS'call'
p117
S"(code='# -*- coding: utf-8 -*- \\nimport tweepy\\n#########...ervice()\\n\\nresponse._vars=response._caller(index)\\n', environment={'A': <class 'gluon.html.A'>, 'Auth': <class 'gluon.tools.Auth'>, 'B': <class 'gluon.html.B'>, 'BEAUTIFY': <class 'gluon.html.BEAUTIFY'>, 'BODY': <class 'gluon.html.BODY'>, 'BR': <class 'gluon.html.BR'>, 'CENTER': <class 'gluon.html.CENTER'>, 'CLEANUP': <class 'gluon.validators.CLEANUP'>, 'CODE': <class 'gluon.html.CODE'>, 'CRYPT': <class 'gluon.validators.CRYPT'>, ...}, layer='/home/j3nnn1/git/pyj3nnn1/web2py/applications/tweepy/controllers/default.py')"
p118
sS'func'
p119
S'restricted'
p120
sa(dp121
g97
S'/home/j3nnn1/git/pyj3nnn1/web2py/applications/tweepy/controllers/default.py'
p122
sg99
(dp123
sg105
I66
sg106
(dp124
I64
S'    return service()'
p125
sI55
S''
sI56
S'def call():'
p126
sI57
S'    """'
p127
sI58
S'    exposes services. for example:'
p128
sI59
S'    http://..../[app]/default/call/jsonrpc'
p129
sI60
S'    decorate with @services.jsonrpc the functions to expose'
p130
sI61
S'    supports xml, json, xmlrpc, jsonrpc, amfrpc, rss, csv'
p131
sI62
S'    """'
p132
sI63
S'    session.forget()'
p133
ssg117
S'()'
p134
sg119
S'<module>'
p135
sa(dp136
g97
S'/home/j3nnn1/git/pyj3nnn1/web2py/gluon/globals.py'
p137
sg99
(dp138
S'self'
p139
S'undefined'
p140
sS'f'
S'<function index>'
p141
ssg105
I96
sg106
(dp142
I96
S'        self._caller = lambda f: f()'
p143
sI97
S'        self._view_environment = None'
p144
sI98
S'        self._custom_commit = None'
p145
sI99
S'        self._custom_rollback = None'
p146
sI100
S''
sI91
S"        self.flash = ''           # used by the default view layout"
p147
sI92
S'        self.meta = Storage()     # used by web2py_ajax.html'
p148
sI93
S'        self.menu = []            # used by the default view layout'
p149
sI94
S'        self.files = []           # used by web2py_ajax.html'
p150
sI95
S'        self._vars = None'
p151
ssg117
S'(f=<function index>)'
p152
sg119
S'<lambda>'
p153
sa(dp154
g97
S'/home/j3nnn1/git/pyj3nnn1/web2py/applications/tweepy/controllers/default.py'
p155
sg99
(dp156
S'userpublic'
p157
S'<tweepy.models.User object>'
p158
sS'dictionarytweet'
p159
g140
sS'i'
S'0'
sS'tweet'
p160
S'<tweepy.models.Status object>'
p161
sS'userpublic.screen_name'
p162
S"'BabyDealsDujour'"
p163
sS'userpublic.profile_image_url'
p164
S"'http://a3.twimg.com/profile_images/1125651387/logo_normal.JPG'"
p165
sS'tweet.text'
p166
S"'#clothdiaper sale alert: FuzziBunz Perfect Size ...er for $10 - details: http://babydealsdujour.com/'"
p167
ssg105
I26
sg106
(dp168
I21
S''
sI22
S'    tweetpublic  = tweepy.api.public_timeline()'
p169
sI23
S''
sI24
S'    for i, tweet in enumerate(tweetpublic):'
p170
sI25
S'        userpublic = tweet.user'
p171
sI26
S"        dictionarytweet[i]={'name': userpublic.screen_name, 'status':tweet.text, 'url_pic':userpublic.profile_image_url}"
p172
sI27
S''
sI28
S'    return dict(nameuser=nameuser, imageuser=imageuser, statususer=statususer, public=dictionarytweet)'
p173
sI29
S''
sI30
S''
ssg117
S'()'
p174
sg119
S'index'
p175
sasS'pyver'
p176
S'Python 2.6.6: /usr/bin/python'
p177
sS'session'
p178
(dp179
S'auth'
p180
S'None'
p181
ssS'etype'
p182
S"<type 'exceptions.NameError'>"
p183
sS'date'
p184
S'Tue Oct 12 19:34:05 2010'
p185
sS'response'
p186
(dp187
S'status'
p188
S'200'
p189
sg59
S'<cStringIO.StringO object>'
p190
sg74
S"<SimpleCookie: session_id_tweepy='127-0-0-1-316504f2-0da6-4968-8ef6-728ad932eccd'>"
p191
sS'_vars'
p192
S'None'
p193
sS'title'
p194
S"'tweepy'"
p195
sS'session_file'
p196
S"<open file '/home/j3nnn1/git/pyj3nnn1/web2py/app...16504f2-0da6-4968-8ef6-728ad932eccd', mode 'rb+'>"
p197
sS'flash'
p198
S"''"
p199
sS'_custom_rollback'
p200
S'None'
p201
sS'session_id'
p202
S"'127-0-0-1-316504f2-0da6-4968-8ef6-728ad932eccd'"
p203
sS'headers'
p204
S"<Storage {'Expires': 'mi\\xc3\\xa9, 13 oct 2010 00...he, must-revalidate, post-check=0, pre-check=0'}>"
p205
sS'meta'
p206
S"<Storage {'keywords': 'bla bla bla', 'description': 'describe your app', 'author': 'you'}>"
p207
sS'session_filename'
p208
S"'/home/j3nnn1/git/pyj3nnn1/web2py/applications/tw...ns/127-0-0-1-316504f2-0da6-4968-8ef6-728ad932eccd'"
p209
sS'postprocessing'
p210
S'[]'
p211
sS'menu'
p212
S"[(<lazyT 'Index'>, False, <gluon.html.XML object>, []), (<lazyT 'Edit'>, False, <gluon.html.XML object>, [(<lazyT 'Controller'>, False, <gluon.html.XML object>), (<lazyT 'View'>, False, <gluon.html.XML object>), (<lazyT 'Layout'>, False, <gluon.html.XML object>), (<lazyT 'Stylesheet'>, False, <gluon.html.XML object>), (<lazyT 'DB Model'>, False, <gluon.html.XML object>), (<lazyT 'Menu Model'>, False, <gluon.html.XML object>), (<lazyT 'Database'>, False, <gluon.html.XML object>)])]"
p213
sS'_view_environment'
p214
S"{'A': <class 'gluon.html.A'>, 'Auth': <class 'gluon.tools.Auth'>, 'B': <class 'gluon.html.B'>, 'BEAUTIFY': <class 'gluon.html.BEAUTIFY'>, 'BODY': <class 'gluon.html.BODY'>, 'BR': <class 'gluon.html.BR'>, 'CENTER': <class 'gluon.html.CENTER'>, 'CLEANUP': <class 'gluon.validators.CLEANUP'>, 'CODE': <class 'gluon.html.CODE'>, 'CRYPT': <class 'gluon.validators.CRYPT'>, ...}"
p215
sS'subtitle'
p216
S"<lazyT 'customize me!'>"
p217
sS'session_id_name'
p218
S"'session_id_tweepy'"
p219
sS'_custom_commit'
p220
S'None'
p221
sS'_caller'
p222
S'<function <lambda>>'
p223
sS'files'
p224
S'[]'
p225
sS'view'
p226
S"'default/index.html'"
p227
ssS'locals'
p228
(dp229
S'userpublic'
p230
S'<tweepy.models.User object>'
p231
sS'imageuser'
p232
S"'http://a1.twimg.com/profile_images/1110270905/20091102_BooFromMonstersInc_normal.jpg'"
p233
sS'i'
S'0'
sS'tweet'
p234
S'<tweepy.models.Status object>'
p235
sS'tweetpublic'
p236
S'[<tweepy.models.Status object at 0xa3094ac>, <tw...f6c>, <tweepy.models.Status object at 0xa1ddf2c>]'
p237
sS'user'
p238
S'<tweepy.models.User object>'
p239
sS'nameuser'
p240
S"'jenn'"
p241
sS'statususer'
p242
S"'RT @web2pyBrasil: Mais um site muito bonito desenvolvido com web2py http://www.elizabethscanvas.org/'"
p243
sssS'traceback'
p244
S'Traceback (most recent call last):\n  File "/home/j3nnn1/git/pyj3nnn1/web2py/gluon/restricted.py", line 188, in restricted\n    exec ccode in environment\n  File "/home/j3nnn1/git/pyj3nnn1/web2py/applications/tweepy/controllers/default.py", line 66, in <module>\n  File "/home/j3nnn1/git/pyj3nnn1/web2py/gluon/globals.py", line 96, in <lambda>\n    self._caller = lambda f: f()\n  File "/home/j3nnn1/git/pyj3nnn1/web2py/applications/tweepy/controllers/default.py", line 26, in index\n    dictionarytweet[i]={\'name\': userpublic.screen_name, \'status\':tweet.text, \'url_pic\':userpublic.profile_image_url}\nNameError: global name \'dictionarytweet\' is not defined\n'
p245
s.