(dp1
S'output'
p2
S'missing "pass" in view'
p3
sS'layer'
p4
S'ParserContainer'
p5
sS'code'
p6
S'response.write(\'<!DOCTYPE html PUBLIC "-//W3C//DTD XHTML 1.0 Transitional//EN" "http://www.w3.org/TR/xhtml1/DTD/xhtml1-transitional.dtd">\\n<html xmlns="http://www.w3.org/1999/xhtml" xml:lang="\', escape=False)\nresponse.write(T.accepted_language or \'en\')\nresponse.write(\'">\\n  <head>\\n    <title>\', escape=False)\nresponse.write(response.title or request.application)\nresponse.write(\'</title>\\n    <link rel="shortcut icon"\\n\\t  href="\', escape=False)\nresponse.write(URL(request.application,\'static\',\'favicon.ico\'))\nresponse.write(\'" \\n\\t  type="image/vnd.microsoft.icon">\\n    <meta http-equiv="Content-Type" content="text/html; charset=UTF-8" />\\n    \', escape=False)\n#------  require CSS and JS files for this page (read info in base.css) ------\nresponse.write(\'\\n    \', escape=False)\nresponse.files.append(URL(request.application,\'static\',\'base.css\'))\nresponse.write(\'\\n    \', escape=False)\nresponse.files.append(URL(request.application,\'static\',\'superfish.js\'))\nresponse.write(\'\\n    \', escape=False)\n#------ include web2py specific js code (jquery, calendar, form stuff) ------\nresponse.write(\'\\n    \', escape=False)\nresponse.files.insert(0,URL(r=request,c=\'static\',f=\'jquery.js\'))\nresponse.files.insert(1,URL(r=request,c=\'static\',f=\'calendar.css\'))\nresponse.files.insert(2,URL(r=request,c=\'static\',f=\'calendar.js\'))\nfor _item in response.meta or []:\n    response.write(\'\\n     <meta name="\', escape=False)\n    response.write(_item)\n    response.write(\'" content="\', escape=False)\n    response.write(response.meta[_item])\n    response.write(\'" />\', escape=False)\n    pass\nfor _k,_file in enumerate(response.files or []):\n    if _file in response.files[:_k]:\n        continue\n    elif _file.lower().endswith(\'.css\'):\n        response.write(\'\\n     <link href="\', escape=False)\n        response.write(_file)\n        response.write(\'" rel="stylesheet" type="text/css" />\', escape=False)\n    elif _file.lower().endswith(\'.js\'):\n        response.write(\'\\n     <script src="\', escape=False)\n        response.write(_file)\n        response.write(\'" type="text/javascript"></script>\', escape=False)\n        pass\n    pass\nresponse.write(\'\\n<script type="text/javascript"><!--\\nfunction popup(url) {\\n  newwindow=window.open(url,\\\'name\\\',\\\'height=400,width=600\\\');\\n  if (window.focus) newwindow.focus();\\n  return false;\\n}\\nfunction collapse(id) { jQuery(\\\'#\\\'+id).slideToggle(); }\\nfunction fade(id,value) { if(value>0) jQuery(\\\'#\\\'+id).hide().fadeIn(\\\'slow\\\'); else jQuery(\\\'#\\\'+id).show().fadeOut(\\\'slow\\\'); }\\nfunction ajax(u,s,t) {\\n    query = \\\'\\\';\\n    if (typeof s == "string") {\\n        d = jQuery(s).serialize();\\n        if(d){ query = d; }\\n    } else {\\n        pcs = [];\\n        for(i=0; i<s.length; i++) {\\n            q = jQuery("[name="+s[i]+"]").serialize();\\n            if(q){pcs.push(q);}\\n        }\\n        if (pcs.length>0){query = pcs.join("&");}\\n    }\\n    jQuery.ajax({type: "POST", url: u, data: query, success: function(msg) { if(t) { if(t==\\\':eval\\\') eval(msg); else jQuery("#" + t).html(msg); } } }); \\n}\\nString.prototype.reverse = function () { return this.split(\\\'\\\').reverse().join(\\\'\\\');};\\nfunction web2py_ajax_init() {\\n  jQuery(\\\'.hidden\\\').hide();\\n  jQuery(\\\'.error\\\').hide().slideDown(\\\'slow\\\');\\n  jQuery(\\\'.flash\\\').click(function() { jQuery(this).fadeOut(\\\'slow\\\'); return false; });\\n  jQuery(\\\'input[type=submit]\\\').click(function(){var t=jQuery(this);t.hide();t.after(\\\'<input class="submit_disabled" disabled="disabled" type="submit" name="\\\'+t.attr("name")+\\\'_dummy" value="\\\'+t.val()+\\\'">\\\')});\\n  jQuery(\\\'input.integer\\\').keyup(function(){this.value=this.value.reverse().replace(/[^0-9\\\\-]|\\\\-(?=.)/g,\\\'\\\').reverse();});\\n  jQuery(\\\'input.double,input.decimal\\\').keyup(function(){this.value=this.value.reverse().replace(/[^0-9\\\\-\\\\.]|[\\\\-](?=.)|[\\\\.](?=[0-9]*[\\\\.])/g,\\\'\\\').reverse();});\\n  jQuery("input[type=\\\'checkbox\\\'].delete").each(function(){jQuery(this).click(function() { if(this.checked) if(!confirm("\', escape=False)\nresponse.write(T(\'Sure you want to delete this object?\'))\nresponse.write(\'")) this.checked=false; });});\\n  try {jQuery("input.date").focus( function() {Calendar.setup({\\n     inputField:this.id, ifFormat:"\', escape=False)\nresponse.write(T(\'%Y-%m-%d\'))\nresponse.write(\'", showsTime:false\\n  }); }); } catch(e) {};\\n  try { jQuery("input.datetime").focus( function() {Calendar.setup({\\n     inputField:this.id, ifFormat:"\', escape=False)\nresponse.write(T(\'%Y-%m-%d %H:%M:%S\'))\nresponse.write(\'", showsTime: true,timeFormat: "24"\\n  }); }); } catch(e) {};\\n  try { jQuery("input.time").clockpick({\\n      starthour:0, endhour:23, showminutes:true, military:true\\n  }); } catch(e) {};\\n};\\njQuery(document).ready(function(){\\n   jQuery(\\\'.flash\\\').hide();\\n   if(jQuery(\\\'.flash\\\').html()!=\\\'\\\') jQuery(\\\'.flash\\\').slideDown(\\\'slow\\\');\\n   web2py_ajax_init();});\\n\\nfunction web2py_trap_form(action,target) {\\n   jQuery(\\\'#\\\'+target+\\\' form\\\').each(function(i){\\n      var form=jQuery(this);\\n      if(!form.hasClass(\\\'no_trap\\\'))\\n        form.submit(function(obj){\\n         jQuery(\\\'.flash\\\').hide().html(\\\'\\\');\\n         web2py_ajax_page(\\\'post\\\',action,form.serialize(),target);\\n         return false;\\n      });\\n   });\\n}\\n\\nfunction web2py_ajax_page(method,action,data,target) {\\n  jQuery.ajax({\\\'type\\\':method,\\\'url\\\':action,\\\'data\\\':data,\\n    \\\'beforeSend\\\':function(xhr) {\\n      xhr.setRequestHeader(\\\'web2py-component-location\\\',document.location);\\n      xhr.setRequestHeader(\\\'web2py-component-element\\\',target);},\\n    \\\'complete\\\':function(xhr,text){\\n      var html=xhr.responseText;\\n      var content=xhr.getResponseHeader(\\\'web2py-component-content\\\'); \\n      var command=xhr.getResponseHeader(\\\'web2py-component-command\\\');\\n      var flash=xhr.getResponseHeader(\\\'web2py-component-flash\\\');\\n      var t = jQuery(\\\'#\\\'+target);\\n      if(content==\\\'prepend\\\') t.prepend(html); \\n      else if(content==\\\'append\\\') t.append(html);\\n      else if(content!=\\\'hide\\\') t.html(html);  \\n      web2py_trap_form(action,target);\\n      web2py_ajax_init();      \\n      if(command) eval(command);\\n      if(flash) jQuery(\\\'.flash\\\').html(flash).slideDown();\\n      }\\n    });\\n}\\nfunction web2py_component(action,target) {\\n    jQuery(document).ready(function(){ web2py_ajax_page(\\\'get\\\',action,null,target); });\\n}\\n//--></script>\\n\', escape=False)\nresponse.write(\'\\n  </head>\\n  <body>\\n    <div class="flash">\', escape=False)\nresponse.write(response.flash or \'\')\nresponse.write(\'</div>\\n    <div class="ez-mr wrapper" id="layout">\\n      \', escape=False)\n#------ Layout 3 from http://www.ez-css.org/layouts ------\nresponse.write(\'\\n      <div class="ez-wr">\\n\\t<div class="ez-box" id="header">\\n\\t  \', escape=False)\ntry:\n    response.write(auth.navbar(action=URL(request.application,\'default\',\'user\')))\nexcept:pass\nresponse.write(\'\\n          <h1>\\n            <a href="">\', escape=False)\nresponse.write(response.title or \'response.title\')\nresponse.write(\'</a>\\n          </h1>            \\n          <h2>\\n\\t    \', escape=False)\nresponse.write(response.subtitle or \'response.subtitle\')\nresponse.write(\'\\n\\t  </h2>\\n\\t</div>\\n\\t<div class="ez-box" id="statusbar">\\n\\t  \', escape=False)\n#------ superfish menu ------\nresponse.write(\'\\n\\t  \', escape=False)\nresponse.write(MENU(response.menu,_class=\'sf-menu\'))\nresponse.write(\'\\n          <script>\\n\\t    jQuery(document).ready(function(){\\n              jQuery(\\\'ul.sf-menu\\\').superfish({delay:400});});\\n\\t  </script>\\n\\t</div>\\n\\t<div class="ez-wr">\\n\\t  <div class="ez-fl ez-negmx">\\n            <div class="ez-box" id="left_sidebar">\', escape=False)\n#------ unused space\nresponse.write(\'</div>\\n\\t  </div>\\n\\t  <div class="ez-fl ez-negmr">\\n            <div class="ez-box" id="content">\', escape=False)\nresponse.write(\'\\n<hr />\\n<h1>This is the homework</h1>\\n<div> \', escape=False)\nresponse.write(T(\'Tweepy, user: j3nnn1!!\'))\nresponse.write(\'</div>\\n<table>\\n    <tr>\\n        <td>\\n            <img src="\', escape=False)\nresponse.write(imageuser)\nresponse.write(\'"/>\\n        </td>\\n        <td>\\n           <b>\', escape=False)\nresponse.write(nameuser)\nresponse.write(\': </b>\', escape=False)\nresponse.write(statususer)\nresponse.write(\' \\n        </td>\\n    </tr>\\n</table>\\n<div> \', escape=False)\nresponse.write(T(\'Tweepy, Public Time Line!!\'))\nresponse.write(\'</div>\\n\\n<table>\\n    \', escape=False)\nfor i,x in enumerate(public):\n    response.write(\'\\n    <tr>\\n        <td>\\n            <img src="\', escape=False)\n    response.write(x[i][\'url_pic\'])\n    response.write(\'"/>\\n        </td>\\n        <td>\\n           <b>\', escape=False)\n    response.write(x[i][\'name\'])\n    response.write(\': </b>\', escape=False)\n    response.write(x[i][\'status\'])\n    response.write(\'\\n        </td>\\n    </tr>\\n</table>\\n\', escape=False)\n    response.write(\'</div>\\n\\t  </div>\\n\\t  <div class="ez-last ez-oh">\\n            <div class="ez-box" id="right_sidebar">\', escape=False)\n    #------ unused space\n    response.write(\'</div>\\n\\t  </div>\\n\\t</div>\\n\\t<div class="ez-box" id="footer">\\n          \', escape=False)\n    response.write(T(\'Copyright\'))\n    response.write(\' &#169; 2010 -\\n          \', escape=False)\n    response.write(T(\'Powered by\'))\n    response.write(\' <a href="http://www.web2py.com">web2py</a>\\n\\t</div>\\n      </div>\\n    </div>\\n  </body>\\n</html>\\n\', escape=False)'
p7
sS'snapshot'
p8
(dp9
S'exception'
p10
(dp11
S'__module__'
p12
S"'gluon.rocket'"
p13
sS'__getslice__'
p14
S"<method-wrapper '__getslice__' of SocketTimeout object>"
p15
sS'__str__'
p16
S"<method-wrapper '__str__' of SocketTimeout object>"
p17
sS'__reduce__'
p18
S'<built-in method __reduce__ of SocketTimeout object>'
p19
sS'__dict__'
p20
S'{}'
p21
sS'__sizeof__'
p22
S'<built-in method __sizeof__ of SocketTimeout object>'
p23
sS'__weakref__'
p24
S'None'
p25
sS'__init__'
p26
S"<method-wrapper '__init__' of SocketTimeout object>"
p27
sS'__setattr__'
p28
S"<method-wrapper '__setattr__' of SocketTimeout object>"
p29
sS'__reduce_ex__'
p30
S'<built-in method __reduce_ex__ of SocketTimeout object>'
p31
sS'__new__'
p32
S'<built-in method __new__ of type object>'
p33
sS'__format__'
p34
S'<built-in method __format__ of SocketTimeout object>'
p35
sS'__class__'
p36
S"<class 'gluon.rocket.SocketTimeout'>"
p37
sS'__doc__'
p38
S"'Exception for when a socket times out between requests.'"
p39
sS'__getitem__'
p40
S"<method-wrapper '__getitem__' of SocketTimeout object>"
p41
sS'__setstate__'
p42
S'<built-in method __setstate__ of SocketTimeout object>'
p43
sS'__getattribute__'
p44
S"<method-wrapper '__getattribute__' of SocketTimeout object>"
p45
sS'args'
p46
S"('Socket timed out before request.',)"
p47
sS'__subclasshook__'
p48
S'<built-in method __subclasshook__ of type object>'
p49
sS'__unicode__'
p50
S'<built-in method __unicode__ of SocketTimeout object>'
p51
sS'__delattr__'
p52
S"<method-wrapper '__delattr__' of SocketTimeout object>"
p53
sS'__repr__'
p54
S"<method-wrapper '__repr__' of SocketTimeout object>"
p55
sS'__hash__'
p56
S"<method-wrapper '__hash__' of SocketTimeout object>"
p57
ssS'evalue'
p58
S'Socket timed out before request.'
p59
sS'frames'
p60
(lp61
(dp62
S'file'
p63
S'/home/j3nnn1/git/pyj3nnn1/web2py/gluon/rocket.py'
p64
sS'dump'
p65
(dp66
S'self'
p67
S'<WSGIWorker(Thread-9, started daemon -1323996304)>'
p68
sS'conn'
p69
S'<socket._socketobject object>'
p70
sS'self.run_app'
p71
S'<bound method WSGIWorker.run_app of <WSGIWorker(Thread-9, started daemon -1323996304)>>'
p72
ssS'lnum'
p73
I876
sS'lines'
p74
(dp75
I871
S''
sI872
S'            # Enter connection serve loop'
p76
sI873
S'            while True:'
p77
sI874
S"                self.err_log.debug('Serving a request')"
p78
sI875
S'                try:'
p79
sI876
S'                    self.run_app(conn)'
p80
sI877
S'                    log_info = dict(client_ip = conn.client_addr,'
p81
sI878
S"                                    time = datetime.now().strftime('%c'),"
p82
sI879
S"                                    status = self.status.split(' ')[0],"
p83
sI880
S'                                    size = self.size,'
p84
ssS'call'
p85
S'(self=<WSGIWorker(Thread-9, started daemon -1323996304)>)'
p86
sS'func'
p87
S'run'
p88
sa(dp89
g63
S'/home/j3nnn1/git/pyj3nnn1/web2py/gluon/rocket.py'
p90
sg65
(dp91
S'self'
p92
S'<WSGIWorker(Thread-9, started daemon -1323996304)>'
p93
sS'self.environ'
p94
S"{'HTTP_ACCEPT': 'application/xml,application/xhtml+xml,text/html;q=0.9,text/plain;q=0.8,image/png,*/*;q=0.5', 'HTTP_ACCEPT_CHARSET': 'ISO-8859-1,utf-8;q=0.7,*;q=0.3', 'HTTP_ACCEPT_ENCODING': 'gzip,deflate,sdch', 'HTTP_ACCEPT_LANGUAGE': 'es-419,es;q=0.8', 'HTTP_CACHE_CONTROL': 'max-age=0', 'HTTP_CONNECTION': 'keep-alive', 'HTTP_COOKIE': 'session_id_welcome=127-0-0-1-1ec39e37-b351-48fa-...in=127-0-0-1-b501eeed-9136-4cd4-881d-deb737db5e5e', 'HTTP_HOST': '127.0.0.1:8000', 'HTTP_USER_AGENT': 'Mozilla/5.0 (X11; U; Linux i686; en-US) AppleWeb...KHTML, like Gecko) Chrome/6.0.472.63 Safari/534.3', 'PATH_INFO': '/tweepy/default/index', ...}"
p95
sS'sock_file'
p96
S'<socket._fileobject object>'
p97
sS'environ'
p98
S'undefined'
p99
sS'self.build_environ'
p100
S'<bound method WSGIWorker.build_environ of <WSGIWorker(Thread-9, started daemon -1323996304)>>'
p101
sS'conn'
p102
S'<socket._socketobject object>'
p103
ssg73
I1286
sg74
(dp104
I1281
S'        # Build our file-like object'
p105
sI1282
S"        sock_file = conn.makefile('rb',BUF_SIZE)"
p106
sI1283
S''
sI1284
S'        try:'
p107
sI1285
S'            # Read the headers and build our WSGI environment'
p108
sI1286
S'            self.environ = environ = self.build_environ(sock_file, conn)'
p109
sI1287
S''
sI1288
S'            # Handle 100 Continue'
p110
sI1289
S"            if environ.get('HTTP_EXPECT', '').lower() == '100-continue':"
p111
sI1290
S"                res = environ['SERVER_PROTOCOL'] + ' 100 Continue\\r\\n\\r\\n'"
p112
ssg85
S'(self=<WSGIWorker(Thread-9, started daemon -1323996304)>, conn=<socket._socketobject object>)'
p113
sg87
S'run_app'
p114
sa(dp115
g63
S'/home/j3nnn1/git/pyj3nnn1/web2py/gluon/rocket.py'
p116
sg65
(dp117
S'sock_file'
p118
S'<socket._fileobject object>'
p119
sS'self.read_request_line'
p120
S'<bound method WSGIWorker.read_request_line of <WSGIWorker(Thread-9, started daemon -1323996304)>>'
p121
sS'self'
p122
S'<WSGIWorker(Thread-9, started daemon -1323996304)>'
p123
sS'request'
p124
g99
ssg73
I1119
sg74
(dp125
I1120
S''
sI1121
S'        # Grab the headers'
p126
sI1122
S"        self.headers = dict([(str('HTTP_'+k.upper()), v) for k, v in self.read_headers(sock_file).items()])"
p127
sI1123
S''
sI1114
S'        Worker.__init__(self)'
p128
sI1115
S''
sI1116
S'    def build_environ(self, sock_file, conn):'
p129
sI1117
S'        """ Build the execution environment. """'
p130
sI1118
S'        # Grab the request line'
p131
sI1119
S'        request = self.read_request_line(sock_file)'
p132
ssg85
S'(self=<WSGIWorker(Thread-9, started daemon -1323996304)>, sock_file=<socket._fileobject object>, conn=<socket._socketobject object>)'
p133
sg87
S'build_environ'
p134
sa(dp135
g63
S'/home/j3nnn1/git/pyj3nnn1/web2py/gluon/rocket.py'
p136
sg65
(dp137
S'global SocketTimeout'
p138
S"<class 'gluon.rocket.SocketTimeout'>"
p139
ssg73
I943
sg74
(dp140
I938
S"                self.err_log.debug('Client sent newline')"
p141
sI939
S'                d = sock_file.readline()'
p142
sI940
S'                if PY3K:'
p143
sI941
S"                    d = d.decode('ISO-8859-1')"
p144
sI942
S'        except socket.timeout:'
p145
sI943
S'            raise SocketTimeout("Socket timed out before request.")'
p146
sI944
S''
sI945
S"        if d.strip() == '':"
p147
sI946
S"            self.err_log.debug('Client did not send a recognizable request.')"
p148
sI947
S"            raise SocketClosed('Client closed socket.')"
p149
ssg85
S'(self=<WSGIWorker(Thread-9, started daemon -1323996304)>, sock_file=<socket._fileobject object>)'
p150
sg87
S'read_request_line'
p151
sasS'pyver'
p152
S'Python 2.6.6: /usr/bin/python'
p153
sS'etype'
p154
S"<class 'gluon.rocket.SocketTimeout'>"
p155
sS'date'
p156
S'Tue Oct 12 19:24:02 2010'
p157
sS'locals'
p158
(dp159
S'sock_file'
p160
S'<socket._fileobject object>'
p161
sS'self'
p162
S'<WSGIWorker(Thread-9, started daemon -1323996304)>'
p163
sssS'traceback'
p164
S'Traceback (most recent call last):\n  File "/home/j3nnn1/git/pyj3nnn1/web2py/gluon/rocket.py", line 876, in run\n    self.run_app(conn)\n  File "/home/j3nnn1/git/pyj3nnn1/web2py/gluon/rocket.py", line 1286, in run_app\n    self.environ = environ = self.build_environ(sock_file, conn)\n  File "/home/j3nnn1/git/pyj3nnn1/web2py/gluon/rocket.py", line 1119, in build_environ\n    request = self.read_request_line(sock_file)\n  File "/home/j3nnn1/git/pyj3nnn1/web2py/gluon/rocket.py", line 943, in read_request_line\n    raise SocketTimeout("Socket timed out before request.")\nSocketTimeout: Socket timed out before request.\n'
p165
s.