(dp1
S'token_key'
p2
S'CHAR(512)'
p3
sS'consumer_secret'
p4
S'CHAR(512)'
p5
sS'id_cuentas_twitter'
p6
S'INTEGER REFERENCES cuentas_twitter(id) ON DELETE CASCADE'
p7
sS'creationdate'
p8
S'TIMESTAMP'
p9
sS'consumer_key'
p10
S'CHAR(512)'
p11
sS'id'
p12
S'INTEGER PRIMARY KEY AUTOINCREMENT'
p13
sS'token_secret'
p14
S'CHAR(512)'
p15
s.