(dp1
S'fecha'
p2
S'TIMESTAMP'
p3
sS'articulo'
p4
S'TEXT'
p5
sS'image'
p6
S'CHAR(512)'
p7
sS'id_usuario'
p8
S'INTEGER REFERENCES usuarios(id) ON DELETE CASCADE'
p9
sS'titulo'
p10
S'CHAR(255)'
p11
sS'id'
p12
S'INTEGER PRIMARY KEY AUTOINCREMENT'
p13
s.