(dp1
S'status'
p2
S'CHAR(512)'
p3
sS'updatedateregister'
p4
S'TIMESTAMP'
p5
sS'updatedate'
p6
S'TIMESTAMP'
p7
sS'id_cuentas_twitter'
p8
S'INTEGER REFERENCES cuentas_twitter(id) ON DELETE CASCADE'
p9
sS'nickname'
p10
S'CHAR(512)'
p11
sS'id'
p12
S'INTEGER PRIMARY KEY AUTOINCREMENT'
p13
s.