(dp1
S'id_articulo'
p2
(dp3
S'type'
p4
S'reference articulos'
p5
sS'sortable'
p6
I3
sS'sql'
p7
S'INTEGER REFERENCES articulos(id) ON DELETE CASCADE'
p8
ssS'id'
p9
(dp10
g4
S'id'
p11
sg6
I1
sg7
S'INTEGER PRIMARY KEY AUTOINCREMENT'
p12
ssS'id_etiqueta'
p13
(dp14
g4
S'reference etiquetas'
p15
sg6
I2
sg7
S'INTEGER REFERENCES etiquetas(id) ON DELETE CASCADE'
p16
ss.