(dp1
S'correo'
p2
S'CHAR(512)'
p3
sS'visible'
p4
S'CHAR(1)'
p5
sS'fecha'
p6
S'TIMESTAMP'
p7
sS'titulo'
p8
S'CHAR(512)'
p9
sS'url'
p10
S'CHAR(512)'
p11
sS'nombre'
p12
S'CHAR(512)'
p13
sS'id_articulo'
p14
S'INTEGER REFERENCES articulos(id) ON DELETE CASCADE'
p15
sS'comentario'
p16
S'CHAR(512)'
p17
sS'id'
p18
S'INTEGER PRIMARY KEY AUTOINCREMENT'
p19
s.