(dp1
S'articulo'
p2
(dp3
S'type'
p4
S'text'
p5
sS'sortable'
p6
I3
sS'sql'
p7
S'TEXT'
p8
ssS'id_usuario'
p9
(dp10
g4
S'reference auth_user'
p11
sg6
I5
sg7
S'INTEGER REFERENCES auth_user(id) ON DELETE CASCADE'
p12
ssS'titulo'
p13
(dp14
g4
S'string'
p15
sg6
I2
sg7
S'CHAR(512)'
p16
ssS'fecha'
p17
(dp18
g4
S'datetime'
p19
sg6
I4
sg7
S'TIMESTAMP'
p20
ssS'image'
p21
(dp22
g4
S'upload'
p23
sg6
I6
sg7
S'CHAR(512)'
p24
ssS'id'
p25
(dp26
g4
S'id'
p27
sg6
I1
sg7
S'INTEGER PRIMARY KEY AUTOINCREMENT'
p28
ss.