(dp1
S'url'
p2
S'VARCHAR(512)'
p3
sS'fecha'
p4
S'DATETIME'
p5
sS'comentario'
p6
S'LONGTEXT'
p7
sS'correo'
p8
S'VARCHAR(512)'
p9
sS'visible'
p10
S'CHAR(1)'
p11
sS'nombre'
p12
S'VARCHAR(512)'
p13
sS'titulo'
p14
S'VARCHAR(512)'
p15
sS'id_articulo'
p16
S'INT, INDEX id_articulo__idx (id_articulo), FOREIGN KEY (id_articulo) REFERENCES articulos(id) ON DELETE CASCADE'
p17
sS'id'
p18
S'INT AUTO_INCREMENT NOT NULL'
p19
s.